0000: 07 00     or    a,($00+x)
0002: 00        nop
0003: 00        nop
0004: 07 00     or    a,($00+x)
0006: 00        nop
0007: 00        nop
0008: 07 00     or    a,($00+x)
000a: 00        nop
000b: 00        nop
000c: 00        nop
000d: 00        nop
000e: 00        nop
000f: 00        nop
0010: 00        nop
0011: 0a 52 00  or1   c,$000a,2
0014: 5a 00     cmpw  ya,$00
0016: 16 02 ce  or    a,$ce02+y
0019: b4 40     sbc   a,$40+x
001b: 00        nop
001c: 00        nop
001d: 00        nop
001e: 00        nop
001f: 00        nop
0020: f2 37     clr7  $37
0022: 1a 2d     decw  $2d
0024: a6        sbc   a,(x)
0025: 03 aa 03  bbs0  $aa,$002a
0028: af        mov   (x)+,a
0029: 03 1c 2d  bbs0  $1c,$0058
002c: 04 90     or    a,$90
002e: 0a 89 a0  or1   c,$1411,1
0031: 65 15 67  cmp   a,$6715
0034: e1        tcall 14
0035: 65 15 67  cmp   a,$6715
0038: 14 66     or    a,$66+x
003a: db 66     mov   $66+x,y
003c: 00        nop
003d: 00        nop
003e: 00        nop
003f: 00        nop
0040: bd        mov   sp,x
0041: 61        tcall 6
0042: 00        nop
0043: e0        clrv
0044: 0e 2e 00  tset1 $002e
0047: 00        nop
0048: 00        nop
0049: 00        nop
004a: 0a 00 02  or1   c,$0040,0
004d: 02 46     set0  $46
004f: 00        nop
0050: 00        nop
0051: 13 00 30  bbc0  $00,$0083
0054: 00        nop
0055: 00        nop
0056: 00        nop
0057: 00        nop
0058: 00        nop
0059: d2 00     clr6  $00
005b: c8 aa     cmp   x,#$aa
005d: 00        nop
005e: 2e 26 00  cbne  $26,$0060
0061: 46        eor   a,(x)
0062: 00        nop
0063: 32 00     clr1  $00
0065: 00        nop
0066: 00        nop
0067: 00        nop
0068: 00        nop
0069: 00        nop
006a: 00        nop
006b: 00        nop
006c: 00        nop
006d: 00        nop
006e: 00        nop
006f: 00        nop
0070: 05 04 0c  or    a,$0c04
0073: 0b 50     asl   $50
0075: 4e 0c 0b  tclr1 $0b0c
0078: 48 32     eor   a,#$32
007a: 18 13 01  or    $01,#$13
007d: 06        or    a,(x)
007e: 01        tcall 0
007f: 00        nop
0080: 00        nop
0081: 00        nop
0082: 01        tcall 0
0083: 00        nop
0084: 00        nop
0085: 00        nop
0086: 01        tcall 0
0087: 00        nop
0088: 00        nop
0089: 00        nop
008a: 01        tcall 0
008b: 00        nop
008c: 00        nop
008d: 00        nop
008e: 00        nop
008f: 00        nop
0090: 00        nop
0091: 00        nop
0092: 77 ef     cmp   a,($ef)+y
0094: 00        nop
0095: 9f        xcn   a
0096: 77 ef     cmp   a,($ef)+y
0098: 00        nop
0099: 00        nop
009a: 00        nop
009b: 00        nop
009c: 00        nop
009d: 00        nop
009e: 00        nop
009f: 00        nop
00a0: 00        nop
00a1: 00        nop
00a2: 00        nop
00a3: 00        nop
00a4: 00        nop
00a5: 00        nop
00a6: 00        nop
00a7: 00        nop
00a8: 00        nop
00a9: 00        nop
00aa: 00        nop
00ab: 00        nop
00ac: 00        nop
00ad: 00        nop
00ae: 00        nop
00af: 00        nop
00b0: 00        nop
00b1: 00        nop
00b2: 00        nop
00b3: 00        nop
00b4: 00        nop
00b5: 00        nop
00b6: 00        nop
00b7: 00        nop
00b8: 00        nop
00b9: 00        nop
00ba: 00        nop
00bb: 00        nop
00bc: 00        nop
00bd: 00        nop
00be: 00        nop
00bf: 00        nop
00c0: 00        nop
00c1: 00        nop
00c2: 00        nop
00c3: 00        nop
00c4: 00        nop
00c5: 00        nop
00c6: 00        nop
00c7: 00        nop
00c8: 00        nop
00c9: 00        nop
00ca: 00        nop
00cb: 00        nop
00cc: 00        nop
00cd: 00        nop
00ce: 00        nop
00cf: 00        nop
00d0: 03 04 00  bbs0  $04,$00d2
00d3: 00        nop
00d4: a9 41 47  sbc   ($47),($41)
00d7: 04 49     or    a,$49
00d9: 04 4c     or    a,$4c
00db: 04 ad     or    a,$ad
00dd: 41        tcall 4
00de: b6 41 5b  sbc   a,$5b41+y
00e1: 4f 7f     pcall $7f
00e3: 04 81     or    a,$81
00e5: 04 84     or    a,$84
00e7: 04 5f     or    a,$5f
00e9: 4f 65     pcall $65
00eb: 4f 00     pcall $00
00ed: 00        nop
00ee: 40        setp
00ef: 04 ff     or    a,$ff
00f1: 31        tcall 3
00f2: 4c 2e 07  lsr   $072e
00f5: 00        nop
00f6: 00        nop
00f7: 00        nop
00f8: ff        stop
00f9: ff        stop
00fa: 10 ff     bpl   $00fb
00fc: ff        stop
00fd: 07 ff     or    a,($ff+x)
00ff: ff        stop
0100: 00        nop
0101: ff        stop
0102: 00        nop
0103: ff        stop
0104: 00        nop
0105: ff        stop
0106: 00        nop
0107: ff        stop
0108: 00        nop
0109: ff        stop
010a: 00        nop
010b: ff        stop
010c: 00        nop
010d: ff        stop
010e: ff        stop
010f: ff        stop
0110: ff        stop
0111: ff        stop
0112: ff        stop
0113: ff        stop
0114: ff        stop
0115: ff        stop
0116: ff        stop
0117: ff        stop
0118: ff        stop
0119: ff        stop
011a: ff        stop
011b: ff        stop
011c: ff        stop
011d: ff        stop
011e: ff        stop
011f: ff        stop
0120: ff        stop
0121: ff        stop
0122: ff        stop
0123: ff        stop
0124: ff        stop
0125: ff        stop
0126: ff        stop
0127: ff        stop
0128: ff        stop
0129: ff        stop
012a: ff        stop
012b: ff        stop
012c: ff        stop
012d: ff        stop
012e: ff        stop
012f: ff        stop
0130: ff        stop
0131: ff        stop
0132: ff        stop
0133: ff        stop
0134: ff        stop
0135: ff        stop
0136: ff        stop
0137: ff        stop
0138: ff        stop
0139: ff        stop
013a: ff        stop
013b: ff        stop
013c: ff        stop
013d: ff        stop
013e: ff        stop
013f: ff        stop
0140: ff        stop
0141: ff        stop
0142: ff        stop
0143: ff        stop
0144: ff        stop
0145: ff        stop
0146: ff        stop
0147: ff        stop
0148: ff        stop
0149: ff        stop
014a: ff        stop
014b: ff        stop
014c: ff        stop
014d: ff        stop
014e: ff        stop
014f: ff        stop
0150: ff        stop
0151: ff        stop
0152: ff        stop
0153: ff        stop
0154: ff        stop
0155: ff        stop
0156: ff        stop
0157: ff        stop
0158: ff        stop
0159: ff        stop
015a: ff        stop
015b: ff        stop
015c: ff        stop
015d: ff        stop
015e: ff        stop
015f: ff        stop
0160: ff        stop
0161: ff        stop
0162: ff        stop
0163: ff        stop
0164: ff        stop
0165: ff        stop
0166: ff        stop
0167: ff        stop
0168: ff        stop
0169: ff        stop
016a: ff        stop
016b: ff        stop
016c: ff        stop
016d: ff        stop
016e: ff        stop
016f: ff        stop
0170: ff        stop
0171: ff        stop
0172: ff        stop
0173: ff        stop
0174: ff        stop
0175: ff        stop
0176: ff        stop
0177: ff        stop
0178: ff        stop
0179: ff        stop
017a: ff        stop
017b: ff        stop
017c: ff        stop
017d: ff        stop
017e: ff        stop
017f: ff        stop
0180: ff        stop
0181: ff        stop
0182: ff        stop
0183: ff        stop
0184: ff        stop
0185: ff        stop
0186: ff        stop
0187: ff        stop
0188: ff        stop
0189: ff        stop
018a: ff        stop
018b: ff        stop
018c: ff        stop
018d: ff        stop
018e: ff        stop
018f: ff        stop
0190: ff        stop
0191: ff        stop
0192: ff        stop
0193: ff        stop
0194: ff        stop
0195: ff        stop
0196: ff        stop
0197: ff        stop
0198: ff        stop
0199: ff        stop
019a: ff        stop
019b: ff        stop
019c: ff        stop
019d: ff        stop
019e: ff        stop
019f: ff        stop
01a0: ff        stop
01a1: ff        stop
01a2: ff        stop
01a3: ff        stop
01a4: ff        stop
01a5: ff        stop
01a6: ff        stop
01a7: ff        stop
01a8: ff        stop
01a9: ff        stop
01aa: ff        stop
01ab: ff        stop
01ac: ff        stop
01ad: ff        stop
01ae: ff        stop
01af: ff        stop
01b0: ff        stop
01b1: ff        stop
01b2: ff        stop
01b3: ff        stop
01b4: ff        stop
01b5: ff        stop
01b6: ff        stop
01b7: ff        stop
01b8: ff        stop
01b9: ff        stop
01ba: ff        stop
01bb: ff        stop
01bc: ff        stop
01bd: ff        stop
01be: ff        stop
01bf: ff        stop
01c0: ff        stop
01c1: ff        stop
01c2: ff        stop
01c3: ff        stop
01c4: ff        stop
01c5: ff        stop
01c6: ff        stop
01c7: 00        nop
01c8: d7 26     mov   ($26)+y,a
01ca: 7a 1c     addw  ya,$1c
01cc: d6 18 06  mov   $0618+y,a
01cf: 16 ff ff  or    a,$ffff+y
01d2: ff        stop
01d3: ff        stop
01d4: ff        stop
01d5: ff        stop
01d6: ff        stop
01d7: ff        stop
01d8: ff        stop
01d9: ff        stop
01da: ff        stop
01db: ff        stop
01dc: ff        stop
01dd: ff        stop
01de: ff        stop
01df: ff        stop
01e0: ff        stop
01e1: ff        stop
01e2: ff        stop
01e3: ff        stop
01e4: ff        stop
01e5: ff        stop
01e6: ff        stop
01e7: ff        stop
01e8: ff        stop
01e9: ff        stop
01ea: ff        stop
01eb: ff        stop
01ec: ff        stop
01ed: ff        stop
01ee: ff        stop
01ef: ff        stop
01f0: ff        stop
01f1: ff        stop
01f2: ff        stop
01f3: ff        stop
01f4: ff        stop
01f5: ff        stop
01f6: ff        stop
01f7: ff        stop
01f8: ff        stop
01f9: ff        stop
01fa: ff        stop
01fb: ff        stop
01fc: ff        stop
01fd: ff        stop
01fe: ff        stop
01ff: ff        stop
0200: 05 fc 0c  or    a,$0cfc
0203: fc        inc   y
0204: 50 fc     bvc   $0202
0206: 0c fc 48  asl   $48fc
0209: b2 18     clr5  $18
020b: cb 0c     mov   $0c,y
020d: cb ff     mov   $ff,y
020f: ff        stop
0210: fc        inc   y
0211: 1e fc 19  cmp   x,$19fc
0214: fc        inc   y
0215: 1e fc 1d  cmp   x,$1dfc
0218: fc        inc   y
0219: 1c        asl   a
021a: fc        inc   y
021b: 1a b2     decw  $b2
021d: 00        nop
021e: ff        stop
021f: 00        nop
0220: 80        setc
0221: 00        nop
0222: f0 08     beq   $022c
0224: 80        setc
0225: 00        nop
0226: f0 06     beq   $022e
0228: 30 03     bmi   $022d
022a: f0 05     beq   $0231
022c: 90 01     bcc   $022f
022e: 70 04     bvs   $0234
0230: 9c        dec   a
0231: 65 cd 65  cmp   a,$65cd
0234: 8c 5b 04  dec   $045b
0237: 66        cmp   a,(x)
0238: 8e        pop   psw
0239: 5f 57 66  jmp   $6657
023c: 5a 5e     cmpw  ya,$5e
023e: ff        stop
023f: ff        stop
0240: 58 66 12  eor   $12,#$66
0243: 67 ca     cmp   a,($ca+x)
0245: 5f 12 67  jmp   $6712
0248: 9c        dec   a
0249: 60        clrc
024a: d8 66     mov   $66,x
024c: 73 5f ff  bbc3  $5f,$024d
024f: ff        stop
0250: ff        stop
0251: ff        stop
0252: ff        stop
0253: ff        stop
0254: ff        stop
0255: ff        stop
0256: ff        stop
0257: ff        stop
0258: ff        stop
0259: ff        stop
025a: ff        stop
025b: ff        stop
025c: ff        stop
025d: ff        stop
025e: ff        stop
025f: ff        stop
0260: ff        stop
0261: ff        stop
0262: ff        stop
0263: ff        stop
0264: ff        stop
0265: ff        stop
0266: ff        stop
0267: ff        stop
0268: ff        stop
0269: ff        stop
026a: ff        stop
026b: ff        stop
026c: ff        stop
026d: ff        stop
026e: ff        stop
026f: ff        stop
0270: ff        stop
0271: ff        stop
0272: ff        stop
0273: ff        stop
0274: ff        stop
0275: ff        stop
0276: ff        stop
0277: ff        stop
0278: ff        stop
0279: ff        stop
027a: ff        stop
027b: ff        stop
027c: ff        stop
027d: ff        stop
027e: ff        stop
027f: ff        stop
0280: 00        nop
0281: 0c 00 05  asl   $0500
0284: 00        nop
0285: 01        tcall 0
0286: 00        nop
0287: 01        tcall 0
0288: 00        nop
0289: 05 00 05  or    a,$0500
028c: 00        nop
028d: ff        stop
028e: 00        nop
028f: ff        stop
0290: 01        tcall 0
0291: 0a 01 fe  or1   c,$1fc0,1
0294: 01        tcall 0
0295: 0a 01 0a  or1   c,$0140,1
0298: 01        tcall 0
0299: fe 01     dbnz  y,$029c
029b: fe ff     dbnz  y,$029c
029d: ff        stop
029e: ff        stop
029f: ff        stop
02a0: 80        setc
02a1: ff        stop
02a2: 80        setc
02a3: ff        stop
02a4: 80        setc
02a5: ff        stop
02a6: 80        setc
02a7: ff        stop
02a8: 80        setc
02a9: ff        stop
02aa: 80        setc
02ab: ff        stop
02ac: 00        nop
02ad: 78 ff ff  cmp   $ff,#$ff
02b0: ff        stop
02b1: ff        stop
02b2: ff        stop
02b3: ff        stop
02b4: ff        stop
02b5: ff        stop
02b6: ff        stop
02b7: ff        stop
02b8: ff        stop
02b9: ff        stop
02ba: ff        stop
02bb: ff        stop
02bc: 01        tcall 0
02bd: 00        nop
02be: ff        stop
02bf: ff        stop
02c0: ff        stop
02c1: ff        stop
02c2: ff        stop
02c3: ff        stop
02c4: ff        stop
02c5: ff        stop
02c6: ff        stop
02c7: ff        stop
02c8: ff        stop
02c9: ff        stop
02ca: ff        stop
02cb: ff        stop
02cc: ff        stop
02cd: 00        nop
02ce: ff        stop
02cf: ff        stop
02d0: 00        nop
02d1: ff        stop
02d2: 00        nop
02d3: ff        stop
02d4: 00        nop
02d5: ff        stop
02d6: 00        nop
02d7: ff        stop
02d8: 00        nop
02d9: ff        stop
02da: 00        nop
02db: ff        stop
02dc: 00        nop
02dd: ff        stop
02de: ff        stop
02df: ff        stop
02e0: ff        stop
02e1: ff        stop
02e2: ff        stop
02e3: ff        stop
02e4: ff        stop
02e5: ff        stop
02e6: ff        stop
02e7: ff        stop
02e8: ff        stop
02e9: ff        stop
02ea: ff        stop
02eb: ff        stop
02ec: ff        stop
02ed: ff        stop
02ee: ff        stop
02ef: ff        stop
02f0: 01        tcall 0
02f1: ff        stop
02f2: 00        nop
02f3: ff        stop
02f4: 01        tcall 0
02f5: ff        stop
02f6: 00        nop
02f7: ff        stop
02f8: 00        nop
02f9: ff        stop
02fa: 00        nop
02fb: ff        stop
02fc: 00        nop
02fd: ff        stop
02fe: 00        nop
02ff: ff        stop
0300: 00        nop
0301: b4 6b     sbc   a,$6b+x
0303: e5 00 b4  mov   a,$b400
0306: 6b e5     ror   $e5
0308: 00        nop
0309: d2 00     clr6  $00
030b: dc        dec   y
030c: 00        nop
030d: ff        stop
030e: ff        stop
030f: ff        stop
0310: 72 00     clr3  $00
0312: 6b ff     ror   $ff
0314: 4d        push  x
0315: 00        nop
0316: 6b ff     ror   $ff
0318: 3b 00     rol   $00+x
031a: 20        clrp
031b: 00        nop
031c: 50 00     bvc   $031e
031e: ff        stop
031f: ff        stop
0320: c8 51     cmp   x,#$51
0322: a0        ei
0323: 82 b3     set4  $b3
0325: 51        tcall 5
0326: a0        ei
0327: 82 ab     set4  $ab
0329: 6e be 79  dbnz  $be,$03a4
032c: c7 1e     mov   ($1e+x),a
032e: ff        stop
032f: ff        stop
0330: 00        nop
0331: 0a f9 10  or1   c,$021f,1
0334: f4 0d     mov   a,$0d+x
0336: 07 03     or    a,($03+x)
0338: 00        nop
0339: 0a 00 0a  or1   c,$0140,0
033c: 00        nop
033d: 0a 00 0a  or1   c,$0140,0
0340: f9 ff     mov   x,$ff+y
0342: f9 ff     mov   x,$ff+y
0344: f4 ff     mov   a,$ff+x
0346: 07 00     or    a,($00+x)
0348: ff        stop
0349: ff        stop
034a: e8 ff     mov   a,#$ff
034c: ab ff     inc   $ff
034e: ff        stop
034f: ff        stop
0350: 03 0a 0a  bbs0  $0a,$035c
0353: 11        tcall 1
0354: 06        or    a,(x)
0355: 0e 0a 03  tset1 $030a
0358: ff        stop
0359: 0a 08 0a  or1   c,$0141,0
035c: 03 0a ff  bbs0  $0a,$035d
035f: 0a 1e 0c  or1   c,$0183,6
0362: 00        nop
0363: 18 00 3d  or    $3d,#$00
0366: 3c        rol   a
0367: 18 00 23  or    $23,#$00
036a: 3c        rol   a
036b: 05 3c 0d  or    a,$0d3c
036e: ff        stop
036f: ff        stop
0370: d5 00 e6  mov   $e600+x,a
0373: ff        stop
0374: 6f        ret
0375: 00        nop
0376: 6f        ret
0377: 00        nop
0378: e6        mov   a,(x)
0379: ff        stop
037a: e6        mov   a,(x)
037b: ff        stop
037c: ff        stop
037d: ff        stop
037e: ff        stop
037f: ff        stop
0380: 0c 00 0d  asl   $0d00
0383: 00        nop
0384: 13 00 0f  bbc0  $00,$0395
0387: 3c        rol   a
0388: 01        tcall 0
0389: 3c        rol   a
038a: 0d        push  psw
038b: 3c        rol   a
038c: ff        stop
038d: 00        nop
038e: ff        stop
038f: 00        nop
0390: 7f        reti
0391: 00        nop
0392: 00        nop
0393: 14 0b     or    a,$0b+x
0395: 00        nop
0396: 00        nop
0397: 00        nop
0398: 00        nop
0399: 01        tcall 0
039a: 01        tcall 0
039b: 01        tcall 0
039c: ff        stop
039d: ff        stop
039e: ff        stop
039f: ff        stop
03a0: 01        tcall 0
03a1: 00        nop
03a2: 0e 00 00  tset1 $0000
03a5: 07 80     or    a,($80+x)
03a7: 00        nop
03a8: 00        nop
03a9: 00        nop
03aa: 7f        reti
03ab: ff        stop
03ac: ff        stop
03ad: ff        stop
03ae: 02 0e     set0  $0e
03b0: 00        nop
03b1: 00        nop
03b2: 00        nop
03b3: 00        nop
03b4: 70 00     bvs   $03b6
03b6: 00        nop
03b7: 00        nop
03b8: ff        stop
03b9: 0a 00 00  or1   c,$0000,0
03bc: 00        nop
03bd: 00        nop
03be: 00        nop
03bf: 00        nop
03c0: 00        nop
03c1: 00        nop
03c2: 00        nop
03c3: 00        nop
03c4: 00        nop
03c5: 00        nop
03c6: 00        nop
03c7: 00        nop
03c8: 00        nop
03c9: 00        nop
03ca: 00        nop
03cb: 00        nop
03cc: 00        nop
03cd: 00        nop
03ce: 00        nop
03cf: 00        nop
03d0: 00        nop
03d1: 00        nop
03d2: 00        nop
03d3: 00        nop
03d4: 00        nop
03d5: 00        nop
03d6: 00        nop
03d7: 00        nop
03d8: 00        nop
03d9: 00        nop
03da: 00        nop
03db: 00        nop
03dc: 84 00     adc   a,$00
03de: 00        nop
03df: 00        nop
03e0: 00        nop
03e1: 00        nop
03e2: f5 00 00  mov   a,$0000+x
03e5: 00        nop
03e6: 00        nop
03e7: 00        nop
03e8: 00        nop
03e9: 00        nop
03ea: 00        nop
03eb: 00        nop
03ec: 00        nop
03ed: 00        nop
03ee: 00        nop
03ef: 00        nop
03f0: 00        nop
03f1: 00        nop
03f2: 00        nop
03f3: 00        nop
03f4: 00        nop
03f5: 00        nop
03f6: 00        nop
03f7: 00        nop
03f8: 4e 9a 09  tclr1 $099a
03fb: 10 00     bpl   $03fd
03fd: 11        tcall 1
03fe: ff        stop
03ff: 00        nop
0400: 00        nop
0401: ff        stop
0402: 00        nop
0403: ff        stop
0404: 00        nop
0405: ff        stop
0406: 00        nop
0407: ff        stop
0408: 00        nop
0409: ff        stop
040a: 00        nop
040b: ff        stop
040c: 00        nop
040d: ff        stop
040e: 00        nop
040f: ff        stop
0410: ff        stop
0411: ff        stop
0412: ff        stop
0413: ff        stop
0414: ff        stop
0415: ff        stop
0416: ff        stop
0417: ff        stop
0418: ff        stop
0419: ff        stop
041a: ff        stop
041b: ff        stop
041c: ff        stop
041d: ff        stop
041e: ff        stop
041f: ff        stop
0420: ff        stop
0421: ff        stop
0422: ff        stop
0423: ff        stop
0424: ff        stop
0425: ff        stop
0426: ff        stop
0427: ff        stop
0428: ff        stop
0429: ff        stop
042a: ff        stop
042b: ff        stop
042c: ff        stop
042d: ff        stop
042e: ff        stop
042f: ff        stop
0430: ff        stop
0431: ff        stop
0432: ff        stop
0433: ff        stop
0434: ff        stop
0435: ff        stop
0436: ff        stop
0437: ff        stop
0438: ff        stop
0439: ff        stop
043a: ff        stop
043b: ff        stop
043c: ff        stop
043d: ff        stop
043e: ff        stop
043f: ff        stop
0440: 02 00     set0  $00
0442: 0c 00 ff  asl   $ff00
0445: 06        or    a,(x)
0446: 80        setc
0447: 40        setp
0448: 7f        reti
0449: bf        mov   a,(x)+
044a: 04 0e     or    a,$0e
044c: 0c 40 70  asl   $7040
044f: 60        clrc
0450: ff        stop
0451: 0a 36 0a  or1   c,$0146,6
0454: 00        nop
0455: 00        nop
0456: 00        nop
0457: 00        nop
0458: 00        nop
0459: 00        nop
045a: 00        nop
045b: 00        nop
045c: 00        nop
045d: 00        nop
045e: 00        nop
045f: 00        nop
0460: 00        nop
0461: 00        nop
0462: c7 70     mov   ($70+x),a
0464: 00        nop
0465: 00        nop
0466: 00        nop
0467: 00        nop
0468: f5 9a 20  mov   a,$209a+x
046b: 50 80     bvc   $03ed
046d: ff        stop
046e: ff        stop
046f: f5 00 08  mov   a,$0800+x
0472: 06        or    a,(x)
0473: 06        or    a,(x)
0474: 00        nop
0475: 00        nop
0476: ff        stop
0477: ff        stop
0478: 02 00     set0  $00
047a: 0c 00 00  asl   $0000
047d: 06        or    a,(x)
047e: 80        setc
047f: 40        setp
0480: 7f        reti
0481: bf        mov   a,(x)+
0482: 04 0e     or    a,$0e
0484: 0c 00 70  asl   $7000
0487: 60        clrc
0488: ff        stop
0489: 0a 36 0a  or1   c,$0146,6
048c: 00        nop
048d: 00        nop
048e: 00        nop
048f: 00        nop
0490: 00        nop
0491: 00        nop
0492: 00        nop
0493: 00        nop
0494: 00        nop
0495: 00        nop
0496: 00        nop
0497: 00        nop
0498: 00        nop
0499: 00        nop
049a: 80        setc
049b: 00        nop
049c: 00        nop
049d: 00        nop
049e: 00        nop
049f: 00        nop
04a0: f5 84 00  mov   a,$0084+x
04a3: 00        nop
04a4: 00        nop
04a5: 00        nop
04a6: 00        nop
04a7: f5 00 00  mov   a,$0000+x
04aa: 00        nop
04ab: 00        nop
04ac: 00        nop
04ad: 00        nop
04ae: 00        nop
04af: 00        nop
04b0: 00        nop
04b1: 00        nop
04b2: 00        nop
04b3: 00        nop
04b4: 00        nop
04b5: 00        nop
04b6: 00        nop
04b7: 00        nop
04b8: 00        nop
04b9: 00        nop
04ba: 00        nop
04bb: 00        nop
04bc: 01        tcall 0
04bd: 00        nop
04be: 00        nop
04bf: ff        stop
04c0: ff        stop
04c1: ff        stop
04c2: ff        stop
04c3: ff        stop
04c4: ff        stop
04c5: ff        stop
04c6: ff        stop
04c7: ff        stop
04c8: ff        stop
04c9: ff        stop
04ca: ff        stop
04cb: ff        stop
04cc: ff        stop
04cd: ff        stop
04ce: ff        stop
04cf: ff        stop
04d0: ff        stop
04d1: ff        stop
04d2: ff        stop
04d3: ff        stop
04d4: ff        stop
04d5: ff        stop
04d6: ff        stop
04d7: ff        stop
04d8: ff        stop
04d9: ff        stop
04da: ff        stop
04db: ff        stop
04dc: ff        stop
04dd: ff        stop
04de: ff        stop
04df: ff        stop
04e0: ff        stop
04e1: ff        stop
04e2: ff        stop
04e3: ff        stop
04e4: ff        stop
04e5: ff        stop
04e6: ff        stop
04e7: ff        stop
04e8: ff        stop
04e9: ff        stop
04ea: ff        stop
04eb: ff        stop
04ec: ff        stop
04ed: ff        stop
04ee: ff        stop
04ef: ff        stop
04f0: ff        stop
04f1: ff        stop
04f2: ff        stop
04f3: ff        stop
04f4: ff        stop
04f5: ff        stop
04f6: ff        stop
04f7: ff        stop
04f8: ff        stop
04f9: ff        stop
04fa: ff        stop
04fb: ff        stop
04fc: ff        stop
04fd: ff        stop
04fe: ff        stop
04ff: ff        stop
0500: 00        nop
0501: 00        nop
0502: 00        nop
0503: 00        nop
0504: 00        nop
0505: 00        nop
0506: 00        nop
0507: 00        nop
0508: 00        nop
0509: 00        nop
050a: 00        nop
050b: 00        nop
050c: 00        nop
050d: 00        nop
050e: 00        nop
050f: 00        nop
0510: 00        nop
0511: 00        nop
0512: 00        nop
0513: 00        nop
0514: 00        nop
0515: 00        nop
0516: 00        nop
0517: 00        nop
0518: 00        nop
0519: 00        nop
051a: 00        nop
051b: 00        nop
051c: 00        nop
051d: 00        nop
051e: 00        nop
051f: 00        nop
0520: 00        nop
0521: 00        nop
0522: 00        nop
0523: 00        nop
0524: 00        nop
0525: 00        nop
0526: 00        nop
0527: 00        nop
0528: 00        nop
0529: 00        nop
052a: 00        nop
052b: 00        nop
052c: 00        nop
052d: 00        nop
052e: 00        nop
052f: 00        nop
0530: 00        nop
0531: 00        nop
0532: 00        nop
0533: 00        nop
0534: 00        nop
0535: 00        nop
0536: 00        nop
0537: 00        nop
0538: 00        nop
0539: 00        nop
053a: 00        nop
053b: 00        nop
053c: 00        nop
053d: 00        nop
053e: 00        nop
053f: 00        nop
0540: 00        nop
0541: 00        nop
0542: 00        nop
0543: 00        nop
0544: 00        nop
0545: 00        nop
0546: 00        nop
0547: 00        nop
0548: 00        nop
0549: 00        nop
054a: 00        nop
054b: 00        nop
054c: 00        nop
054d: 00        nop
054e: 00        nop
054f: 00        nop
0550: 00        nop
0551: 00        nop
0552: 00        nop
0553: 00        nop
0554: 00        nop
0555: 00        nop
0556: 00        nop
0557: 00        nop
0558: 00        nop
0559: 00        nop
055a: 00        nop
055b: 00        nop
055c: 00        nop
055d: 00        nop
055e: 00        nop
055f: 00        nop
0560: 00        nop
0561: 00        nop
0562: 00        nop
0563: 00        nop
0564: 00        nop
0565: 00        nop
0566: 00        nop
0567: 00        nop
0568: 00        nop
0569: 00        nop
056a: 00        nop
056b: 00        nop
056c: 00        nop
056d: 00        nop
056e: 00        nop
056f: 00        nop
0570: 00        nop
0571: 00        nop
0572: 00        nop
0573: 00        nop
0574: 00        nop
0575: 00        nop
0576: 00        nop
0577: 00        nop
0578: 00        nop
0579: 00        nop
057a: 00        nop
057b: 00        nop
057c: 00        nop
057d: 00        nop
057e: 00        nop
057f: 00        nop
0580: 00        nop
0581: 00        nop
0582: 00        nop
0583: 00        nop
0584: 00        nop
0585: 00        nop
0586: 00        nop
0587: 00        nop
0588: 00        nop
0589: 00        nop
058a: 00        nop
058b: 00        nop
058c: 00        nop
058d: 00        nop
058e: 00        nop
058f: 00        nop
0590: 00        nop
0591: 00        nop
0592: 00        nop
0593: 00        nop
0594: 00        nop
0595: 00        nop
0596: 00        nop
0597: 00        nop
0598: 00        nop
0599: 00        nop
059a: 00        nop
059b: 00        nop
059c: 00        nop
059d: 00        nop
059e: 00        nop
059f: 00        nop
05a0: 00        nop
05a1: 00        nop
05a2: 00        nop
05a3: 00        nop
05a4: 00        nop
05a5: 00        nop
05a6: 00        nop
05a7: 00        nop
05a8: 00        nop
05a9: 00        nop
05aa: 00        nop
05ab: 00        nop
05ac: 00        nop
05ad: 00        nop
05ae: 00        nop
05af: 00        nop
05b0: 00        nop
05b1: 00        nop
05b2: 00        nop
05b3: 00        nop
05b4: 00        nop
05b5: 00        nop
05b6: 00        nop
05b7: 00        nop
05b8: 00        nop
05b9: 00        nop
05ba: 00        nop
05bb: 00        nop
05bc: 00        nop
05bd: 00        nop
05be: 00        nop
05bf: 00        nop
05c0: 00        nop
05c1: 00        nop
05c2: 00        nop
05c3: 00        nop
05c4: 00        nop
05c5: 00        nop
05c6: 00        nop
05c7: 00        nop
05c8: 00        nop
05c9: 00        nop
05ca: 00        nop
05cb: 00        nop
05cc: 00        nop
05cd: 00        nop
05ce: 00        nop
05cf: 00        nop
05d0: 00        nop
05d1: 00        nop
05d2: 00        nop
05d3: 00        nop
05d4: 00        nop
05d5: 00        nop
05d6: 00        nop
05d7: 00        nop
05d8: 00        nop
05d9: 00        nop
05da: 00        nop
05db: 00        nop
05dc: 00        nop
05dd: 00        nop
05de: 00        nop
05df: 00        nop
05e0: 00        nop
05e1: 00        nop
05e2: 00        nop
05e3: 00        nop
05e4: 00        nop
05e5: 00        nop
05e6: 00        nop
05e7: 00        nop
05e8: 00        nop
05e9: 00        nop
05ea: 00        nop
05eb: 00        nop
05ec: 00        nop
05ed: 00        nop
05ee: 00        nop
05ef: 00        nop
05f0: 00        nop
05f1: 00        nop
05f2: 00        nop
05f3: 00        nop
05f4: 00        nop
05f5: 00        nop
05f6: 00        nop
05f7: 00        nop
05f8: 00        nop
05f9: 00        nop
05fa: 00        nop
05fb: 00        nop
05fc: 00        nop
05fd: 00        nop
05fe: 00        nop
05ff: 00        nop
0600: 00        nop
0601: 00        nop
0602: 00        nop
0603: 00        nop
0604: 00        nop
0605: 00        nop
0606: 00        nop
0607: 00        nop
0608: 00        nop
0609: 00        nop
060a: 00        nop
060b: 00        nop
060c: 00        nop
060d: 00        nop
060e: 00        nop
060f: 00        nop
0610: 00        nop
0611: 00        nop
0612: 00        nop
0613: 00        nop
0614: 00        nop
0615: 00        nop
0616: 00        nop
0617: 00        nop
0618: 00        nop
0619: 00        nop
061a: 00        nop
061b: 00        nop
061c: 00        nop
061d: 00        nop
061e: 00        nop
061f: 00        nop
0620: 00        nop
0621: 00        nop
0622: 00        nop
0623: 00        nop
0624: 00        nop
0625: 00        nop
0626: 00        nop
0627: 00        nop
0628: 00        nop
0629: 00        nop
062a: 00        nop
062b: 00        nop
062c: 00        nop
062d: 00        nop
062e: 00        nop
062f: 00        nop
0630: 00        nop
0631: 00        nop
0632: 00        nop
0633: 00        nop
0634: 00        nop
0635: 00        nop
0636: 00        nop
0637: 00        nop
0638: 00        nop
0639: 00        nop
063a: 00        nop
063b: 00        nop
063c: 00        nop
063d: 00        nop
063e: 00        nop
063f: 00        nop
0640: 00        nop
0641: 00        nop
0642: 00        nop
0643: 00        nop
0644: 00        nop
0645: 00        nop
0646: 00        nop
0647: 00        nop
0648: 00        nop
0649: 00        nop
064a: 00        nop
064b: 00        nop
064c: 00        nop
064d: 00        nop
064e: 00        nop
064f: 00        nop
0650: 00        nop
0651: 00        nop
0652: 00        nop
0653: 00        nop
0654: 00        nop
0655: 00        nop
0656: 00        nop
0657: 00        nop
0658: 00        nop
0659: 00        nop
065a: 00        nop
065b: 00        nop
065c: 00        nop
065d: 00        nop
065e: 00        nop
065f: 00        nop
0660: 00        nop
0661: 00        nop
0662: 00        nop
0663: 00        nop
0664: 00        nop
0665: 00        nop
0666: 00        nop
0667: 00        nop
0668: 00        nop
0669: 00        nop
066a: 00        nop
066b: 00        nop
066c: 00        nop
066d: 00        nop
066e: 00        nop
066f: 00        nop
0670: 00        nop
0671: 00        nop
0672: 00        nop
0673: 00        nop
0674: 00        nop
0675: 00        nop
0676: 00        nop
0677: 00        nop
0678: 00        nop
0679: 00        nop
067a: 00        nop
067b: 00        nop
067c: 00        nop
067d: 00        nop
067e: 00        nop
067f: 00        nop
0680: 00        nop
0681: 00        nop
0682: 00        nop
0683: 00        nop
0684: 00        nop
0685: 00        nop
0686: 00        nop
0687: 00        nop
0688: 00        nop
0689: 00        nop
068a: 00        nop
068b: 00        nop
068c: 00        nop
068d: 00        nop
068e: 00        nop
068f: 00        nop
0690: 00        nop
0691: 00        nop
0692: 00        nop
0693: 00        nop
0694: 00        nop
0695: 00        nop
0696: 00        nop
0697: 00        nop
0698: 00        nop
0699: 00        nop
069a: 00        nop
069b: 00        nop
069c: 00        nop
069d: 00        nop
069e: 00        nop
069f: 00        nop
06a0: 00        nop
06a1: 00        nop
06a2: 00        nop
06a3: 00        nop
06a4: 00        nop
06a5: 00        nop
06a6: 00        nop
06a7: 00        nop
06a8: 00        nop
06a9: 00        nop
06aa: 00        nop
06ab: 00        nop
06ac: 00        nop
06ad: 00        nop
06ae: 00        nop
06af: 00        nop
06b0: 00        nop
06b1: 00        nop
06b2: 00        nop
06b3: 00        nop
06b4: 00        nop
06b5: 00        nop
06b6: 00        nop
06b7: 00        nop
06b8: 00        nop
06b9: 00        nop
06ba: 00        nop
06bb: 00        nop
06bc: 00        nop
06bd: 00        nop
06be: 00        nop
06bf: 00        nop
06c0: 00        nop
06c1: 00        nop
06c2: 00        nop
06c3: 00        nop
06c4: 00        nop
06c5: 00        nop
06c6: 00        nop
06c7: 00        nop
06c8: 00        nop
06c9: 00        nop
06ca: 00        nop
06cb: 00        nop
06cc: 00        nop
06cd: 00        nop
06ce: 00        nop
06cf: 00        nop
06d0: 00        nop
06d1: 00        nop
06d2: 00        nop
06d3: 00        nop
06d4: 00        nop
06d5: 00        nop
06d6: 00        nop
06d7: 00        nop
06d8: 00        nop
06d9: 00        nop
06da: 00        nop
06db: 00        nop
06dc: 00        nop
06dd: 00        nop
06de: 00        nop
06df: 00        nop
06e0: 00        nop
06e1: 00        nop
06e2: 00        nop
06e3: 00        nop
06e4: 00        nop
06e5: 00        nop
06e6: 00        nop
06e7: 00        nop
06e8: 00        nop
06e9: 00        nop
06ea: 00        nop
06eb: 00        nop
06ec: 00        nop
06ed: 00        nop
06ee: 00        nop
06ef: 00        nop
06f0: 00        nop
06f1: 00        nop
06f2: 00        nop
06f3: 00        nop
06f4: 00        nop
06f5: 00        nop
06f6: 00        nop
06f7: 00        nop
06f8: 00        nop
06f9: 00        nop
06fa: 00        nop
06fb: 00        nop
06fc: 00        nop
06fd: 00        nop
06fe: 00        nop
06ff: 00        nop
0700: 00        nop
0701: 00        nop
0702: 00        nop
0703: 00        nop
0704: 00        nop
0705: 00        nop
0706: 00        nop
0707: 00        nop
0708: 00        nop
0709: 00        nop
070a: 00        nop
070b: 00        nop
070c: 00        nop
070d: 00        nop
070e: 00        nop
070f: 00        nop
0710: 00        nop
0711: 00        nop
0712: 00        nop
0713: 00        nop
0714: 00        nop
0715: 00        nop
0716: 00        nop
0717: 00        nop
0718: 00        nop
0719: 00        nop
071a: 00        nop
071b: 00        nop
071c: 00        nop
071d: 00        nop
071e: 00        nop
071f: 00        nop
0720: 00        nop
0721: 00        nop
0722: 00        nop
0723: 00        nop
0724: 00        nop
0725: 00        nop
0726: 00        nop
0727: 00        nop
0728: 00        nop
0729: 00        nop
072a: 00        nop
072b: 00        nop
072c: 00        nop
072d: 00        nop
072e: 00        nop
072f: 00        nop
0730: 00        nop
0731: 00        nop
0732: 00        nop
0733: 00        nop
0734: 00        nop
0735: 00        nop
0736: 00        nop
0737: 00        nop
0738: 00        nop
0739: 00        nop
073a: 00        nop
073b: 00        nop
073c: 00        nop
073d: 00        nop
073e: 00        nop
073f: 00        nop
0740: 00        nop
0741: 00        nop
0742: 00        nop
0743: 00        nop
0744: 00        nop
0745: 00        nop
0746: 00        nop
0747: 00        nop
0748: 00        nop
0749: 00        nop
074a: 00        nop
074b: 00        nop
074c: 00        nop
074d: 00        nop
074e: 00        nop
074f: 00        nop
0750: 00        nop
0751: 00        nop
0752: 00        nop
0753: 00        nop
0754: 00        nop
0755: 00        nop
0756: 00        nop
0757: 00        nop
0758: 00        nop
0759: 00        nop
075a: 00        nop
075b: 00        nop
075c: 00        nop
075d: 00        nop
075e: 00        nop
075f: 00        nop
0760: 00        nop
0761: 00        nop
0762: 00        nop
0763: 00        nop
0764: 00        nop
0765: 00        nop
0766: 00        nop
0767: 00        nop
0768: 00        nop
0769: 00        nop
076a: 00        nop
076b: 00        nop
076c: 00        nop
076d: 00        nop
076e: 00        nop
076f: 00        nop
0770: 00        nop
0771: 00        nop
0772: 00        nop
0773: 00        nop
0774: 00        nop
0775: 00        nop
0776: 00        nop
0777: 00        nop
0778: 00        nop
0779: 00        nop
077a: 00        nop
077b: 00        nop
077c: 00        nop
077d: 00        nop
077e: 00        nop
077f: 00        nop
0780: 00        nop
0781: 00        nop
0782: 00        nop
0783: 00        nop
0784: 00        nop
0785: 00        nop
0786: 00        nop
0787: 00        nop
0788: 00        nop
0789: 00        nop
078a: 00        nop
078b: 00        nop
078c: 00        nop
078d: 00        nop
078e: 00        nop
078f: 00        nop
0790: 00        nop
0791: 00        nop
0792: 00        nop
0793: 00        nop
0794: 00        nop
0795: 00        nop
0796: 00        nop
0797: 00        nop
0798: 00        nop
0799: 00        nop
079a: 00        nop
079b: 00        nop
079c: 00        nop
079d: 00        nop
079e: 00        nop
079f: 00        nop
07a0: 00        nop
07a1: 00        nop
07a2: 00        nop
07a3: 00        nop
07a4: 00        nop
07a5: 00        nop
07a6: 00        nop
07a7: 00        nop
07a8: 00        nop
07a9: 00        nop
07aa: 00        nop
07ab: 00        nop
07ac: 00        nop
07ad: 00        nop
07ae: 00        nop
07af: 00        nop
07b0: 00        nop
07b1: 00        nop
07b2: 00        nop
07b3: 00        nop
07b4: 00        nop
07b5: 00        nop
07b6: 00        nop
07b7: 00        nop
07b8: 00        nop
07b9: 00        nop
07ba: 00        nop
07bb: 00        nop
07bc: 00        nop
07bd: 00        nop
07be: 00        nop
07bf: 00        nop
07c0: 00        nop
07c1: 00        nop
07c2: 00        nop
07c3: 00        nop
07c4: 00        nop
07c5: 00        nop
07c6: 00        nop
07c7: 00        nop
07c8: 00        nop
07c9: 00        nop
07ca: 00        nop
07cb: 00        nop
07cc: 00        nop
07cd: 00        nop
07ce: 00        nop
07cf: 00        nop
07d0: 00        nop
07d1: 00        nop
07d2: 00        nop
07d3: 00        nop
07d4: 00        nop
07d5: 00        nop
07d6: 00        nop
07d7: 00        nop
07d8: 00        nop
07d9: 00        nop
07da: 00        nop
07db: 00        nop
07dc: 00        nop
07dd: 00        nop
07de: 00        nop
07df: 00        nop
07e0: 00        nop
07e1: 00        nop
07e2: 00        nop
07e3: 00        nop
07e4: 00        nop
07e5: 00        nop
07e6: 00        nop
07e7: 00        nop
07e8: 00        nop
07e9: 00        nop
07ea: 00        nop
07eb: 00        nop
07ec: 00        nop
07ed: 00        nop
07ee: 00        nop
07ef: 00        nop
07f0: 00        nop
07f1: 00        nop
07f2: 00        nop
07f3: 00        nop
07f4: 00        nop
07f5: 00        nop
07f6: 00        nop
07f7: 00        nop
07f8: 00        nop
07f9: 00        nop
07fa: 00        nop
07fb: 00        nop
07fc: 00        nop
07fd: 00        nop
07fe: 00        nop
07ff: 00        nop
0800: 00        nop
0801: 00        nop
0802: 00        nop
0803: 00        nop
0804: 00        nop
0805: 00        nop
0806: 00        nop
0807: 00        nop
0808: 00        nop
0809: 00        nop
080a: 00        nop
080b: 00        nop
080c: 00        nop
080d: 00        nop
080e: 00        nop
080f: 00        nop
0810: 00        nop
0811: 00        nop
0812: 00        nop
0813: 00        nop
0814: 00        nop
0815: 00        nop
0816: 00        nop
0817: 00        nop
0818: 00        nop
0819: 00        nop
081a: 00        nop
081b: 00        nop
081c: 00        nop
081d: 00        nop
081e: 00        nop
081f: 00        nop
0820: 00        nop
0821: 00        nop
0822: 00        nop
0823: 00        nop
0824: 00        nop
0825: 00        nop
0826: 00        nop
0827: 00        nop
0828: 00        nop
0829: 00        nop
082a: 00        nop
082b: 00        nop
082c: 00        nop
082d: 00        nop
082e: 00        nop
082f: 00        nop
0830: 00        nop
0831: 00        nop
0832: 00        nop
0833: 00        nop
0834: 00        nop
0835: 00        nop
0836: 00        nop
0837: 00        nop
0838: 00        nop
0839: 00        nop
083a: 00        nop
083b: 00        nop
083c: 00        nop
083d: 00        nop
083e: 00        nop
083f: 00        nop
0840: 00        nop
0841: 00        nop
0842: 00        nop
0843: 00        nop
0844: 00        nop
0845: 00        nop
0846: 00        nop
0847: 00        nop
0848: 00        nop
0849: 00        nop
084a: 00        nop
084b: 00        nop
084c: 00        nop
084d: 00        nop
084e: 00        nop
084f: 00        nop
0850: 00        nop
0851: 00        nop
0852: 00        nop
0853: 00        nop
0854: 00        nop
0855: 00        nop
0856: 00        nop
0857: 00        nop
0858: 00        nop
0859: 00        nop
085a: 00        nop
085b: 00        nop
085c: 00        nop
085d: 00        nop
085e: 00        nop
085f: 00        nop
0860: 00        nop
0861: 00        nop
0862: 00        nop
0863: 00        nop
0864: 00        nop
0865: 00        nop
0866: 00        nop
0867: 00        nop
0868: 00        nop
0869: 00        nop
086a: 00        nop
086b: 00        nop
086c: 00        nop
086d: 00        nop
086e: 00        nop
086f: 00        nop
0870: 00        nop
0871: 00        nop
0872: 00        nop
0873: 00        nop
0874: 00        nop
0875: 00        nop
0876: 00        nop
0877: 00        nop
0878: 00        nop
0879: 00        nop
087a: 00        nop
087b: 00        nop
087c: 00        nop
087d: 00        nop
087e: 00        nop
087f: 00        nop
0880: 00        nop
0881: 00        nop
0882: 00        nop
0883: 00        nop
0884: 00        nop
0885: 00        nop
0886: 00        nop
0887: 00        nop
0888: 00        nop
0889: 00        nop
088a: 00        nop
088b: 00        nop
088c: 00        nop
088d: 00        nop
088e: 00        nop
088f: 00        nop
0890: 00        nop
0891: 00        nop
0892: 00        nop
0893: 00        nop
0894: 00        nop
0895: 00        nop
0896: 00        nop
0897: 00        nop
0898: 00        nop
0899: 00        nop
089a: 00        nop
089b: 00        nop
089c: 00        nop
089d: 00        nop
089e: 00        nop
089f: 00        nop
08a0: 00        nop
08a1: 00        nop
08a2: 00        nop
08a3: 00        nop
08a4: 00        nop
08a5: 00        nop
08a6: 00        nop
08a7: 00        nop
08a8: 00        nop
08a9: 00        nop
08aa: 00        nop
08ab: 00        nop
08ac: 00        nop
08ad: 00        nop
08ae: 00        nop
08af: 00        nop
08b0: 00        nop
08b1: 00        nop
08b2: 00        nop
08b3: 00        nop
08b4: 00        nop
08b5: 00        nop
08b6: 00        nop
08b7: 00        nop
08b8: 00        nop
08b9: 00        nop
08ba: 00        nop
08bb: 00        nop
08bc: 00        nop
08bd: 00        nop
08be: 00        nop
08bf: 00        nop
08c0: 00        nop
08c1: 00        nop
08c2: 00        nop
08c3: 00        nop
08c4: 00        nop
08c5: 00        nop
08c6: 00        nop
08c7: 00        nop
08c8: 00        nop
08c9: 00        nop
08ca: 00        nop
08cb: 00        nop
08cc: 00        nop
08cd: 00        nop
08ce: 00        nop
08cf: 00        nop
08d0: 00        nop
08d1: 00        nop
08d2: 00        nop
08d3: 00        nop
08d4: 00        nop
08d5: 00        nop
08d6: 00        nop
08d7: 00        nop
08d8: 00        nop
08d9: 00        nop
08da: 00        nop
08db: 00        nop
08dc: 00        nop
08dd: 00        nop
08de: 00        nop
08df: 00        nop
08e0: 00        nop
08e1: 00        nop
08e2: 00        nop
08e3: 00        nop
08e4: 00        nop
08e5: 00        nop
08e6: 00        nop
08e7: 00        nop
08e8: 00        nop
08e9: 00        nop
08ea: 00        nop
08eb: 00        nop
08ec: 00        nop
08ed: 00        nop
08ee: 00        nop
08ef: 00        nop
08f0: 00        nop
08f1: 00        nop
08f2: 00        nop
08f3: 00        nop
08f4: 00        nop
08f5: 00        nop
08f6: 00        nop
08f7: 00        nop
08f8: 00        nop
08f9: 00        nop
08fa: 00        nop
08fb: 00        nop
08fc: 00        nop
08fd: 00        nop
08fe: 00        nop
08ff: 00        nop
0900: 00        nop
0901: 00        nop
0902: 00        nop
0903: 00        nop
0904: 00        nop
0905: 00        nop
0906: 00        nop
0907: 00        nop
0908: 00        nop
0909: 00        nop
090a: 00        nop
090b: 00        nop
090c: 00        nop
090d: 00        nop
090e: 00        nop
090f: 00        nop
0910: 00        nop
0911: 00        nop
0912: 00        nop
0913: 00        nop
0914: 00        nop
0915: 00        nop
0916: 00        nop
0917: 00        nop
0918: 00        nop
0919: 00        nop
091a: 00        nop
091b: 00        nop
091c: 00        nop
091d: 00        nop
091e: 00        nop
091f: 00        nop
0920: 00        nop
0921: 00        nop
0922: 00        nop
0923: 00        nop
0924: 00        nop
0925: 00        nop
0926: 00        nop
0927: 00        nop
0928: 00        nop
0929: 00        nop
092a: 00        nop
092b: 00        nop
092c: 00        nop
092d: 00        nop
092e: 00        nop
092f: 00        nop
0930: 00        nop
0931: 00        nop
0932: 00        nop
0933: 00        nop
0934: 00        nop
0935: 00        nop
0936: 00        nop
0937: 00        nop
0938: 00        nop
0939: 00        nop
093a: 00        nop
093b: 00        nop
093c: 00        nop
093d: 00        nop
093e: 00        nop
093f: 00        nop
0940: 00        nop
0941: 00        nop
0942: 00        nop
0943: 00        nop
0944: 00        nop
0945: 00        nop
0946: 00        nop
0947: 00        nop
0948: 00        nop
0949: 00        nop
094a: 00        nop
094b: 00        nop
094c: 00        nop
094d: 00        nop
094e: 00        nop
094f: 00        nop
0950: 00        nop
0951: 00        nop
0952: 00        nop
0953: 00        nop
0954: 00        nop
0955: 00        nop
0956: 00        nop
0957: 00        nop
0958: 00        nop
0959: 00        nop
095a: 00        nop
095b: 00        nop
095c: 00        nop
095d: 00        nop
095e: 00        nop
095f: 00        nop
0960: 00        nop
0961: 00        nop
0962: 00        nop
0963: 00        nop
0964: 00        nop
0965: 00        nop
0966: 00        nop
0967: 00        nop
0968: 00        nop
0969: 00        nop
096a: 00        nop
096b: 00        nop
096c: 00        nop
096d: 00        nop
096e: 00        nop
096f: 00        nop
0970: 00        nop
0971: 00        nop
0972: 00        nop
0973: 00        nop
0974: 00        nop
0975: 00        nop
0976: 00        nop
0977: 00        nop
0978: 00        nop
0979: 00        nop
097a: 00        nop
097b: 00        nop
097c: 00        nop
097d: 00        nop
097e: 00        nop
097f: 00        nop
0980: 00        nop
0981: 00        nop
0982: 00        nop
0983: 00        nop
0984: 00        nop
0985: 00        nop
0986: 00        nop
0987: 00        nop
0988: 00        nop
0989: 00        nop
098a: 00        nop
098b: 00        nop
098c: 00        nop
098d: 00        nop
098e: 00        nop
098f: 00        nop
0990: 00        nop
0991: 00        nop
0992: 00        nop
0993: 00        nop
0994: 00        nop
0995: 00        nop
0996: 00        nop
0997: 00        nop
0998: 00        nop
0999: 00        nop
099a: 00        nop
099b: 00        nop
099c: 00        nop
099d: 00        nop
099e: 00        nop
099f: 00        nop
09a0: 00        nop
09a1: 00        nop
09a2: 00        nop
09a3: 00        nop
09a4: 00        nop
09a5: 00        nop
09a6: 00        nop
09a7: 00        nop
09a8: 00        nop
09a9: 00        nop
09aa: 00        nop
09ab: 00        nop
09ac: 00        nop
09ad: 00        nop
09ae: 00        nop
09af: 00        nop
09b0: 00        nop
09b1: 00        nop
09b2: 00        nop
09b3: 00        nop
09b4: 00        nop
09b5: 00        nop
09b6: 00        nop
09b7: 00        nop
09b8: 00        nop
09b9: 00        nop
09ba: 00        nop
09bb: 00        nop
09bc: 00        nop
09bd: 00        nop
09be: 00        nop
09bf: 00        nop
09c0: 00        nop
09c1: 00        nop
09c2: 00        nop
09c3: 00        nop
09c4: 00        nop
09c5: 00        nop
09c6: 00        nop
09c7: 00        nop
09c8: 00        nop
09c9: 00        nop
09ca: 00        nop
09cb: 00        nop
09cc: 00        nop
09cd: 00        nop
09ce: 00        nop
09cf: 00        nop
09d0: 00        nop
09d1: 00        nop
09d2: 00        nop
09d3: 00        nop
09d4: 00        nop
09d5: 00        nop
09d6: 00        nop
09d7: 00        nop
09d8: 00        nop
09d9: 00        nop
09da: 00        nop
09db: 00        nop
09dc: 00        nop
09dd: 00        nop
09de: 00        nop
09df: 00        nop
09e0: 00        nop
09e1: 00        nop
09e2: 00        nop
09e3: 00        nop
09e4: 00        nop
09e5: 00        nop
09e6: 00        nop
09e7: 00        nop
09e8: 00        nop
09e9: 00        nop
09ea: 00        nop
09eb: 00        nop
09ec: 00        nop
09ed: 00        nop
09ee: 00        nop
09ef: 00        nop
09f0: 00        nop
09f1: 00        nop
09f2: 00        nop
09f3: 00        nop
09f4: 00        nop
09f5: 00        nop
09f6: 00        nop
09f7: 00        nop
09f8: 00        nop
09f9: 00        nop
09fa: 00        nop
09fb: 00        nop
09fc: 00        nop
09fd: 00        nop
09fe: 00        nop
09ff: 00        nop
0a00: 00        nop
0a01: 00        nop
0a02: 00        nop
0a03: 00        nop
0a04: 00        nop
0a05: 00        nop
0a06: 00        nop
0a07: 00        nop
0a08: 00        nop
0a09: 00        nop
0a0a: 00        nop
0a0b: 00        nop
0a0c: 00        nop
0a0d: 00        nop
0a0e: 00        nop
0a0f: 00        nop
0a10: 00        nop
0a11: 00        nop
0a12: 00        nop
0a13: 00        nop
0a14: 00        nop
0a15: 00        nop
0a16: 00        nop
0a17: 00        nop
0a18: 00        nop
0a19: 00        nop
0a1a: 00        nop
0a1b: 00        nop
0a1c: 00        nop
0a1d: 00        nop
0a1e: 00        nop
0a1f: 00        nop
0a20: 00        nop
0a21: 00        nop
0a22: 00        nop
0a23: 00        nop
0a24: 00        nop
0a25: 00        nop
0a26: 00        nop
0a27: 00        nop
0a28: 00        nop
0a29: 00        nop
0a2a: 00        nop
0a2b: 00        nop
0a2c: 00        nop
0a2d: 00        nop
0a2e: 00        nop
0a2f: 00        nop
0a30: 00        nop
0a31: 00        nop
0a32: 00        nop
0a33: 00        nop
0a34: 00        nop
0a35: 00        nop
0a36: 00        nop
0a37: 00        nop
0a38: 00        nop
0a39: 00        nop
0a3a: 00        nop
0a3b: 00        nop
0a3c: 00        nop
0a3d: 00        nop
0a3e: 00        nop
0a3f: 00        nop
0a40: 00        nop
0a41: 00        nop
0a42: 00        nop
0a43: 00        nop
0a44: 00        nop
0a45: 00        nop
0a46: 00        nop
0a47: 00        nop
0a48: 00        nop
0a49: 00        nop
0a4a: 00        nop
0a4b: 00        nop
0a4c: 00        nop
0a4d: 00        nop
0a4e: 00        nop
0a4f: 00        nop
0a50: 00        nop
0a51: 00        nop
0a52: 00        nop
0a53: 00        nop
0a54: 00        nop
0a55: 00        nop
0a56: 00        nop
0a57: 00        nop
0a58: 00        nop
0a59: 00        nop
0a5a: 00        nop
0a5b: 00        nop
0a5c: 00        nop
0a5d: 00        nop
0a5e: 00        nop
0a5f: 00        nop
0a60: 00        nop
0a61: 00        nop
0a62: 00        nop
0a63: 00        nop
0a64: 00        nop
0a65: 00        nop
0a66: 00        nop
0a67: 00        nop
0a68: 00        nop
0a69: 00        nop
0a6a: 00        nop
0a6b: 00        nop
0a6c: 00        nop
0a6d: 00        nop
0a6e: 00        nop
0a6f: 00        nop
0a70: 00        nop
0a71: 00        nop
0a72: 00        nop
0a73: 00        nop
0a74: 00        nop
0a75: 00        nop
0a76: 00        nop
0a77: 00        nop
0a78: 00        nop
0a79: 00        nop
0a7a: 00        nop
0a7b: 00        nop
0a7c: 00        nop
0a7d: 00        nop
0a7e: 00        nop
0a7f: 00        nop
0a80: 00        nop
0a81: 00        nop
0a82: 00        nop
0a83: 00        nop
0a84: 00        nop
0a85: 00        nop
0a86: 00        nop
0a87: 00        nop
0a88: 00        nop
0a89: 00        nop
0a8a: 00        nop
0a8b: 00        nop
0a8c: 00        nop
0a8d: 00        nop
0a8e: 00        nop
0a8f: 00        nop
0a90: 00        nop
0a91: 00        nop
0a92: 00        nop
0a93: 00        nop
0a94: 00        nop
0a95: 00        nop
0a96: 00        nop
0a97: 00        nop
0a98: 00        nop
0a99: 00        nop
0a9a: 00        nop
0a9b: 00        nop
0a9c: 00        nop
0a9d: 00        nop
0a9e: 00        nop
0a9f: 00        nop
0aa0: 00        nop
0aa1: 00        nop
0aa2: 00        nop
0aa3: 00        nop
0aa4: 00        nop
0aa5: 00        nop
0aa6: 00        nop
0aa7: 00        nop
0aa8: 00        nop
0aa9: 00        nop
0aaa: 00        nop
0aab: 00        nop
0aac: 00        nop
0aad: 00        nop
0aae: 00        nop
0aaf: 00        nop
0ab0: 00        nop
0ab1: 00        nop
0ab2: 00        nop
0ab3: 00        nop
0ab4: 00        nop
0ab5: 00        nop
0ab6: 00        nop
0ab7: 00        nop
0ab8: 00        nop
0ab9: 00        nop
0aba: 00        nop
0abb: 00        nop
0abc: 00        nop
0abd: 00        nop
0abe: 00        nop
0abf: 00        nop
0ac0: 00        nop
0ac1: 00        nop
0ac2: 00        nop
0ac3: 00        nop
0ac4: 00        nop
0ac5: 00        nop
0ac6: 00        nop
0ac7: 00        nop
0ac8: 00        nop
0ac9: 00        nop
0aca: 00        nop
0acb: 00        nop
0acc: 00        nop
0acd: 00        nop
0ace: 00        nop
0acf: 00        nop
0ad0: 00        nop
0ad1: 00        nop
0ad2: 00        nop
0ad3: 00        nop
0ad4: 00        nop
0ad5: 00        nop
0ad6: 00        nop
0ad7: 00        nop
0ad8: 00        nop
0ad9: 00        nop
0ada: 00        nop
0adb: 00        nop
0adc: 00        nop
0add: 00        nop
0ade: 00        nop
0adf: 00        nop
0ae0: 00        nop
0ae1: 00        nop
0ae2: 00        nop
0ae3: 00        nop
0ae4: 00        nop
0ae5: 00        nop
0ae6: 00        nop
0ae7: 00        nop
0ae8: 00        nop
0ae9: 00        nop
0aea: 00        nop
0aeb: 00        nop
0aec: 00        nop
0aed: 00        nop
0aee: 00        nop
0aef: 00        nop
0af0: 00        nop
0af1: 00        nop
0af2: 00        nop
0af3: 00        nop
0af4: 00        nop
0af5: 00        nop
0af6: 00        nop
0af7: 00        nop
0af8: 00        nop
0af9: 00        nop
0afa: 00        nop
0afb: 00        nop
0afc: 00        nop
0afd: 00        nop
0afe: 00        nop
0aff: 00        nop
0b00: 00        nop
0b01: 00        nop
0b02: 00        nop
0b03: 00        nop
0b04: 00        nop
0b05: 00        nop
0b06: 00        nop
0b07: 00        nop
0b08: 00        nop
0b09: 00        nop
0b0a: 00        nop
0b0b: 00        nop
0b0c: 00        nop
0b0d: 00        nop
0b0e: 00        nop
0b0f: 00        nop
0b10: 00        nop
0b11: 00        nop
0b12: 00        nop
0b13: 00        nop
0b14: 00        nop
0b15: 00        nop
0b16: 00        nop
0b17: 00        nop
0b18: 00        nop
0b19: 00        nop
0b1a: 00        nop
0b1b: 00        nop
0b1c: 00        nop
0b1d: 00        nop
0b1e: 00        nop
0b1f: 00        nop
0b20: 00        nop
0b21: 00        nop
0b22: 00        nop
0b23: 00        nop
0b24: 00        nop
0b25: 00        nop
0b26: 00        nop
0b27: 00        nop
0b28: 00        nop
0b29: 00        nop
0b2a: 00        nop
0b2b: 00        nop
0b2c: 00        nop
0b2d: 00        nop
0b2e: 00        nop
0b2f: 00        nop
0b30: 00        nop
0b31: 00        nop
0b32: 00        nop
0b33: 00        nop
0b34: 00        nop
0b35: 00        nop
0b36: 00        nop
0b37: 00        nop
0b38: 00        nop
0b39: 00        nop
0b3a: 00        nop
0b3b: 00        nop
0b3c: 00        nop
0b3d: 00        nop
0b3e: 00        nop
0b3f: 00        nop
0b40: 00        nop
0b41: 00        nop
0b42: 00        nop
0b43: 00        nop
0b44: 00        nop
0b45: 00        nop
0b46: 00        nop
0b47: 00        nop
0b48: 00        nop
0b49: 00        nop
0b4a: 00        nop
0b4b: 00        nop
0b4c: 00        nop
0b4d: 00        nop
0b4e: 00        nop
0b4f: 00        nop
0b50: 00        nop
0b51: 00        nop
0b52: 00        nop
0b53: 00        nop
0b54: 00        nop
0b55: 00        nop
0b56: 00        nop
0b57: 00        nop
0b58: 00        nop
0b59: 00        nop
0b5a: 00        nop
0b5b: 00        nop
0b5c: 00        nop
0b5d: 00        nop
0b5e: 00        nop
0b5f: 00        nop
0b60: 00        nop
0b61: 00        nop
0b62: 00        nop
0b63: 00        nop
0b64: 00        nop
0b65: 00        nop
0b66: 00        nop
0b67: 00        nop
0b68: 00        nop
0b69: 00        nop
0b6a: 00        nop
0b6b: 00        nop
0b6c: 00        nop
0b6d: 00        nop
0b6e: 00        nop
0b6f: 00        nop
0b70: 00        nop
0b71: 00        nop
0b72: 00        nop
0b73: 00        nop
0b74: 00        nop
0b75: 00        nop
0b76: 00        nop
0b77: 00        nop
0b78: 00        nop
0b79: 00        nop
0b7a: 00        nop
0b7b: 00        nop
0b7c: 00        nop
0b7d: 00        nop
0b7e: 00        nop
0b7f: 00        nop
0b80: 00        nop
0b81: 00        nop
0b82: 00        nop
0b83: 00        nop
0b84: 00        nop
0b85: 00        nop
0b86: 00        nop
0b87: 00        nop
0b88: 00        nop
0b89: 00        nop
0b8a: 00        nop
0b8b: 00        nop
0b8c: 00        nop
0b8d: 00        nop
0b8e: 00        nop
0b8f: 00        nop
0b90: 00        nop
0b91: 00        nop
0b92: 00        nop
0b93: 00        nop
0b94: 00        nop
0b95: 00        nop
0b96: 00        nop
0b97: 00        nop
0b98: 00        nop
0b99: 00        nop
0b9a: 00        nop
0b9b: 00        nop
0b9c: 00        nop
0b9d: 00        nop
0b9e: 00        nop
0b9f: 00        nop
0ba0: 00        nop
0ba1: 00        nop
0ba2: 00        nop
0ba3: 00        nop
0ba4: 00        nop
0ba5: 00        nop
0ba6: 00        nop
0ba7: 00        nop
0ba8: 00        nop
0ba9: 00        nop
0baa: 00        nop
0bab: 00        nop
0bac: 00        nop
0bad: 00        nop
0bae: 00        nop
0baf: 00        nop
0bb0: 00        nop
0bb1: 00        nop
0bb2: 00        nop
0bb3: 00        nop
0bb4: 00        nop
0bb5: 00        nop
0bb6: 00        nop
0bb7: 00        nop
0bb8: 00        nop
0bb9: 00        nop
0bba: 00        nop
0bbb: 00        nop
0bbc: 00        nop
0bbd: 00        nop
0bbe: 00        nop
0bbf: 00        nop
0bc0: 00        nop
0bc1: 00        nop
0bc2: 00        nop
0bc3: 00        nop
0bc4: 00        nop
0bc5: 00        nop
0bc6: 00        nop
0bc7: 00        nop
0bc8: 00        nop
0bc9: 00        nop
0bca: 00        nop
0bcb: 00        nop
0bcc: 00        nop
0bcd: 00        nop
0bce: 00        nop
0bcf: 00        nop
0bd0: 00        nop
0bd1: 00        nop
0bd2: 00        nop
0bd3: 00        nop
0bd4: 00        nop
0bd5: 00        nop
0bd6: 00        nop
0bd7: 00        nop
0bd8: 00        nop
0bd9: 00        nop
0bda: 00        nop
0bdb: 00        nop
0bdc: 00        nop
0bdd: 00        nop
0bde: 00        nop
0bdf: 00        nop
0be0: 00        nop
0be1: 00        nop
0be2: 00        nop
0be3: 00        nop
0be4: 00        nop
0be5: 00        nop
0be6: 00        nop
0be7: 00        nop
0be8: 00        nop
0be9: 00        nop
0bea: 00        nop
0beb: 00        nop
0bec: 00        nop
0bed: 00        nop
0bee: 00        nop
0bef: 00        nop
0bf0: 00        nop
0bf1: 00        nop
0bf2: 00        nop
0bf3: 00        nop
0bf4: 00        nop
0bf5: 00        nop
0bf6: 00        nop
0bf7: 00        nop
0bf8: 00        nop
0bf9: 00        nop
0bfa: 00        nop
0bfb: 00        nop
0bfc: 00        nop
0bfd: 00        nop
0bfe: 00        nop
0bff: 00        nop
0c00: 00        nop
0c01: 00        nop
0c02: 00        nop
0c03: 00        nop
0c04: 00        nop
0c05: 00        nop
0c06: 00        nop
0c07: 00        nop
0c08: 00        nop
0c09: 00        nop
0c0a: 00        nop
0c0b: 00        nop
0c0c: 00        nop
0c0d: 00        nop
0c0e: 00        nop
0c0f: 00        nop
0c10: 00        nop
0c11: 00        nop
0c12: 00        nop
0c13: 00        nop
0c14: 00        nop
0c15: 00        nop
0c16: 00        nop
0c17: 00        nop
0c18: 00        nop
0c19: 00        nop
0c1a: 00        nop
0c1b: 00        nop
0c1c: 00        nop
0c1d: 00        nop
0c1e: 00        nop
0c1f: 00        nop
0c20: 00        nop
0c21: 00        nop
0c22: 00        nop
0c23: 00        nop
0c24: 00        nop
0c25: 00        nop
0c26: 00        nop
0c27: 00        nop
0c28: 00        nop
0c29: 00        nop
0c2a: 00        nop
0c2b: 00        nop
0c2c: 00        nop
0c2d: 00        nop
0c2e: 00        nop
0c2f: 00        nop
0c30: 00        nop
0c31: 00        nop
0c32: 00        nop
0c33: 00        nop
0c34: 00        nop
0c35: 00        nop
0c36: 00        nop
0c37: 00        nop
0c38: 00        nop
0c39: 00        nop
0c3a: 00        nop
0c3b: 00        nop
0c3c: 00        nop
0c3d: 00        nop
0c3e: 00        nop
0c3f: 00        nop
0c40: 00        nop
0c41: 00        nop
0c42: 00        nop
0c43: 00        nop
0c44: 00        nop
0c45: 00        nop
0c46: 00        nop
0c47: 00        nop
0c48: 00        nop
0c49: 00        nop
0c4a: 00        nop
0c4b: 00        nop
0c4c: 00        nop
0c4d: 00        nop
0c4e: 00        nop
0c4f: 00        nop
0c50: 00        nop
0c51: 00        nop
0c52: 00        nop
0c53: 00        nop
0c54: 00        nop
0c55: 00        nop
0c56: 00        nop
0c57: 00        nop
0c58: 00        nop
0c59: 00        nop
0c5a: 00        nop
0c5b: 00        nop
0c5c: 00        nop
0c5d: 00        nop
0c5e: 00        nop
0c5f: 00        nop
0c60: 00        nop
0c61: 00        nop
0c62: 00        nop
0c63: 00        nop
0c64: 00        nop
0c65: 00        nop
0c66: 00        nop
0c67: 00        nop
0c68: 00        nop
0c69: 00        nop
0c6a: 00        nop
0c6b: 00        nop
0c6c: 00        nop
0c6d: 00        nop
0c6e: 00        nop
0c6f: 00        nop
0c70: 00        nop
0c71: 00        nop
0c72: 00        nop
0c73: 00        nop
0c74: 00        nop
0c75: 00        nop
0c76: 00        nop
0c77: 00        nop
0c78: 00        nop
0c79: 00        nop
0c7a: 00        nop
0c7b: 00        nop
0c7c: 00        nop
0c7d: 00        nop
0c7e: 00        nop
0c7f: 00        nop
0c80: 00        nop
0c81: 00        nop
0c82: 00        nop
0c83: 00        nop
0c84: 00        nop
0c85: 00        nop
0c86: 00        nop
0c87: 00        nop
0c88: 00        nop
0c89: 00        nop
0c8a: 00        nop
0c8b: 00        nop
0c8c: 00        nop
0c8d: 00        nop
0c8e: 00        nop
0c8f: 00        nop
0c90: 00        nop
0c91: 00        nop
0c92: 00        nop
0c93: 00        nop
0c94: 00        nop
0c95: 00        nop
0c96: 00        nop
0c97: 00        nop
0c98: 00        nop
0c99: 00        nop
0c9a: 00        nop
0c9b: 00        nop
0c9c: 00        nop
0c9d: 00        nop
0c9e: 00        nop
0c9f: 00        nop
0ca0: 00        nop
0ca1: 00        nop
0ca2: 00        nop
0ca3: 00        nop
0ca4: 00        nop
0ca5: 00        nop
0ca6: 00        nop
0ca7: 00        nop
0ca8: 00        nop
0ca9: 00        nop
0caa: 00        nop
0cab: 00        nop
0cac: 00        nop
0cad: 00        nop
0cae: 00        nop
0caf: 00        nop
0cb0: 00        nop
0cb1: 00        nop
0cb2: 00        nop
0cb3: 00        nop
0cb4: 00        nop
0cb5: 00        nop
0cb6: 00        nop
0cb7: 00        nop
0cb8: 00        nop
0cb9: 00        nop
0cba: 00        nop
0cbb: 00        nop
0cbc: 00        nop
0cbd: 00        nop
0cbe: 00        nop
0cbf: 00        nop
0cc0: 00        nop
0cc1: 00        nop
0cc2: 00        nop
0cc3: 00        nop
0cc4: 00        nop
0cc5: 00        nop
0cc6: 00        nop
0cc7: 00        nop
0cc8: 00        nop
0cc9: 00        nop
0cca: 00        nop
0ccb: 00        nop
0ccc: 00        nop
0ccd: 00        nop
0cce: 00        nop
0ccf: 00        nop
0cd0: 00        nop
0cd1: 00        nop
0cd2: 00        nop
0cd3: 00        nop
0cd4: 00        nop
0cd5: 00        nop
0cd6: 00        nop
0cd7: 00        nop
0cd8: 00        nop
0cd9: 00        nop
0cda: 00        nop
0cdb: 00        nop
0cdc: 00        nop
0cdd: 00        nop
0cde: 00        nop
0cdf: 00        nop
0ce0: 00        nop
0ce1: 00        nop
0ce2: 00        nop
0ce3: 00        nop
0ce4: 00        nop
0ce5: 00        nop
0ce6: 00        nop
0ce7: 00        nop
0ce8: 00        nop
0ce9: 00        nop
0cea: 00        nop
0ceb: 00        nop
0cec: 00        nop
0ced: 00        nop
0cee: 00        nop
0cef: 00        nop
0cf0: 00        nop
0cf1: 00        nop
0cf2: 00        nop
0cf3: 00        nop
0cf4: 00        nop
0cf5: 00        nop
0cf6: 00        nop
0cf7: 00        nop
0cf8: 00        nop
0cf9: 00        nop
0cfa: 00        nop
0cfb: 00        nop
0cfc: 00        nop
0cfd: 00        nop
0cfe: 00        nop
0cff: 00        nop
0d00: 00        nop
0d01: 00        nop
0d02: 00        nop
0d03: 00        nop
0d04: 00        nop
0d05: 00        nop
0d06: 00        nop
0d07: 00        nop
0d08: 00        nop
0d09: 00        nop
0d0a: 00        nop
0d0b: 00        nop
0d0c: 00        nop
0d0d: 00        nop
0d0e: 00        nop
0d0f: 00        nop
0d10: 00        nop
0d11: 00        nop
0d12: 00        nop
0d13: 00        nop
0d14: 00        nop
0d15: 00        nop
0d16: 00        nop
0d17: 00        nop
0d18: 00        nop
0d19: 00        nop
0d1a: 00        nop
0d1b: 00        nop
0d1c: 00        nop
0d1d: 00        nop
0d1e: 00        nop
0d1f: 00        nop
0d20: 00        nop
0d21: 00        nop
0d22: 00        nop
0d23: 00        nop
0d24: 00        nop
0d25: 00        nop
0d26: 00        nop
0d27: 00        nop
0d28: 00        nop
0d29: 00        nop
0d2a: 00        nop
0d2b: 00        nop
0d2c: 00        nop
0d2d: 00        nop
0d2e: 00        nop
0d2f: 00        nop
0d30: 00        nop
0d31: 00        nop
0d32: 00        nop
0d33: 00        nop
0d34: 00        nop
0d35: 00        nop
0d36: 00        nop
0d37: 00        nop
0d38: 00        nop
0d39: 00        nop
0d3a: 00        nop
0d3b: 00        nop
0d3c: 00        nop
0d3d: 00        nop
0d3e: 00        nop
0d3f: 00        nop
0d40: 00        nop
0d41: 00        nop
0d42: 00        nop
0d43: 00        nop
0d44: 00        nop
0d45: 00        nop
0d46: 00        nop
0d47: 00        nop
0d48: 00        nop
0d49: 00        nop
0d4a: 00        nop
0d4b: 00        nop
0d4c: 00        nop
0d4d: 00        nop
0d4e: 00        nop
0d4f: 00        nop
0d50: 00        nop
0d51: 00        nop
0d52: 00        nop
0d53: 00        nop
0d54: 00        nop
0d55: 00        nop
0d56: 00        nop
0d57: 00        nop
0d58: 00        nop
0d59: 00        nop
0d5a: 00        nop
0d5b: 00        nop
0d5c: 00        nop
0d5d: 00        nop
0d5e: 00        nop
0d5f: 00        nop
0d60: 00        nop
0d61: 00        nop
0d62: 00        nop
0d63: 00        nop
0d64: 00        nop
0d65: 00        nop
0d66: 00        nop
0d67: 00        nop
0d68: 00        nop
0d69: 00        nop
0d6a: 00        nop
0d6b: 00        nop
0d6c: 00        nop
0d6d: 00        nop
0d6e: 00        nop
0d6f: 00        nop
0d70: 00        nop
0d71: 00        nop
0d72: 00        nop
0d73: 00        nop
0d74: 00        nop
0d75: 00        nop
0d76: 00        nop
0d77: 00        nop
0d78: 00        nop
0d79: 00        nop
0d7a: 00        nop
0d7b: 00        nop
0d7c: 00        nop
0d7d: 00        nop
0d7e: 00        nop
0d7f: 00        nop
0d80: 00        nop
0d81: 00        nop
0d82: 00        nop
0d83: 00        nop
0d84: 00        nop
0d85: 00        nop
0d86: 00        nop
0d87: 00        nop
0d88: 00        nop
0d89: 00        nop
0d8a: 00        nop
0d8b: 00        nop
0d8c: 00        nop
0d8d: 00        nop
0d8e: 00        nop
0d8f: 00        nop
0d90: 00        nop
0d91: 00        nop
0d92: 00        nop
0d93: 00        nop
0d94: 00        nop
0d95: 00        nop
0d96: 00        nop
0d97: 00        nop
0d98: 00        nop
0d99: 00        nop
0d9a: 00        nop
0d9b: 00        nop
0d9c: 00        nop
0d9d: 00        nop
0d9e: 00        nop
0d9f: 00        nop
0da0: 00        nop
0da1: 00        nop
0da2: 00        nop
0da3: 00        nop
0da4: 00        nop
0da5: 00        nop
0da6: 00        nop
0da7: 00        nop
0da8: 00        nop
0da9: 00        nop
0daa: 00        nop
0dab: 00        nop
0dac: 00        nop
0dad: 00        nop
0dae: 00        nop
0daf: 00        nop
0db0: 00        nop
0db1: 00        nop
0db2: 00        nop
0db3: 00        nop
0db4: 00        nop
0db5: 00        nop
0db6: 00        nop
0db7: 00        nop
0db8: 00        nop
0db9: 00        nop
0dba: 00        nop
0dbb: 00        nop
0dbc: 00        nop
0dbd: 00        nop
0dbe: 00        nop
0dbf: 00        nop
0dc0: 00        nop
0dc1: 00        nop
0dc2: 00        nop
0dc3: 00        nop
0dc4: 00        nop
0dc5: 00        nop
0dc6: 00        nop
0dc7: 00        nop
0dc8: 00        nop
0dc9: 00        nop
0dca: 00        nop
0dcb: 00        nop
0dcc: 00        nop
0dcd: 00        nop
0dce: 00        nop
0dcf: 00        nop
0dd0: 00        nop
0dd1: 00        nop
0dd2: 00        nop
0dd3: 00        nop
0dd4: 00        nop
0dd5: 00        nop
0dd6: 00        nop
0dd7: 00        nop
0dd8: 00        nop
0dd9: 00        nop
0dda: 00        nop
0ddb: 00        nop
0ddc: 00        nop
0ddd: 00        nop
0dde: 00        nop
0ddf: 00        nop
0de0: 00        nop
0de1: 00        nop
0de2: 00        nop
0de3: 00        nop
0de4: 00        nop
0de5: 00        nop
0de6: 00        nop
0de7: 00        nop
0de8: 00        nop
0de9: 00        nop
0dea: 00        nop
0deb: 00        nop
0dec: 00        nop
0ded: 00        nop
0dee: 00        nop
0def: 00        nop
0df0: 00        nop
0df1: 00        nop
0df2: 00        nop
0df3: 00        nop
0df4: 00        nop
0df5: 00        nop
0df6: 00        nop
0df7: 00        nop
0df8: 00        nop
0df9: 00        nop
0dfa: 00        nop
0dfb: 00        nop
0dfc: 00        nop
0dfd: 00        nop
0dfe: 00        nop
0dff: 00        nop
0e00: 00        nop
0e01: 00        nop
0e02: 00        nop
0e03: 00        nop
0e04: 00        nop
0e05: 00        nop
0e06: 00        nop
0e07: 00        nop
0e08: 00        nop
0e09: 00        nop
0e0a: 00        nop
0e0b: 00        nop
0e0c: 00        nop
0e0d: 00        nop
0e0e: 00        nop
0e0f: 00        nop
0e10: 00        nop
0e11: 00        nop
0e12: 00        nop
0e13: 00        nop
0e14: 00        nop
0e15: 00        nop
0e16: 00        nop
0e17: 00        nop
0e18: 00        nop
0e19: 00        nop
0e1a: 00        nop
0e1b: 00        nop
0e1c: 00        nop
0e1d: 00        nop
0e1e: 00        nop
0e1f: 00        nop
0e20: 00        nop
0e21: 00        nop
0e22: 00        nop
0e23: 00        nop
0e24: 00        nop
0e25: 00        nop
0e26: 00        nop
0e27: 00        nop
0e28: 00        nop
0e29: 00        nop
0e2a: 00        nop
0e2b: 00        nop
0e2c: 00        nop
0e2d: 00        nop
0e2e: 00        nop
0e2f: 00        nop
0e30: 00        nop
0e31: 00        nop
0e32: 00        nop
0e33: 00        nop
0e34: 00        nop
0e35: 00        nop
0e36: 00        nop
0e37: 00        nop
0e38: 00        nop
0e39: 00        nop
0e3a: 00        nop
0e3b: 00        nop
0e3c: 00        nop
0e3d: 00        nop
0e3e: 00        nop
0e3f: 00        nop
0e40: 00        nop
0e41: 00        nop
0e42: 00        nop
0e43: 00        nop
0e44: 00        nop
0e45: 00        nop
0e46: 00        nop
0e47: 00        nop
0e48: 00        nop
0e49: 00        nop
0e4a: 00        nop
0e4b: 00        nop
0e4c: 00        nop
0e4d: 00        nop
0e4e: 00        nop
0e4f: 00        nop
0e50: 00        nop
0e51: 00        nop
0e52: 00        nop
0e53: 00        nop
0e54: 00        nop
0e55: 00        nop
0e56: 00        nop
0e57: 00        nop
0e58: 00        nop
0e59: 00        nop
0e5a: 00        nop
0e5b: 00        nop
0e5c: 00        nop
0e5d: 00        nop
0e5e: 00        nop
0e5f: 00        nop
0e60: 00        nop
0e61: 00        nop
0e62: 00        nop
0e63: 00        nop
0e64: 00        nop
0e65: 00        nop
0e66: 00        nop
0e67: 00        nop
0e68: 00        nop
0e69: 00        nop
0e6a: 00        nop
0e6b: 00        nop
0e6c: 00        nop
0e6d: 00        nop
0e6e: 00        nop
0e6f: 00        nop
0e70: 00        nop
0e71: 00        nop
0e72: 00        nop
0e73: 00        nop
0e74: 00        nop
0e75: 00        nop
0e76: 00        nop
0e77: 00        nop
0e78: 00        nop
0e79: 00        nop
0e7a: 00        nop
0e7b: 00        nop
0e7c: 00        nop
0e7d: 00        nop
0e7e: 00        nop
0e7f: 00        nop
0e80: 00        nop
0e81: 00        nop
0e82: 00        nop
0e83: 00        nop
0e84: 00        nop
0e85: 00        nop
0e86: 00        nop
0e87: 00        nop
0e88: 00        nop
0e89: 00        nop
0e8a: 00        nop
0e8b: 00        nop
0e8c: 00        nop
0e8d: 00        nop
0e8e: 00        nop
0e8f: 00        nop
0e90: 00        nop
0e91: 00        nop
0e92: 00        nop
0e93: 00        nop
0e94: 00        nop
0e95: 00        nop
0e96: 00        nop
0e97: 00        nop
0e98: 00        nop
0e99: 00        nop
0e9a: 00        nop
0e9b: 00        nop
0e9c: 00        nop
0e9d: 00        nop
0e9e: 00        nop
0e9f: 00        nop
0ea0: 00        nop
0ea1: 00        nop
0ea2: 00        nop
0ea3: 00        nop
0ea4: 00        nop
0ea5: 00        nop
0ea6: 00        nop
0ea7: 00        nop
0ea8: 00        nop
0ea9: 00        nop
0eaa: 00        nop
0eab: 00        nop
0eac: 00        nop
0ead: 00        nop
0eae: 00        nop
0eaf: 00        nop
0eb0: 00        nop
0eb1: 00        nop
0eb2: 00        nop
0eb3: 00        nop
0eb4: 00        nop
0eb5: 00        nop
0eb6: 00        nop
0eb7: 00        nop
0eb8: 00        nop
0eb9: 00        nop
0eba: 00        nop
0ebb: 00        nop
0ebc: 00        nop
0ebd: 00        nop
0ebe: 00        nop
0ebf: 00        nop
0ec0: 00        nop
0ec1: 00        nop
0ec2: 00        nop
0ec3: 00        nop
0ec4: 00        nop
0ec5: 00        nop
0ec6: 00        nop
0ec7: 00        nop
0ec8: 00        nop
0ec9: 00        nop
0eca: 00        nop
0ecb: 00        nop
0ecc: 00        nop
0ecd: 00        nop
0ece: 00        nop
0ecf: 00        nop
0ed0: 00        nop
0ed1: 00        nop
0ed2: 00        nop
0ed3: 00        nop
0ed4: 00        nop
0ed5: 00        nop
0ed6: 00        nop
0ed7: 00        nop
0ed8: 00        nop
0ed9: 00        nop
0eda: 00        nop
0edb: 00        nop
0edc: 00        nop
0edd: 00        nop
0ede: 00        nop
0edf: 00        nop
0ee0: 00        nop
0ee1: 00        nop
0ee2: 00        nop
0ee3: 00        nop
0ee4: 00        nop
0ee5: 00        nop
0ee6: 00        nop
0ee7: 00        nop
0ee8: 00        nop
0ee9: 00        nop
0eea: 00        nop
0eeb: 00        nop
0eec: 00        nop
0eed: 00        nop
0eee: 00        nop
0eef: 00        nop
0ef0: 00        nop
0ef1: 00        nop
0ef2: 00        nop
0ef3: 00        nop
0ef4: 00        nop
0ef5: 00        nop
0ef6: 00        nop
0ef7: 00        nop
0ef8: 00        nop
0ef9: 00        nop
0efa: 00        nop
0efb: 00        nop
0efc: 00        nop
0efd: 00        nop
0efe: 00        nop
0eff: 00        nop
0f00: 00        nop
0f01: 00        nop
0f02: 00        nop
0f03: 00        nop
0f04: 00        nop
0f05: 00        nop
0f06: 00        nop
0f07: 00        nop
0f08: 00        nop
0f09: 00        nop
0f0a: 00        nop
0f0b: 00        nop
0f0c: 00        nop
0f0d: 00        nop
0f0e: 00        nop
0f0f: 00        nop
0f10: 00        nop
0f11: 00        nop
0f12: 00        nop
0f13: 00        nop
0f14: 00        nop
0f15: 00        nop
0f16: 00        nop
0f17: 00        nop
0f18: 00        nop
0f19: 00        nop
0f1a: 00        nop
0f1b: 00        nop
0f1c: 00        nop
0f1d: 00        nop
0f1e: 00        nop
0f1f: 00        nop
0f20: 00        nop
0f21: 00        nop
0f22: 00        nop
0f23: 00        nop
0f24: 00        nop
0f25: 00        nop
0f26: 00        nop
0f27: 00        nop
0f28: 00        nop
0f29: 00        nop
0f2a: 00        nop
0f2b: 00        nop
0f2c: 00        nop
0f2d: 00        nop
0f2e: 00        nop
0f2f: 00        nop
0f30: 00        nop
0f31: 00        nop
0f32: 00        nop
0f33: 00        nop
0f34: 00        nop
0f35: 00        nop
0f36: 00        nop
0f37: 00        nop
0f38: 00        nop
0f39: 00        nop
0f3a: 00        nop
0f3b: 00        nop
0f3c: 00        nop
0f3d: 00        nop
0f3e: 00        nop
0f3f: 00        nop
0f40: 00        nop
0f41: 00        nop
0f42: 00        nop
0f43: 00        nop
0f44: 00        nop
0f45: 00        nop
0f46: 00        nop
0f47: 00        nop
0f48: 00        nop
0f49: 00        nop
0f4a: 00        nop
0f4b: 00        nop
0f4c: 00        nop
0f4d: 00        nop
0f4e: 00        nop
0f4f: 00        nop
0f50: 00        nop
0f51: 00        nop
0f52: 00        nop
0f53: 00        nop
0f54: 00        nop
0f55: 00        nop
0f56: 00        nop
0f57: 00        nop
0f58: 00        nop
0f59: 00        nop
0f5a: 00        nop
0f5b: 00        nop
0f5c: 00        nop
0f5d: 00        nop
0f5e: 00        nop
0f5f: 00        nop
0f60: 00        nop
0f61: 00        nop
0f62: 00        nop
0f63: 00        nop
0f64: 00        nop
0f65: 00        nop
0f66: 00        nop
0f67: 00        nop
0f68: 00        nop
0f69: 00        nop
0f6a: 00        nop
0f6b: 00        nop
0f6c: 00        nop
0f6d: 00        nop
0f6e: 00        nop
0f6f: 00        nop
0f70: 00        nop
0f71: 00        nop
0f72: 00        nop
0f73: 00        nop
0f74: 00        nop
0f75: 00        nop
0f76: 00        nop
0f77: 00        nop
0f78: 00        nop
0f79: 00        nop
0f7a: 00        nop
0f7b: 00        nop
0f7c: 00        nop
0f7d: 00        nop
0f7e: 00        nop
0f7f: 00        nop
0f80: 00        nop
0f81: 00        nop
0f82: 00        nop
0f83: 00        nop
0f84: 00        nop
0f85: 00        nop
0f86: 00        nop
0f87: 00        nop
0f88: 00        nop
0f89: 00        nop
0f8a: 00        nop
0f8b: 00        nop
0f8c: 00        nop
0f8d: 00        nop
0f8e: 00        nop
0f8f: 00        nop
0f90: 00        nop
0f91: 00        nop
0f92: 00        nop
0f93: 00        nop
0f94: 00        nop
0f95: 00        nop
0f96: 00        nop
0f97: 00        nop
0f98: 00        nop
0f99: 00        nop
0f9a: 00        nop
0f9b: 00        nop
0f9c: 00        nop
0f9d: 00        nop
0f9e: 00        nop
0f9f: 00        nop
0fa0: 00        nop
0fa1: 00        nop
0fa2: 00        nop
0fa3: 00        nop
0fa4: 00        nop
0fa5: 00        nop
0fa6: 00        nop
0fa7: 00        nop
0fa8: 00        nop
0fa9: 00        nop
0faa: 00        nop
0fab: 00        nop
0fac: 00        nop
0fad: 00        nop
0fae: 00        nop
0faf: 00        nop
0fb0: 00        nop
0fb1: 00        nop
0fb2: 00        nop
0fb3: 00        nop
0fb4: 00        nop
0fb5: 00        nop
0fb6: 00        nop
0fb7: 00        nop
0fb8: 00        nop
0fb9: 00        nop
0fba: 00        nop
0fbb: 00        nop
0fbc: 00        nop
0fbd: 00        nop
0fbe: 00        nop
0fbf: 00        nop
0fc0: 00        nop
0fc1: 00        nop
0fc2: 00        nop
0fc3: 00        nop
0fc4: 00        nop
0fc5: 00        nop
0fc6: 00        nop
0fc7: 00        nop
0fc8: 00        nop
0fc9: 00        nop
0fca: 00        nop
0fcb: 00        nop
0fcc: 00        nop
0fcd: 00        nop
0fce: 00        nop
0fcf: 00        nop
0fd0: 00        nop
0fd1: 00        nop
0fd2: 00        nop
0fd3: 00        nop
0fd4: 00        nop
0fd5: 00        nop
0fd6: 00        nop
0fd7: 00        nop
0fd8: 00        nop
0fd9: 00        nop
0fda: 00        nop
0fdb: 00        nop
0fdc: 00        nop
0fdd: 00        nop
0fde: 00        nop
0fdf: 00        nop
0fe0: 00        nop
0fe1: 00        nop
0fe2: 00        nop
0fe3: 00        nop
0fe4: 00        nop
0fe5: 00        nop
0fe6: 00        nop
0fe7: 00        nop
0fe8: 00        nop
0fe9: 00        nop
0fea: 00        nop
0feb: 00        nop
0fec: 00        nop
0fed: 00        nop
0fee: 00        nop
0fef: 00        nop
0ff0: 00        nop
0ff1: 00        nop
0ff2: 00        nop
0ff3: 00        nop
0ff4: 00        nop
0ff5: 00        nop
0ff6: 00        nop
0ff7: 00        nop
0ff8: 00        nop
0ff9: 00        nop
0ffa: 00        nop
0ffb: 00        nop
0ffc: 00        nop
0ffd: 00        nop
0ffe: 00        nop
0fff: 00        nop
1000: 00        nop
1001: 00        nop
1002: 00        nop
1003: 00        nop
1004: 00        nop
1005: 00        nop
1006: 00        nop
1007: 00        nop
1008: 00        nop
1009: 00        nop
100a: 00        nop
100b: 00        nop
100c: 00        nop
100d: 00        nop
100e: 00        nop
100f: 00        nop
1010: 00        nop
1011: 00        nop
1012: 00        nop
1013: 00        nop
1014: 00        nop
1015: 00        nop
1016: 00        nop
1017: 00        nop
1018: 00        nop
1019: 00        nop
101a: 00        nop
101b: 00        nop
101c: 00        nop
101d: 00        nop
101e: 00        nop
101f: 00        nop
1020: 00        nop
1021: 00        nop
1022: 00        nop
1023: 00        nop
1024: 00        nop
1025: 00        nop
1026: 00        nop
1027: 00        nop
1028: 00        nop
1029: 00        nop
102a: 00        nop
102b: 00        nop
102c: 00        nop
102d: 00        nop
102e: 00        nop
102f: 00        nop
1030: 00        nop
1031: 00        nop
1032: 00        nop
1033: 00        nop
1034: 00        nop
1035: 00        nop
1036: 00        nop
1037: 00        nop
1038: 00        nop
1039: 00        nop
103a: 00        nop
103b: 00        nop
103c: 00        nop
103d: 00        nop
103e: 00        nop
103f: 00        nop
1040: 00        nop
1041: 00        nop
1042: 00        nop
1043: 00        nop
1044: 00        nop
1045: 00        nop
1046: 00        nop
1047: 00        nop
1048: 00        nop
1049: 00        nop
104a: 00        nop
104b: 00        nop
104c: 00        nop
104d: 00        nop
104e: 00        nop
104f: 00        nop
1050: 00        nop
1051: 00        nop
1052: 00        nop
1053: 00        nop
1054: 00        nop
1055: 00        nop
1056: 00        nop
1057: 00        nop
1058: 00        nop
1059: 00        nop
105a: 00        nop
105b: 00        nop
105c: 00        nop
105d: 00        nop
105e: 00        nop
105f: 00        nop
1060: 00        nop
1061: 00        nop
1062: 00        nop
1063: 00        nop
1064: 00        nop
1065: 00        nop
1066: 00        nop
1067: 00        nop
1068: 00        nop
1069: 00        nop
106a: 00        nop
106b: 00        nop
106c: 00        nop
106d: 00        nop
106e: 00        nop
106f: 00        nop
1070: 00        nop
1071: 00        nop
1072: 00        nop
1073: 00        nop
1074: 00        nop
1075: 00        nop
1076: 00        nop
1077: 00        nop
1078: 00        nop
1079: 00        nop
107a: 00        nop
107b: 00        nop
107c: 00        nop
107d: 00        nop
107e: 00        nop
107f: 00        nop
1080: 00        nop
1081: 00        nop
1082: 00        nop
1083: 00        nop
1084: 00        nop
1085: 00        nop
1086: 00        nop
1087: 00        nop
1088: 00        nop
1089: 00        nop
108a: 00        nop
108b: 00        nop
108c: 00        nop
108d: 00        nop
108e: 00        nop
108f: 00        nop
1090: 00        nop
1091: 00        nop
1092: 00        nop
1093: 00        nop
1094: 00        nop
1095: 00        nop
1096: 00        nop
1097: 00        nop
1098: 00        nop
1099: 00        nop
109a: 00        nop
109b: 00        nop
109c: 00        nop
109d: 00        nop
109e: 00        nop
109f: 00        nop
10a0: 00        nop
10a1: 00        nop
10a2: 00        nop
10a3: 00        nop
10a4: 00        nop
10a5: 00        nop
10a6: 00        nop
10a7: 00        nop
10a8: 00        nop
10a9: 00        nop
10aa: 00        nop
10ab: 00        nop
10ac: 00        nop
10ad: 00        nop
10ae: 00        nop
10af: 00        nop
10b0: 00        nop
10b1: 00        nop
10b2: 00        nop
10b3: 00        nop
10b4: 00        nop
10b5: 00        nop
10b6: 00        nop
10b7: 00        nop
10b8: 00        nop
10b9: 00        nop
10ba: 00        nop
10bb: 00        nop
10bc: 00        nop
10bd: 00        nop
10be: 00        nop
10bf: 00        nop
10c0: 00        nop
10c1: 00        nop
10c2: 00        nop
10c3: 00        nop
10c4: 00        nop
10c5: 00        nop
10c6: 00        nop
10c7: 00        nop
10c8: 00        nop
10c9: 00        nop
10ca: 00        nop
10cb: 00        nop
10cc: 00        nop
10cd: 00        nop
10ce: 00        nop
10cf: 00        nop
10d0: 00        nop
10d1: 00        nop
10d2: 00        nop
10d3: 00        nop
10d4: 00        nop
10d5: 00        nop
10d6: 00        nop
10d7: 00        nop
10d8: 00        nop
10d9: 00        nop
10da: 00        nop
10db: 00        nop
10dc: 00        nop
10dd: 00        nop
10de: 00        nop
10df: 00        nop
10e0: 00        nop
10e1: 00        nop
10e2: 00        nop
10e3: 00        nop
10e4: 00        nop
10e5: 00        nop
10e6: 00        nop
10e7: 00        nop
10e8: 00        nop
10e9: 00        nop
10ea: 00        nop
10eb: 00        nop
10ec: 00        nop
10ed: 00        nop
10ee: 00        nop
10ef: 00        nop
10f0: 00        nop
10f1: 00        nop
10f2: 00        nop
10f3: 00        nop
10f4: 00        nop
10f5: 00        nop
10f6: 00        nop
10f7: 00        nop
10f8: 00        nop
10f9: 00        nop
10fa: 00        nop
10fb: 00        nop
10fc: 00        nop
10fd: 00        nop
10fe: 00        nop
10ff: 00        nop
1100: 00        nop
1101: 00        nop
1102: 00        nop
1103: 00        nop
1104: 00        nop
1105: 00        nop
1106: 00        nop
1107: 00        nop
1108: 00        nop
1109: 00        nop
110a: 00        nop
110b: 00        nop
110c: 00        nop
110d: 00        nop
110e: 00        nop
110f: 00        nop
1110: 00        nop
1111: 00        nop
1112: 00        nop
1113: 00        nop
1114: 00        nop
1115: 00        nop
1116: 00        nop
1117: 00        nop
1118: 00        nop
1119: 00        nop
111a: 00        nop
111b: 00        nop
111c: 00        nop
111d: 00        nop
111e: 00        nop
111f: 00        nop
1120: 00        nop
1121: 00        nop
1122: 00        nop
1123: 00        nop
1124: 00        nop
1125: 00        nop
1126: 00        nop
1127: 00        nop
1128: 00        nop
1129: 00        nop
112a: 00        nop
112b: 00        nop
112c: 00        nop
112d: 00        nop
112e: 00        nop
112f: 00        nop
1130: 00        nop
1131: 00        nop
1132: 00        nop
1133: 00        nop
1134: 00        nop
1135: 00        nop
1136: 00        nop
1137: 00        nop
1138: 00        nop
1139: 00        nop
113a: 00        nop
113b: 00        nop
113c: 00        nop
113d: 00        nop
113e: 00        nop
113f: 00        nop
1140: 00        nop
1141: 00        nop
1142: 00        nop
1143: 00        nop
1144: 00        nop
1145: 00        nop
1146: 00        nop
1147: 00        nop
1148: 00        nop
1149: 00        nop
114a: 00        nop
114b: 00        nop
114c: 00        nop
114d: 00        nop
114e: 00        nop
114f: 00        nop
1150: 00        nop
1151: 00        nop
1152: 00        nop
1153: 00        nop
1154: 00        nop
1155: 00        nop
1156: 00        nop
1157: 00        nop
1158: 00        nop
1159: 00        nop
115a: 00        nop
115b: 00        nop
115c: 00        nop
115d: 00        nop
115e: 00        nop
115f: 00        nop
1160: 00        nop
1161: 00        nop
1162: 00        nop
1163: 00        nop
1164: 00        nop
1165: 00        nop
1166: 00        nop
1167: 00        nop
1168: 00        nop
1169: 00        nop
116a: 00        nop
116b: 00        nop
116c: 00        nop
116d: 00        nop
116e: 00        nop
116f: 00        nop
1170: 00        nop
1171: 00        nop
1172: 00        nop
1173: 00        nop
1174: 00        nop
1175: 00        nop
1176: 00        nop
1177: 00        nop
1178: 00        nop
1179: 00        nop
117a: 00        nop
117b: 00        nop
117c: 00        nop
117d: 00        nop
117e: 00        nop
117f: 00        nop
1180: 00        nop
1181: 00        nop
1182: 00        nop
1183: 00        nop
1184: 00        nop
1185: 00        nop
1186: 00        nop
1187: 00        nop
1188: 00        nop
1189: 00        nop
118a: 00        nop
118b: 00        nop
118c: 00        nop
118d: 00        nop
118e: 00        nop
118f: 00        nop
1190: 00        nop
1191: 00        nop
1192: 00        nop
1193: 00        nop
1194: 00        nop
1195: 00        nop
1196: 00        nop
1197: 00        nop
1198: 00        nop
1199: 00        nop
119a: 00        nop
119b: 00        nop
119c: 00        nop
119d: 00        nop
119e: 00        nop
119f: 00        nop
11a0: 00        nop
11a1: 00        nop
11a2: 00        nop
11a3: 00        nop
11a4: 00        nop
11a5: 00        nop
11a6: 00        nop
11a7: 00        nop
11a8: 00        nop
11a9: 00        nop
11aa: 00        nop
11ab: 00        nop
11ac: 00        nop
11ad: 00        nop
11ae: 00        nop
11af: 00        nop
11b0: 00        nop
11b1: 00        nop
11b2: 00        nop
11b3: 00        nop
11b4: 00        nop
11b5: 00        nop
11b6: 00        nop
11b7: 00        nop
11b8: 00        nop
11b9: 00        nop
11ba: 00        nop
11bb: 00        nop
11bc: 00        nop
11bd: 00        nop
11be: 00        nop
11bf: 00        nop
11c0: 00        nop
11c1: 00        nop
11c2: 00        nop
11c3: 00        nop
11c4: 00        nop
11c5: 00        nop
11c6: 00        nop
11c7: 00        nop
11c8: 00        nop
11c9: 00        nop
11ca: 00        nop
11cb: 00        nop
11cc: 00        nop
11cd: 00        nop
11ce: 00        nop
11cf: 00        nop
11d0: 00        nop
11d1: 00        nop
11d2: 00        nop
11d3: 00        nop
11d4: 00        nop
11d5: 00        nop
11d6: 00        nop
11d7: 00        nop
11d8: 00        nop
11d9: 00        nop
11da: 00        nop
11db: 00        nop
11dc: 00        nop
11dd: 00        nop
11de: 00        nop
11df: 00        nop
11e0: 00        nop
11e1: 00        nop
11e2: 00        nop
11e3: 00        nop
11e4: 00        nop
11e5: 00        nop
11e6: 00        nop
11e7: 00        nop
11e8: 00        nop
11e9: 00        nop
11ea: 00        nop
11eb: 00        nop
11ec: 00        nop
11ed: 00        nop
11ee: 00        nop
11ef: 00        nop
11f0: 00        nop
11f1: 00        nop
11f2: 00        nop
11f3: 00        nop
11f4: 00        nop
11f5: 00        nop
11f6: 00        nop
11f7: 00        nop
11f8: 00        nop
11f9: 00        nop
11fa: 00        nop
11fb: 00        nop
11fc: 00        nop
11fd: 00        nop
11fe: 00        nop
11ff: 00        nop
1200: 00        nop
1201: 00        nop
1202: 00        nop
1203: 00        nop
1204: 00        nop
1205: 00        nop
1206: 00        nop
1207: 00        nop
1208: 00        nop
1209: 00        nop
120a: 00        nop
120b: 00        nop
120c: 00        nop
120d: 00        nop
120e: 00        nop
120f: 00        nop
1210: 00        nop
1211: 00        nop
1212: 00        nop
1213: 00        nop
1214: 00        nop
1215: 00        nop
1216: 00        nop
1217: 00        nop
1218: 00        nop
1219: 00        nop
121a: 00        nop
121b: 00        nop
121c: 00        nop
121d: 00        nop
121e: 00        nop
121f: 00        nop
1220: 00        nop
1221: 00        nop
1222: 00        nop
1223: 00        nop
1224: 00        nop
1225: 00        nop
1226: 00        nop
1227: 00        nop
1228: 00        nop
1229: 00        nop
122a: 00        nop
122b: 00        nop
122c: 00        nop
122d: 00        nop
122e: 00        nop
122f: 00        nop
1230: 00        nop
1231: 00        nop
1232: 00        nop
1233: 00        nop
1234: 00        nop
1235: 00        nop
1236: 00        nop
1237: 00        nop
1238: 00        nop
1239: 00        nop
123a: 00        nop
123b: 00        nop
123c: 00        nop
123d: 00        nop
123e: 00        nop
123f: 00        nop
1240: 00        nop
1241: 00        nop
1242: 00        nop
1243: 00        nop
1244: 00        nop
1245: 00        nop
1246: 00        nop
1247: 00        nop
1248: 00        nop
1249: 00        nop
124a: 00        nop
124b: 00        nop
124c: 00        nop
124d: 00        nop
124e: 00        nop
124f: 00        nop
1250: 00        nop
1251: 00        nop
1252: 00        nop
1253: 00        nop
1254: 00        nop
1255: 00        nop
1256: 00        nop
1257: 00        nop
1258: 00        nop
1259: 00        nop
125a: 00        nop
125b: 00        nop
125c: 00        nop
125d: 00        nop
125e: 00        nop
125f: 00        nop
1260: 00        nop
1261: 00        nop
1262: 00        nop
1263: 00        nop
1264: 00        nop
1265: 00        nop
1266: 00        nop
1267: 00        nop
1268: 00        nop
1269: 00        nop
126a: 00        nop
126b: 00        nop
126c: 00        nop
126d: 00        nop
126e: 00        nop
126f: 00        nop
1270: 00        nop
1271: 00        nop
1272: 00        nop
1273: 00        nop
1274: 00        nop
1275: 00        nop
1276: 00        nop
1277: 00        nop
1278: 00        nop
1279: 00        nop
127a: 00        nop
127b: 00        nop
127c: 00        nop
127d: 00        nop
127e: 00        nop
127f: 00        nop
1280: 00        nop
1281: 00        nop
1282: 00        nop
1283: 00        nop
1284: 00        nop
1285: 00        nop
1286: 00        nop
1287: 00        nop
1288: 00        nop
1289: 00        nop
128a: 00        nop
128b: 00        nop
128c: 00        nop
128d: 00        nop
128e: 00        nop
128f: 00        nop
1290: 00        nop
1291: 00        nop
1292: 00        nop
1293: 00        nop
1294: 00        nop
1295: 00        nop
1296: 00        nop
1297: 00        nop
1298: 00        nop
1299: 00        nop
129a: 00        nop
129b: 00        nop
129c: 00        nop
129d: 00        nop
129e: 00        nop
129f: 00        nop
12a0: 00        nop
12a1: 00        nop
12a2: 00        nop
12a3: 00        nop
12a4: 00        nop
12a5: 00        nop
12a6: 00        nop
12a7: 00        nop
12a8: 00        nop
12a9: 00        nop
12aa: 00        nop
12ab: 00        nop
12ac: 00        nop
12ad: 00        nop
12ae: 00        nop
12af: 00        nop
12b0: 00        nop
12b1: 00        nop
12b2: 00        nop
12b3: 00        nop
12b4: 00        nop
12b5: 00        nop
12b6: 00        nop
12b7: 00        nop
12b8: 00        nop
12b9: 00        nop
12ba: 00        nop
12bb: 00        nop
12bc: 00        nop
12bd: 00        nop
12be: 00        nop
12bf: 00        nop
12c0: 00        nop
12c1: 00        nop
12c2: 00        nop
12c3: 00        nop
12c4: 00        nop
12c5: 00        nop
12c6: 00        nop
12c7: 00        nop
12c8: 00        nop
12c9: 00        nop
12ca: 00        nop
12cb: 00        nop
12cc: 00        nop
12cd: 00        nop
12ce: 00        nop
12cf: 00        nop
12d0: 00        nop
12d1: 00        nop
12d2: 00        nop
12d3: 00        nop
12d4: 00        nop
12d5: 00        nop
12d6: 00        nop
12d7: 00        nop
12d8: 00        nop
12d9: 00        nop
12da: 00        nop
12db: 00        nop
12dc: 00        nop
12dd: 00        nop
12de: 00        nop
12df: 00        nop
12e0: 00        nop
12e1: 00        nop
12e2: 00        nop
12e3: 00        nop
12e4: 00        nop
12e5: 00        nop
12e6: 00        nop
12e7: 00        nop
12e8: 00        nop
12e9: 00        nop
12ea: 00        nop
12eb: 00        nop
12ec: 00        nop
12ed: 00        nop
12ee: 00        nop
12ef: 00        nop
12f0: 00        nop
12f1: 00        nop
12f2: 00        nop
12f3: 00        nop
12f4: 00        nop
12f5: 00        nop
12f6: 00        nop
12f7: 00        nop
12f8: 00        nop
12f9: 00        nop
12fa: 00        nop
12fb: 00        nop
12fc: 00        nop
12fd: 00        nop
12fe: 00        nop
12ff: 00        nop
1300: 00        nop
1301: 00        nop
1302: 00        nop
1303: 00        nop
1304: 00        nop
1305: 00        nop
1306: 00        nop
1307: 00        nop
1308: 00        nop
1309: 00        nop
130a: 00        nop
130b: 00        nop
130c: 00        nop
130d: 00        nop
130e: 00        nop
130f: 00        nop
1310: 00        nop
1311: 00        nop
1312: 00        nop
1313: 00        nop
1314: 00        nop
1315: 00        nop
1316: 00        nop
1317: 00        nop
1318: 00        nop
1319: 00        nop
131a: 00        nop
131b: 00        nop
131c: 00        nop
131d: 00        nop
131e: 00        nop
131f: 00        nop
1320: 00        nop
1321: 00        nop
1322: 00        nop
1323: 00        nop
1324: 00        nop
1325: 00        nop
1326: 00        nop
1327: 00        nop
1328: 00        nop
1329: 00        nop
132a: 00        nop
132b: 00        nop
132c: 00        nop
132d: 00        nop
132e: 00        nop
132f: 00        nop
1330: 00        nop
1331: 00        nop
1332: 00        nop
1333: 00        nop
1334: 00        nop
1335: 00        nop
1336: 00        nop
1337: 00        nop
1338: 00        nop
1339: 00        nop
133a: 00        nop
133b: 00        nop
133c: 00        nop
133d: 00        nop
133e: 00        nop
133f: 00        nop
1340: 00        nop
1341: 00        nop
1342: 00        nop
1343: 00        nop
1344: 00        nop
1345: 00        nop
1346: 00        nop
1347: 00        nop
1348: 00        nop
1349: 00        nop
134a: 00        nop
134b: 00        nop
134c: 00        nop
134d: 00        nop
134e: 00        nop
134f: 00        nop
1350: 00        nop
1351: 00        nop
1352: 00        nop
1353: 00        nop
1354: 00        nop
1355: 00        nop
1356: 00        nop
1357: 00        nop
1358: 00        nop
1359: 00        nop
135a: 00        nop
135b: 00        nop
135c: 00        nop
135d: 00        nop
135e: 00        nop
135f: 00        nop
1360: 00        nop
1361: 00        nop
1362: 00        nop
1363: 00        nop
1364: 00        nop
1365: 00        nop
1366: 00        nop
1367: 00        nop
1368: 00        nop
1369: 00        nop
136a: 00        nop
136b: 00        nop
136c: 00        nop
136d: 00        nop
136e: 00        nop
136f: 00        nop
1370: 00        nop
1371: 00        nop
1372: 00        nop
1373: 00        nop
1374: 00        nop
1375: 00        nop
1376: 00        nop
1377: 00        nop
1378: 00        nop
1379: 00        nop
137a: 00        nop
137b: 00        nop
137c: 00        nop
137d: 00        nop
137e: 00        nop
137f: 00        nop
1380: 00        nop
1381: 00        nop
1382: 00        nop
1383: 00        nop
1384: 00        nop
1385: 00        nop
1386: 00        nop
1387: 00        nop
1388: 00        nop
1389: 00        nop
138a: 00        nop
138b: 00        nop
138c: 00        nop
138d: 00        nop
138e: 00        nop
138f: 00        nop
1390: 00        nop
1391: 00        nop
1392: 00        nop
1393: 00        nop
1394: 00        nop
1395: 00        nop
1396: 00        nop
1397: 00        nop
1398: 00        nop
1399: 00        nop
139a: 00        nop
139b: 00        nop
139c: 00        nop
139d: 00        nop
139e: 00        nop
139f: 00        nop
13a0: 00        nop
13a1: 00        nop
13a2: 00        nop
13a3: 00        nop
13a4: 00        nop
13a5: 00        nop
13a6: 00        nop
13a7: 00        nop
13a8: 00        nop
13a9: 00        nop
13aa: 00        nop
13ab: 00        nop
13ac: 00        nop
13ad: 00        nop
13ae: 00        nop
13af: 00        nop
13b0: 00        nop
13b1: 00        nop
13b2: 00        nop
13b3: 00        nop
13b4: 00        nop
13b5: 00        nop
13b6: 00        nop
13b7: 00        nop
13b8: 00        nop
13b9: 00        nop
13ba: 00        nop
13bb: 00        nop
13bc: 00        nop
13bd: 00        nop
13be: 00        nop
13bf: 00        nop
13c0: 00        nop
13c1: 00        nop
13c2: 00        nop
13c3: 00        nop
13c4: 00        nop
13c5: 00        nop
13c6: 00        nop
13c7: 00        nop
13c8: 00        nop
13c9: 00        nop
13ca: 00        nop
13cb: 00        nop
13cc: 00        nop
13cd: 00        nop
13ce: 00        nop
13cf: 00        nop
13d0: 00        nop
13d1: 00        nop
13d2: 00        nop
13d3: 00        nop
13d4: 00        nop
13d5: 00        nop
13d6: 00        nop
13d7: 00        nop
13d8: 00        nop
13d9: 00        nop
13da: 00        nop
13db: 00        nop
13dc: 00        nop
13dd: 00        nop
13de: 00        nop
13df: 00        nop
13e0: 00        nop
13e1: 00        nop
13e2: 00        nop
13e3: 00        nop
13e4: 00        nop
13e5: 00        nop
13e6: 00        nop
13e7: 00        nop
13e8: 00        nop
13e9: 00        nop
13ea: 00        nop
13eb: 00        nop
13ec: 00        nop
13ed: 00        nop
13ee: 00        nop
13ef: 00        nop
13f0: 00        nop
13f1: 00        nop
13f2: 00        nop
13f3: 00        nop
13f4: 00        nop
13f5: 00        nop
13f6: 00        nop
13f7: 00        nop
13f8: 00        nop
13f9: 00        nop
13fa: 00        nop
13fb: 00        nop
13fc: 00        nop
13fd: 00        nop
13fe: 00        nop
13ff: 00        nop
1400: 00        nop
1401: 00        nop
1402: 00        nop
1403: 00        nop
1404: 00        nop
1405: 00        nop
1406: 00        nop
1407: 00        nop
1408: 00        nop
1409: 00        nop
140a: 00        nop
140b: 00        nop
140c: 00        nop
140d: 00        nop
140e: 00        nop
140f: 00        nop
1410: 00        nop
1411: 00        nop
1412: 00        nop
1413: 00        nop
1414: 00        nop
1415: 00        nop
1416: 00        nop
1417: 00        nop
1418: 00        nop
1419: 00        nop
141a: 00        nop
141b: 00        nop
141c: 00        nop
141d: 00        nop
141e: 00        nop
141f: 00        nop
1420: 00        nop
1421: 00        nop
1422: 00        nop
1423: 00        nop
1424: 00        nop
1425: 00        nop
1426: 00        nop
1427: 00        nop
1428: 00        nop
1429: 00        nop
142a: 00        nop
142b: 00        nop
142c: 00        nop
142d: 00        nop
142e: 00        nop
142f: 00        nop
1430: 00        nop
1431: 00        nop
1432: 00        nop
1433: 00        nop
1434: 00        nop
1435: 00        nop
1436: 00        nop
1437: 00        nop
1438: 00        nop
1439: 00        nop
143a: 00        nop
143b: 00        nop
143c: 00        nop
143d: 00        nop
143e: 00        nop
143f: 00        nop
1440: 00        nop
1441: 00        nop
1442: 00        nop
1443: 00        nop
1444: 00        nop
1445: 00        nop
1446: 00        nop
1447: 00        nop
1448: 00        nop
1449: 00        nop
144a: 00        nop
144b: 00        nop
144c: 00        nop
144d: 00        nop
144e: 00        nop
144f: 00        nop
1450: 00        nop
1451: 00        nop
1452: 00        nop
1453: 00        nop
1454: 00        nop
1455: 00        nop
1456: 00        nop
1457: 00        nop
1458: 00        nop
1459: 00        nop
145a: 00        nop
145b: 00        nop
145c: 00        nop
145d: 00        nop
145e: 00        nop
145f: 00        nop
1460: 00        nop
1461: 00        nop
1462: 00        nop
1463: 00        nop
1464: 00        nop
1465: 00        nop
1466: 00        nop
1467: 00        nop
1468: 00        nop
1469: 00        nop
146a: 00        nop
146b: 00        nop
146c: 00        nop
146d: 00        nop
146e: 00        nop
146f: 00        nop
1470: 00        nop
1471: 00        nop
1472: 00        nop
1473: 00        nop
1474: 00        nop
1475: 00        nop
1476: 00        nop
1477: 00        nop
1478: 00        nop
1479: 00        nop
147a: 00        nop
147b: 00        nop
147c: 00        nop
147d: 00        nop
147e: 00        nop
147f: 00        nop
1480: 00        nop
1481: 00        nop
1482: 00        nop
1483: 00        nop
1484: 00        nop
1485: 00        nop
1486: 00        nop
1487: 00        nop
1488: 00        nop
1489: 00        nop
148a: 00        nop
148b: 00        nop
148c: 00        nop
148d: 00        nop
148e: 00        nop
148f: 00        nop
1490: 00        nop
1491: 00        nop
1492: 00        nop
1493: 00        nop
1494: 00        nop
1495: 00        nop
1496: 00        nop
1497: 00        nop
1498: 00        nop
1499: 00        nop
149a: 00        nop
149b: 00        nop
149c: 00        nop
149d: 00        nop
149e: 00        nop
149f: 00        nop
14a0: 00        nop
14a1: 00        nop
14a2: 00        nop
14a3: 00        nop
14a4: 00        nop
14a5: 00        nop
14a6: 00        nop
14a7: 00        nop
14a8: 00        nop
14a9: 00        nop
14aa: 00        nop
14ab: 00        nop
14ac: 00        nop
14ad: 00        nop
14ae: 00        nop
14af: 00        nop
14b0: 00        nop
14b1: 00        nop
14b2: 00        nop
14b3: 00        nop
14b4: 00        nop
14b5: 00        nop
14b6: 00        nop
14b7: 00        nop
14b8: 00        nop
14b9: 00        nop
14ba: 00        nop
14bb: 00        nop
14bc: 00        nop
14bd: 00        nop
14be: 00        nop
14bf: 00        nop
14c0: 00        nop
14c1: 00        nop
14c2: 00        nop
14c3: 00        nop
14c4: 00        nop
14c5: 00        nop
14c6: 00        nop
14c7: 00        nop
14c8: 00        nop
14c9: 00        nop
14ca: 00        nop
14cb: 00        nop
14cc: 00        nop
14cd: 00        nop
14ce: 00        nop
14cf: 00        nop
14d0: 00        nop
14d1: 00        nop
14d2: 00        nop
14d3: 00        nop
14d4: 00        nop
14d5: 00        nop
14d6: 00        nop
14d7: 00        nop
14d8: 00        nop
14d9: 00        nop
14da: 00        nop
14db: 00        nop
14dc: 00        nop
14dd: 00        nop
14de: 00        nop
14df: 00        nop
14e0: 00        nop
14e1: 00        nop
14e2: 00        nop
14e3: 00        nop
14e4: 00        nop
14e5: 00        nop
14e6: 00        nop
14e7: 00        nop
14e8: 00        nop
14e9: 00        nop
14ea: 00        nop
14eb: 00        nop
14ec: 00        nop
14ed: 00        nop
14ee: 00        nop
14ef: 00        nop
14f0: 00        nop
14f1: 00        nop
14f2: 00        nop
14f3: 00        nop
14f4: 00        nop
14f5: 00        nop
14f6: 00        nop
14f7: 00        nop
14f8: 00        nop
14f9: 00        nop
14fa: 00        nop
14fb: 00        nop
14fc: 00        nop
14fd: 00        nop
14fe: 00        nop
14ff: 00        nop
1500: 20        clrp
1501: cd cf     mov   x,#$cf
1503: bd        mov   sp,x        ;Initialize stack to $01CF
1504: e8 00     mov   a,#$00
1506: 5d        mov   x,a
1507: af        mov   (x)+,a
1508: c8 e0     cmp   x,#$e0
150a: d0 fb     bne   $1507       ;Clear all $0000 to $00E0
150c: cd 00     mov   x,#$00
150e: e8 00     mov   a,#$00
1510: c4 d2     mov   $d2,a
1512: 8f 05 d3  mov   $d3,#$05
1515: c7 d2     mov   ($d2+x),a
1517: ab d2     inc   $d2
1519: d0 fa     bne   $1515
151b: ab d3     inc   $d3
151d: 78 15 d3  cmp   $d3,#$15
1520: d0 f3     bne   $1515       ;Clear all $0500 to $14FF
1522: e8 20     mov   a,#$20
1524: c4 ee     mov   $ee,a
1526: e8 00     mov   a,#$00
1528: c4 ef     mov   $ef,a
152a: e8 0f     mov   a,#$0f      ;$00EE = #$0020, $0390 = #$0F
152c: c5 90 03  mov   $0390,a     ;So clear $0020 - $002E. Again.
152f: 3f d7 1e  call  $1ed7       ;Clear $0390 bytes, starting at ($00EE)
1532: e8 d0     mov   a,#$d0
1534: c4 ee     mov   $ee,a
1536: e8 00     mov   a,#$00
1538: c4 ef     mov   $ef,a
153a: e8 1f     mov   a,#$1f
153c: c5 90 03  mov   $0390,a     ;Clear $00D0 - $00EE
153f: 3f d7 1e  call  $1ed7       ;Clear $0390 bytes, starting at ($00EE)
1542: e8 91     mov   a,#$91
1544: c4 ee     mov   $ee,a
1546: e8 03     mov   a,#$03
1548: c4 ef     mov   $ef,a
154a: e8 6f     mov   a,#$6f
154c: c5 90 03  mov   $0390,a     ;Clear $0391 - $03FF
154f: 3f d7 1e  call  $1ed7       ;Clear $0390 bytes, starting at ($00EE)
1552: e8 40     mov   a,#$40
1554: c4 ee     mov   $ee,a
1556: e8 04     mov   a,#$04
1558: c4 ef     mov   $ef,a
155a: e8 7f     mov   a,#$7f
155c: c5 90 03  mov   $0390,a     ;Clear $0440 - $04BE
155f: 3f d7 1e  call  $1ed7       ;Clear $0390 bytes, starting at ($00EE)
1562: bc        inc   a           ;New echo delay = 1
1563: 3f ab 1a  call  $1aab       ;Set echo delay (and $004D) to A, if new, clear DSP ($1E52) - ($1E55), update $004C, and store $0048 to FLG, with echo buffer update disable. Also move echo buffer address as necessary.
1566: a2 48     set5  $48         ;Set SPC ram representing echo buffer update (DSP 6C) to disabled?
1568: e8 60     mov   a,#$60
156a: 8d 0c     mov   y,#$0c
156c: 3f 26 17  call  $1726       ;Store A to DSP register (Y)
156f: 8d 1c     mov   y,#$1c      ;Set both left and right volume to #$60
1571: 3f 26 17  call  $1726       ;Store A to DSP register (Y)
1574: e8 6d     mov   a,#$6d
1576: 8d 5d     mov   y,#$5d      ;Set sample table address to $6D00
1578: 3f 26 17  call  $1726       ;Store A to DSP register (Y)
157b: e8 f0     mov   a,#$f0
157d: c5 f1 00  mov   $00f1,a     ;Clear APU-readable registers, F4-F7, and stop timers.
1580: e8 10     mov   a,#$10
1582: c5 fa 00  mov   $00fa,a     ;Set timer 0 to count to 10 (2 ms)
1585: c4 53     mov   $53,a       ;$0053 = Timer 0 counter for SPC ram?
1587: e8 01     mov   a,#$01
1589: c5 f1 00  mov   $00f1,a     ;Enable timer 0
                                  ;Start of main loop?
158c: e4 1b     mov   a,$1b       ;No idea. This was cleared at startup though.
158e: d0 6e     bne   $15fe
1590: 8d 0a     mov   y,#$0a      ;4C = (echo delay eor FF) + old 4C if positive. In this case, FE.
1592: ad 05     cmp   y,#$05
1594: f0 07     beq   $159d
1596: b0 08     bcs   $15a0
1598: 69 4d 4c  cmp   ($4c),($4d) ;Not actually indirect. 4D = echo delay
159b: d0 11     bne   $15ae
159d: e3 4c 0e  bbs7  $4c,$15ae
15a0: f6 51 1e  mov   a,$1e51+y   ;This is a bunch of SPCRAM to DSP registers
15a3: c5 f2 00  mov   $00f2,a     ;For 6 <= y <= A
15a6: f6 5b 1e  mov   a,$1e5b+y   ;46 to 5C, 4B to 2D , 49 to 3D , 0E to 5C, 45 to 4C (in order, Key Off, Pitch Mod, Noise On/Off, Key Off, Key On)
15a9: 5d        mov   x,a         ;For y = 5, 48 to 6C IF $004C is positive (FLG)
15aa: e6        mov   a,(x)       ;For y < 5, 4A 43 63 61 to 4D 0D 3C 2C (Echo on/off, Echo feedback vol, Echo right vol, Echo left vol)
15ab: c5 f3 00  mov   $00f3,a     ;IF $004C is positive and equal to $004D (echo delay)
15ae: fe e2     dbnz  y,$1592
15b0: cb 45     mov   $45,y       ;y = 0. Clears 45 and 46
15b2: cb 46     mov   $46,y
15b4: e4 18     mov   a,$18       ;Unknowns atm. Cleared at startup.
15b6: 44 19     eor   a,$19
15b8: 5c        lsr   a
15b9: 5c        lsr   a
15ba: ed        notc              ;Toggle Carry. Neat
15bb: 6b 18     ror   $18
15bd: 6b 19     ror   $19         ;No clear pattern. It might be some sort of simple rng.
15bf: ec fd 00  mov   y,$00fd     ;Read timer 0 counter
15c2: f0 fb     beq   $15bf       ;Wait till 2 ms have elapsed.
15c4: 6d        push  y
15c5: e8 20     mov   a,#$20
15c7: cf        mul   ya          ;y * a -> ya. So ya = #$20 * (time/8 ms)
15c8: 60        clrc
15c9: 84 43     adc   a,$43       ;$0043 was loaded into echo feedback volume
15cb: c4 43     mov   $43,a       ;$0043 = #$20 * (time/8 ms) + $0043
15cd: 90 24     bcc   $15f3
15cf: 3f e7 1e  call  $1ee7       ;Dunno. Does nothing the first time run.
15d2: cd 01     mov   x,#$01
15d4: 3f 21 16  call  $1621       ;Send 4,X, get F4,X and put it in 0,X
15d7: e5 a9 04  mov   a,$04a9     ;Unknown. Initialized to 0 at start.
15da: d0 08     bne   $15e4
15dc: 3f 57 31  call  $3157       ;Dunno. Does nothing the first time run.
15df: cd 02     mov   x,#$02
15e1: 3f 21 16  call  $1621       ;Send 4,X, get F4,X and put it in 0,X
15e4: 3f 06 47  call  $4706       ;Dunno. Does nothing the first time run.
15e7: cd 03     mov   x,#$03
15e9: 3f 21 16  call  $1621       ;Send 4,X, get F4,X and put it in 0,X
15ec: 69 4d 4c  cmp   ($4c),($4d) ;4D = echo delay(0-2?). 4C is -2 - 0
15ef: f0 02     beq   $15f3
15f1: ab 4c     inc   $4c
15f3: e4 53     mov   a,$53
15f5: ee        pop   y
15f6: cf        mul   ya          ;Elapsed time: time length($53 * 0.125 ms) * time intervals(y). 
15f7: 60        clrc
15f8: 84 51     adc   a,$51       ;Add to some timer
15fa: c4 51     mov   $51,a
15fc: 90 0a     bcc   $1608       ;Only run the following code once every song tic
15fe: 3f 93 17  call  $1793
1601: cd 00     mov   x,#$00
1603: 3f 21 16  call  $1621       ;Subroutine 1621: Send 4,X, get F4,X and put it in 0,X
1606: 2f 84     bra   $158c

1608: e4 04     mov   a,$04       ;Check last song command
160a: f0 12     beq   $161e       ;Skip if no song
160c: cd 00     mov   x,#$00
160e: 8f 01 47  mov   $47,#$01
1611: f4 31     mov   a,$31+x     ;Check song instructions
1613: f0 03     beq   $1618       ;Skip if not used
1615: 3f 7a 1d  call  $1d7a       ;Calculates and puts into registers volume and pitch at this moment, according to current vol/pan/pitch/vibrato, rate, and percent of tic. If they're not changing, they aren't updated.
1618: 3d        inc   x
1619: 3d        inc   x
161a: 0b 47     asl   $47
161c: d0 f3     bne   $1611       ;Loop if more channels left
161e: 5f 8c 15  jmp   $158c       ;End of main loop

1621: f4 04     mov   a,$04+x     ;Subroutine 1621: Send 4,X, get F4,X and put it in 0,X
1623: d5 f4 00  mov   $00f4+x,a
1626: f5 f4 00  mov   a,$00f4+x
1629: 75 f4 00  cmp   a,$00f4+x
162c: d0 f8     bne   $1626
162e: d4 00     mov   $00+x,a
1630: 6f        ret

1631: ad ca     cmp   y,#$ca      ;Subroutine 1631: y = source # = a. x = 2*channel, I assume.
1633: 90 05     bcc   $163a
1635: 3f f9 18  call  $18f9       ;Set data in channel (x/2) for source # a
1638: 8d a4     mov   y,#$a4
163a: ad c8     cmp   y,#$c8
163c: b0 f2     bcs   $1630       ;Branch to RTS if y = #$C8 or #$C9 coming into 1631.
163e: e4 1a     mov   a,$1a
1640: 24 47     and   a,$47
1642: d0 ec     bne   $1630       ;Or if current channel is currently on
1644: dd        mov   a,y
1645: 28 7f     and   a,#$7f
1647: 60        clrc
1648: 84 50     adc   a,$50
164a: 60        clrc
164b: 95 f0 02  adc   a,$02f0+x
164e: d5 61 03  mov   $0361+x,a   ;Next note to play
1651: f5 81 03  mov   a,$0381+x
1654: d5 60 03  mov   $0360+x,a
1657: f5 b1 02  mov   a,$02b1+x
165a: 5c        lsr   a
165b: e8 00     mov   a,#$00
165d: 7c        ror   a            ;So bit0 of $02B1,x is now bit7 of a.
165e: d5 a0 02  mov   $02a0+x,a    ;Vibrato initialized to either 00 or 80
1661: e8 00     mov   a,#$00
1663: d4 b0     mov   $b0+x,a
1665: d5 00 01  mov   $0100+x,a
1668: d5 d0 02  mov   $02d0+x,a
166b: d4 c0     mov   $c0+x,a
166d: 09 47 5e  or    ($5e),($47)
1670: 09 47 45  or    ($45),($47)  ;Turn this key on next update
1673: f5 80 02  mov   a,$0280+x
1676: d4 a0     mov   $a0+x,a
1678: f0 1e     beq   $1698
167a: f5 81 02  mov   a,$0281+x
167d: d4 a1     mov   $a1+x,a
167f: f5 90 02  mov   a,$0290+x
1682: d0 0a     bne   $168e
1684: f5 61 03  mov   a,$0361+x
1687: 80        setc
1688: b5 91 02  sbc   a,$0291+x
168b: d5 61 03  mov   $0361+x,a
168e: f5 91 02  mov   a,$0291+x
1691: 60        clrc
1692: 95 61 03  adc   a,$0361+x
1695: 3f 23 1b  call  $1b23
1698: 3f 3b 1b  call  $1b3b       ;Copy a word from $0360,x to $10
169b: 8d 00     mov   y,#$00
169d: e4 11     mov   a,$11       ;$11 must be between #$B4 and #$53 to be valid. #$54 to #$B3 will cause *huge* loops later in code.
169f: 80        setc
16a0: a8 34     sbc   a,#$34
16a2: b0 09     bcs   $16ad       ;If $11 >= #$34, w.$10 += ($11 - #$34)
16a4: e4 11     mov   a,$11
16a6: 80        setc
16a7: a8 13     sbc   a,#$13
16a9: b0 06     bcs   $16b1       ;If #$34 > $11 >= #$13, $10 doesn't change
16ab: dc        dec   y              ;y = #$FF
16ac: 1c        asl   a              ;a = 2*($11 - #$13)
16ad: 7a 10     addw  ya,$10      ;If $11 < #$13, w.$10 -= 2*(#$13 - $11)
16af: da 10     movw  $10,ya      ;EndIf
16b1: 4d        push  x           ;Preserve channel index
16b2: e4 11     mov   a,$11
16b4: 1c        asl   a
16b5: 8d 00     mov   y,#$00
16b7: cd 18     mov   x,#$18
16b9: 9e        div   ya,x
16ba: 5d        mov   x,a         ;x = (2*$11)/#$18, y = (2*$11) mod #$18. I might have these backwards.
16bb: f6 67 1e  mov   a,$1e67+y
16be: c4 15     mov   $15,a
16c0: f6 66 1e  mov   a,$1e66+y
16c3: c4 14     mov   $14,a       ;$14 = $1E66,y
16c5: f6 69 1e  mov   a,$1e69+y   ;I don't think this particular byte is ever used productively.
16c8: 2d        push  a
16c9: f6 68 1e  mov   a,$1e68+y
16cc: ee        pop   y           ;ya = $1E68,y
16cd: 9a 14     subw  ya,$14
16cf: eb 10     mov   y,$10       ;So... subw was pointless?
16d1: cf        mul   ya          ;ya = $10 * ($1E68,y - $1E66,y)
16d2: dd        mov   a,y
16d3: 8d 00     mov   y,#$00      ; w      b        b         b   w       w       w
16d5: 7a 14     addw  ya,$14      ;ya = ($10 * ($1E68,y - $1E66,y)) / #$100 + $1E66,y
16d7: cb 15     mov   $15,y
16d9: 1c        asl   a
16da: 2b 15     rol   $15
16dc: c4 14     mov   $14,a       ;This line is useless
16de: 2f 04     bra   $16e4       ;So in summary, w.$14 = 2 * (previous ya)
16e0: 4b 15     lsr   $15
16e2: 7c        ror   a
16e3: 3d        inc   x
16e4: c8 06     cmp   x,#$06
16e6: d0 f8     bne   $16e0       ;w.$14 = w.$14 / (2^(#$06 - x))
16e8: c4 14     mov   $14,a       ;      w           b        b         b   w       w       w                 b
16ea: ce        pop   x           ;Or, $14 = 2 * (($10 * ($1E68,y - $1E66,y)) / #$100 + $1E66,y) / (2^(#$06 - x))

;Let's pause the code while I explain what this means.
;Ignoring $10 for the moment, $11 contains the note/octave.
;It's divided by C to get the octave (x) and note-pitch index (remainder * 2, y)
;1E66,y contains 13 pitches, a full octave + 1.
;Backtracking, $10 is the 'cents' to adjust the pitch up, closer to the next note.

16eb: f5 20 02  mov   a,$0220+x   ;16-bit*16-bit multiplication, down to the next comment.
16ee: eb 15     mov   y,$15
16f0: cf        mul   ya
16f1: da 16     movw  $16,ya
16f3: f5 20 02  mov   a,$0220+x
16f6: eb 14     mov   y,$14
16f8: cf        mul   ya
16f9: 6d        push  y
16fa: f5 21 02  mov   a,$0221+x
16fd: eb 14     mov   y,$14
16ff: cf        mul   ya
1700: 7a 16     addw  ya,$16
1702: da 16     movw  $16,ya
1704: f5 21 02  mov   a,$0221+x
1707: eb 15     mov   y,$15
1709: cf        mul   ya
170a: fd        mov   y,a
170b: ae        pop   a
170c: 7a 16     addw  ya,$16
170e: da 16     movw  $16,ya     ;Store pitch. $00 * $02 / #$100 --> $04, with words. Highest and lowest bytes of result ignored.
1710: 7d        mov   a,x
1711: 9f        xcn   a
1712: 5c        lsr   a
1713: 08 02     or    a,#$02     ;Convert x to a channel pitch address
1715: fd        mov   y,a        ;and put it in y
1716: e4 16     mov   a,$16      ;Low byte of pitch
1718: 3f 1e 17  call  $171e
171b: fc        inc   y
171c: e4 17     mov   a,$17      ;High byte of pitch
171e: 2d        push  a
171f: e4 47     mov   a,$47
1721: 24 1a     and   a,$1a
1723: ae        pop   a
1724: d0 06     bne   $172c      ;Don't write if this channel is currently on. Redundant unless I'm missing a call
1726: cc f2 00  mov   $00f2,y    ;Subroutine 1726: Store A to DSP register (Y)
1729: c5 f3 00  mov   $00f3,a
172c: 6f        ret

172d: 8d 00     mov   y,#$00     ;Subroutine 172D: ya <-- ($40), $40 += 2
172f: f7 40     mov   a,($40)+y
1731: 3a 40     incw  $40
1733: 2d        push  a
1734: f7 40     mov   a,($40)+y
1736: 3a 40     incw  $40
1738: fd        mov   y,a
1739: ae        pop   a
173a: 6f        ret

173b: 3f 8b 1e  call  $1e8b     ;Load data from CPU. FFC0-imitation.
173e: c4 08     mov   $08,a     ;a = #$00 from above routine, if first $F4 was #$FF
1740: c4 04     mov   $04,a     ;Or a = first $F4 if first $F4 wasn't #$FF and branched here
1742: 1c        asl   a
1743: 5d        mov   x,a
1744: f5 1f 58  mov   a,$581f+x
1747: fd        mov   y,a
1748: f5 1e 58  mov   a,$581e+x
174b: da 40     movw  $40,ya    ;Copy $581E,(2*F4) to $40
174d: 8f 02 0c  mov   $0c,#$02  ;Song startup counter
1750: e4 1a     mov   a,$1a
1752: 48 ff     eor   a,#$ff
1754: 0e 46 00  tset1 $0046     ;Set key offs
1757: 6f        ret

1758: cd 0e     mov   x,#$0e    ;'Subroutine', comes here first tic after starting a new song. Clears/initializes stuff.
175a: 8f 80 47  mov   $47,#$80  ;Setup for channel 7
175d: e8 ff     mov   a,#$ff    ;Start of loop for each channel
175f: d5 01 03  mov   $0301+x,a ;Volume = #$FF??
1762: e8 0a     mov   a,#$0a    ;Center panning, no inversion
1764: 3f 52 19  call  $1952     ;Set panning and flags
1767: d5 11 02  mov   $0211+x,a ;Also STZ to all these addresses. This one is the channel's source #
176a: d5 81 03  mov   $0381+x,a ;Cents adjustment for this channel
176d: d5 f0 02  mov   $02f0+x,a ;Note transposement
1770: d5 80 02  mov   $0280+x,a
1773: d5 00 04  mov   $0400+x,a
1776: d4 b1     mov   $b1+x,a   ;Vibrato magnitude
1778: d4 c1     mov   $c1+x,a
177a: 1d        dec   x
177b: 1d        dec   x
177c: 4b 47     lsr   $47       ;Go to previous channel
177e: d0 dd     bne   $175d     ;until all 8 channels have been cleared
1780: c4 5a     mov   $5a,a     ;a is still #$00. Tics left till target song volume
1782: c4 68     mov   $68,a
1784: c4 54     mov   $54,a     ;Tics left till target song speed
1786: c4 50     mov   $50,a     ;Transpose
1788: c4 42     mov   $42,a     ;Conductor loop counter
178a: c4 5f     mov   $5f,a     ;Sound index offset
178c: 8f c0 59  mov   $59,#$c0  ;Song volume
178f: 8f 20 53  mov   $53,#$20  ;Song speed
1792: 6f        ret

1793: eb 08     mov   y,$08       ;Subroutine $1793: Oooh, this looks like it responds to input from the game!
1795: e4 00     mov   a,$00
1797: c4 08     mov   $08,a
1799: 68 f0     cmp   a,#$f0
179b: f0 b3     beq   $1750       ;If $F4 is #$F0, $46 = $46 OR !$1A
179d: 68 f1     cmp   a,#$f1
179f: f0 08     beq   $17a9       ;If $F4 is #$F1, skip next two checks
17a1: 68 ff     cmp   a,#$ff
17a3: f0 96     beq   $173b       ;If $F4 is #$FF, load new data into the SPC and set new $40
17a5: 7e 00     cmp   y,$00
17a7: d0 97     bne   $1740       ;If $F4 is none of the above, but not old, go to a different point in song
17a9: e4 04     mov   a,$04
17ab: f0 e5     beq   $1792
17ad: e4 0c     mov   a,$0c       ;Some sort of timer/counter
17af: f0 5a     beq   $180b       ;Branch if normal song
17b1: 6e 0c a4  dbnz  $0c,$1758   ;Branch if first tic after song start
17b4: 3f 2d 17  call  $172d       ;Subroutine 172D: ya <-- ($40), $40 += 2. Code ends up here if second tic after song start
17b7: d0 22     bne   $17db       ;Branch if y != #$00
17b9: fd        mov   y,a
17ba: f0 84     beq   $1740       ;If low byte is 0, stop music data.
17bc: 68 80     cmp   a,#$80
17be: f0 06     beq   $17c6
17c0: 68 81     cmp   a,#$81
17c2: d0 06     bne   $17ca
17c4: e8 00     mov   a,#$00
17c6: c4 1b     mov   $1b,a
17c8: 2f ea     bra   $17b4
17ca: 8b 42     dec   $42
17cc: 10 02     bpl   $17d0
17ce: c4 42     mov   $42,a
17d0: 3f 2d 17  call  $172d       ;Subroutine 172D: ya <-- ($40), $40 += 2
17d3: f8 42     mov   x,$42
17d5: f0 dd     beq   $17b4
17d7: da 40     movw  $40,ya
17d9: 2f d9     bra   $17b4
17db: da 16     movw  $16,ya      ;Data from ($40) is stuck here
17dd: 8d 0f     mov   y,#$0f
17df: f7 16     mov   a,($16)+y
17e1: d6 30 00  mov   $0030+y,a
17e4: dc        dec   y
17e5: 10 f8     bpl   $17df
17e7: cd 00     mov   x,#$00      ;Setup for channel 0
17e9: 8f 01 47  mov   $47,#$01
17ec: f4 31     mov   a,$31+x     ;Start of individual channel loop
17ee: f0 0a     beq   $17fa       ;Branch if channel has no instructions
17f0: f5 11 02  mov   a,$0211+x
17f3: d0 05     bne   $17fa       ;Branch if channel's source # is not 0
17f5: e8 00     mov   a,#$00      ;No sound
17f7: 3f f9 18  call  $18f9       ;Set data in channel (x/2) for source # a
17fa: e8 00     mov   a,#$00
17fc: d4 80     mov   $80+x,a     ;Clear loop counter?
17fe: d4 90     mov   $90+x,a
1800: d4 91     mov   $91+x,a
1802: bc        inc   a
1803: d4 70     mov   $70+x,a
1805: 3d        inc   x           ;Goto next channel
1806: 3d        inc   x
1807: 0b 47     asl   $47
1809: d0 e1     bne   $17ec       ;Branch if all 8 channels haven't been checked yet
180b: cd 00     mov   x,#$00      ;Start of common processing for one tic of music
180d: d8 5e     mov   $5e,x
180f: 8f 01 47  mov   $47,#$01    ;Setup for channel 0
1812: d8 44     mov   $44,x       ;Start of individual channel loop
1814: f4 31     mov   a,$31+x
1816: f0 72     beq   $188a       ;Branch if channel has no instructions
1818: 9b 70     dec   $70+x       ;Decrement tics till next channel event
181a: d0 64     bne   $1880       ;Branch if next channel event doesn't occur yet
181c: 3f ef 18  call  $18ef       ;Get next data byte for this channel
181f: d0 17     bne   $1838
1821: f4 80     mov   a,$80+x
1823: f0 8f     beq   $17b4
1825: 3f 40 1a  call  $1a40
1828: 9b 80     dec   $80+x
182a: d0 f0     bne   $181c
182c: f5 30 02  mov   a,$0230+x
182f: d4 30     mov   $30+x,a
1831: f5 31 02  mov   a,$0231+x
1834: d4 31     mov   $31+x,a
1836: 2f e4     bra   $181c
1838: 30 20     bmi   $185a
183a: d5 00 02  mov   $0200+x,a
183d: 3f ef 18  call  $18ef       ;Get next data byte for this channel
1840: 30 18     bmi   $185a
1842: 2d        push  a
1843: 9f        xcn   a
1844: 28 07     and   a,#$07
1846: fd        mov   y,a
1847: f6 00 58  mov   a,$5800+y
184a: d5 01 02  mov   $0201+x,a
184d: ae        pop   a
184e: 28 0f     and   a,#$0f
1850: fd        mov   y,a
1851: f6 08 58  mov   a,$5808+y
1854: d5 10 02  mov   $0210+x,a
1857: 3f ef 18  call  $18ef       ;Get next data byte for this channel
185a: 68 e0     cmp   a,#$e0
185c: 90 05     bcc   $1863       ;If it's not an instruction, branch
185e: 3f dd 18  call  $18dd       ;Go to the instruction's routine
1861: 2f b9     bra   $181c
1863: f5 00 04  mov   a,$0400+x
1866: 04 1b     or    a,$1b
1868: d0 04     bne   $186e
186a: dd        mov   a,y
186b: 3f 31 16  call  $1631       ;if a/y >C9, set sound effect for channel x/2. Else set note for channel x/2
186e: f5 00 02  mov   a,$0200+x
1871: d4 70     mov   $70+x,a     ;Set delay till next event
1873: fd        mov   y,a
1874: f5 01 02  mov   a,$0201+x
1877: cf        mul   ya
1878: dd        mov   a,y
1879: d0 01     bne   $187c
187b: bc        inc   a
187c: d4 71     mov   $71+x,a
187e: 2f 07     bra   $1887
1880: e4 1b     mov   a,$1b      ;I have no idea quite what 1B does yet.
1882: d0 06     bne   $188a
1884: 3f 88 1c  call  $1c88      ;Note processing (sound duration, pitch, vibrato, volume, etc.)
1887: 3f 03 1b  call  $1b03      ;Hook: Check if next instruction is slide note (F9). If so, process it immediately.
188a: 3d        inc   x          ;Goto next channel
188b: 3d        inc   x
188c: 0b 47     asl   $47
188e: d0 82     bne   $1812      ;Loop if all channels haven't been done yet
1890: e4 54     mov   a,$54      ;Check if speed is changing
1892: f0 0b     beq   $189f
1894: ba 56     movw  ya,$56
1896: 7a 52     addw  ya,$52
1898: 6e 54 02  dbnz  $54,$189d  ;Time left till target spard
189b: ba 54     movw  ya,$54     ;Target speed
189d: da 52     movw  $52,ya     ;Update current speed
189f: e4 68     mov   a,$68      ;Check if echo volume is changing
18a1: f0 15     beq   $18b8
18a3: ba 64     movw  ya,$64
18a5: 7a 60     addw  ya,$60
18a7: da 60     movw  $60,ya     ;Update left echo volume
18a9: ba 66     movw  ya,$66
18ab: 7a 62     addw  ya,$62
18ad: 6e 68 06  dbnz  $68,$18b6  ;Check if timer is 0
18b0: ba 68     movw  ya,$68     ;Clever. Low byte is 0, high byte is target volume.
18b2: da 60     movw  $60,ya     ;Set left echo to target volume
18b4: eb 6a     mov   y,$6a
18b6: da 62     movw  $62,ya     ;Update right echo volume (Set to target volume if timer is 0)
18b8: e4 5a     mov   a,$5a      ;Check if song volume is changing, blah blah blah
18ba: f0 0e     beq   $18ca
18bc: ba 5c     movw  ya,$5c
18be: 7a 58     addw  ya,$58
18c0: 6e 5a 02  dbnz  $5a,$18c4
18c3: ba 5a     movw  ya,$5a
18c5: da 58     movw  $58,ya
18c7: 8f ff 5e  mov   $5e,#$ff
18ca: cd 00     mov   x,#$00
18cc: 8f 01 47  mov   $47,#$01   ;Loop, start on channel 0
18cf: f4 31     mov   a,$31+x    ;Check to see if channel is on
18d1: f0 03     beq   $18d6
18d3: 3f bf 1b  call  $1bbf
18d6: 3d        inc   x
18d7: 3d        inc   x
18d8: 0b 47     asl   $47
18da: d0 f3     bne   $18cf
18dc: 6f        ret

18dd: 1c        asl   a            ;Subroutine 18DD: Run routine depending on data.
18de: fd        mov   y,a          ;Coming in, a = current instruction, #$E0 - #$FE
18df: f6 a3 1a  mov   a,$1aa3+y    
18e2: 2d        push  a
18e3: f6 a2 1a  mov   a,$1aa2+y    ;Get a pointer to code
18e6: 2d        push  a            ;Put it on the stack to return to it
18e7: dd        mov   a,y
18e8: 5c        lsr   a
18e9: fd        mov   y,a          ;Note that y is now #$60 - #$7E
18ea: f6 40 1b  mov   a,$1b40+y    ;Check number of arguments for this routine?
18ed: f0 08     beq   $18f7        ;Skip arguments if this routine does not use arguments?
18ef: e7 30     mov   a,($30+x)    ;Subroutine 18EF: Get next data byte for channel
18f1: bb 30     inc   $30+x        ;Get first argument and point to second?
18f3: d0 02     bne   $18f7
18f5: bb 31     inc   $31+x        ;inc w.$30+x
18f7: fd        mov   y,a
18f8: 6f        ret

18f9: d5 11 02  mov   $0211+x,a    ;Subroutine 18F9?: X contains 2x channel number, a contains the source #. This (sometimes) sets that channel's source #, ADSR1, ADSR2, and gain
18fc: fd        mov   y,a
18fd: 10 06     bpl   $1905
18ff: 80        setc
1900: a8 ca     sbc   a,#$ca
1902: 60        clrc
1903: 84 5f     adc   a,$5f
1905: 8d 06     mov   y,#$06
1907: cf        mul   ya           ;a = a from subroutine call if positive, else a - #$CA + $5F
1908: da 14     movw  $14,ya       ;14 = 6 * a
190a: 60        clrc
190b: 98 00 14  adc   $14,#$00
190e: 98 6c 15  adc   $15,#$6c     ;Offset pointer to $6C00
1911: e4 1a     mov   a,$1a
1913: 24 47     and   a,$47        ;$47 = 2^(current channel #)
1915: d0 3a     bne   $1951        ;Branch (and return) if current channel is currently on, I think.
1917: 4d        push  x
1918: 7d        mov   a,x
1919: 9f        xcn   a        ;Is this 7-4 <-> 3-0, or 7<->3 and 1<->0? Leaning towards the former
191a: 5c        lsr   a
191b: 08 04     or    a,#$04
191d: 5d        mov   x,a      ;Change x to a voice source number
191e: 8d 00     mov   y,#$00
1920: f7 14     mov   a,($14)+y ;If 'source #' is negative, it's a noise instead
1922: 10 0e     bpl   $1932
1924: 28 1f     and   a,#$1f    ;Get frequency of noise (RateTable index)
1926: 38 20 48  and   $48,#$20  ;Clear everything but Echo-Write flag
1929: 0e 48 00  tset1 $0048     ;Set noise frequency
192c: 09 47 49  or    ($49),($47) ;49 = 49 OR 47. Turn on noise for this channel.
192f: dd        mov   a,y       ;a = #$00
1930: 2f 07     bra   $1939
1932: e4 47     mov   a,$47
1934: 4e 49 00  tclr1 $0049     ;Turn off noise for this channel
1937: f7 14     mov   a,($14)+y
1939: c9 f2 00  mov   $00f2,x   ;Copies 4 bytes, Source #, ADSR1, ADSR2, and Gain.
193c: c5 f3 00  mov   $00f3,a   ;Source # is 0 if it's a noise.
193f: 3d        inc   x
1940: fc        inc   y
1941: ad 04     cmp   y,#$04
1943: d0 f2     bne   $1937
1945: ce        pop   x
1946: f7 14     mov   a,($14)+y
1948: d5 21 02  mov   $0221+x,a
194b: fc        inc   y
194c: f7 14     mov   a,($14)+y
194e: d5 20 02  mov   $0220+x,a
1951: 6f        ret

1952: d5 51 03  mov   $0351+x,a  ;Subroutine 1952: ... Not really sure what this does. <_<
1955: 28 1f     and   a,#$1f
1957: d5 31 03  mov   $0331+x,a
195a: e8 00     mov   a,#$00
195c: d5 30 03  mov   $0330+x,a
195f: 6f        ret

1960: d4 91     mov   $91+x,a    ;Subroutine 1960: $0340,x = ($0331,x - argument2) * 100 / argument1. All+$0E if argument2<$0331,x else $0331,x+#$100
1962: 2d        push  a
1963: 3f ef 18  call  $18ef      ;Get next argument
1966: d5 50 03  mov   $0350+x,a
1969: 80        setc
196a: b5 31 03  sbc   a,$0331+x  ;a = argument2 - $0331,x
196d: ce        pop   x          ;x = argument1
196e: 3f 46 1b  call  $1b46      ;ya = a * 100 / x, signed
1971: d5 40 03  mov   $0340+x,a  ;in this case, ya = (arg2 - 0331+x) * 100 / arg1
1974: dd        mov   a,y        ;x being 2*whatever channel number is being worked on
1975: d5 41 03  mov   $0341+x,a
1978: 6f        ret

1979: d5 b0 02  mov   $02b0+x,a  ;Subroutine 1979: $02B0,x=arg1; $02A1,x=arg2; $B1,x=$02C1,x=arg3; $02B1,x=#$00
197c: 3f ef 18  call  $18ef      ;Next argument
197f: d5 a1 02  mov   $02a1+x,a
1982: 3f ef 18  call  $18ef
1985: d4 b1     mov   $b1+x,a    ;Subroutine 1985: $B1,x=$02C1,x=$02B1,x=#$00
1987: d5 c1 02  mov   $02c1+x,a
198a: e8 00     mov   a,#$00
198c: d5 b1 02  mov   $02b1+x,a
198f: 6f        ret

1990: d5 b1 02  mov   $02b1+x,a
1993: 2d        push  a
1994: 8d 00     mov   y,#$00
1996: f4 b1     mov   a,$b1+x
1998: ce        pop   x
1999: 9e        div   ya,x
199a: f8 44     mov   x,$44
199c: d5 c0 02  mov   $02c0+x,a
199f: 6f        ret

19a0: e8 00     mov   a,#$00    ;Subroutine 19A0: w.$58=arg1*100
19a2: da 58     movw  $58,ya
19a4: 6f        ret

19a5: c4 5a     mov   $5a,a     ;Subroutine 19A5: $5A=arg1, $5B=arg2, w.$5C=something with arg2-$59
19a7: 3f ef 18  call  $18ef
19aa: c4 5b     mov   $5b,a
19ac: 80        setc
19ad: a4 59     sbc   a,$59
19af: f8 5a     mov   x,$5a
19b1: 3f 46 1b  call  $1b46     ;ya = a * 100 / x, signed.
19b4: da 5c     movw  $5c,ya
19b6: 6f        ret

19b7: e8 00     mov   a,#$00    ;Subroutine 19B7: w.$52 = arg1*#$100
19b9: da 52     movw  $52,ya
19bb: 6f        ret

19bc: c4 54     mov   $54,a     ;Subroutine 19BC: $54=arg1, $55=arg2, 
19be: 3f ef 18  call  $18ef
19c1: c4 55     mov   $55,a
19c3: 80        setc
19c4: a4 53     sbc   a,$53
19c6: f8 54     mov   x,$54
19c8: 3f 46 1b  call  $1b46     ;ya = a * 100 / x, signed
19cb: da 56     movw  $56,ya
19cd: 6f        ret

19ce: c4 50     mov   $50,a
19d0: 6f        ret

19d1: d5 f0 02  mov   $02f0+x,a
19d4: 6f        ret

19d5: d5 e0 02  mov   $02e0+x,a
19d8: 3f ef 18  call  $18ef
19db: d5 d1 02  mov   $02d1+x,a
19de: 3f ef 18  call  $18ef
19e1: d4 c1     mov   $c1+x,a
19e3: 6f        ret

19e4: e8 01     mov   a,#$01
19e6: 2f 02     bra   $19ea
19e8: e8 00     mov   a,#$00
19ea: d5 90 02  mov   $0290+x,a
19ed: dd        mov   a,y
19ee: d5 81 02  mov   $0281+x,a
19f1: 3f ef 18  call  $18ef
19f4: d5 80 02  mov   $0280+x,a
19f7: 3f ef 18  call  $18ef
19fa: d5 91 02  mov   $0291+x,a
19fd: 6f        ret

19fe: d5 80 02  mov   $0280+x,a
1a01: 6f        ret

1a02: d5 01 03  mov   $0301+x,a
1a05: e8 00     mov   a,#$00
1a07: d5 00 03  mov   $0300+x,a
1a0a: 6f        ret

1a0b: d4 90     mov   $90+x,a
1a0d: 2d        push  a
1a0e: 3f ef 18  call  $18ef
1a11: d5 20 03  mov   $0320+x,a
1a14: 80        setc
1a15: b5 01 03  sbc   a,$0301+x
1a18: ce        pop   x
1a19: 3f 46 1b  call  $1b46     ;ya = (a * 100 / x), signed
1a1c: d5 10 03  mov   $0310+x,a
1a1f: dd        mov   a,y
1a20: d5 11 03  mov   $0311+x,a
1a23: 6f        ret

1a24: d5 81 03  mov   $0381+x,a
1a27: 6f        ret

1a28: d5 40 02  mov   $0240+x,a
1a2b: 3f ef 18  call  $18ef
1a2e: d5 41 02  mov   $0241+x,a
1a31: 3f ef 18  call  $18ef
1a34: d4 80     mov   $80+x,a
1a36: f4 30     mov   a,$30+x
1a38: d5 30 02  mov   $0230+x,a
1a3b: f4 31     mov   a,$31+x
1a3d: d5 31 02  mov   $0231+x,a
1a40: f5 40 02  mov   a,$0240+x
1a43: d4 30     mov   $30+x,a
1a45: f5 41 02  mov   a,$0241+x
1a48: d4 31     mov   $31+x,a
1a4a: 6f        ret

1a4b: c4 4a     mov   $4a,a
1a4d: 3f ef 18  call  $18ef
1a50: e8 00     mov   a,#$00
1a52: da 60     movw  $60,ya
1a54: 3f ef 18  call  $18ef
1a57: e8 00     mov   a,#$00
1a59: da 62     movw  $62,ya
1a5b: b2 48     clr5  $48
1a5d: 6f        ret

1a5e: c4 68     mov   $68,a
1a60: 3f ef 18  call  $18ef
1a63: c4 69     mov   $69,a
1a65: 80        setc
1a66: a4 61     sbc   a,$61
1a68: f8 68     mov   x,$68
1a6a: 3f 46 1b  call  $1b46      ;ya = a * 100 / x, signed
1a6d: da 64     movw  $64,ya     ;$64 = (arg2 - EchoLeft) * 100 / arg1
1a6f: 3f ef 18  call  $18ef
1a72: c4 6a     mov   $6a,a
1a74: 80        setc
1a75: a4 63     sbc   a,$63
1a77: f8 68     mov   x,$68
1a79: 3f 46 1b  call  $1b46
1a7c: da 66     movw  $66,ya     ;$66 = (arg3 - EchoRight) * 100 / arg1
1a7e: 6f        ret

1a7f: da 60     movw  $60,ya
1a81: da 62     movw  $62,ya
1a83: a2 48     set5  $48
1a85: 6f        ret

1a86: 3f ab 1a  call  $1aab      ;Store A to echo delay, update FLG and stuff
1a89: 3f ef 18  call  $18ef      ;next arg
1a8c: c4 4e     mov   $4e,a
1a8e: 3f ef 18  call  $18ef
1a91: c5 b1 04  mov   $04b1,a    ;FIR coefficient option
1a94: 8d 08     mov   y,#$08
1a96: cf        mul   ya
1a97: 5d        mov   x,a
1a98: 8d 0f     mov   y,#$0f     ;FIR coefficient 0
1a9a: f5 32 1e  mov   a,$1e32+x
1a9d: 3f 26 17  call  $1726      ;Store a to FIR coefficient
1aa0: 3d        inc   x
1aa1: dd        mov   a,y
1aa2: 60        clrc
1aa3: 88 10     adc   a,#$10     ;Goto next coefficient
1aa5: fd        mov   y,a
1aa6: 10 f2     bpl   $1a9a
1aa8: f8 44     mov   x,$44
1aaa: 6f        ret

1aab: c4 4d     mov   $4d,a       ;Subroutine 1AAB: Set echo delay to A, if new, clear DSP ($1E52) - ($1E55), update $004C, and store $48 to FLG, with echo buffer update disable. Also move echo buffer address as necessary.
1aad: 8d 7d     mov   y,#$7d
1aaf: cc f2 00  mov   $00f2,y
1ab2: e5 f3 00  mov   a,$00f3     ;Load echo delay (DSP 7D)
1ab5: 64 4d     cmp   a,$4d       ;Compare to A from routine call
1ab7: f0 2b     beq   $1ae4
1ab9: 28 0f     and   a,#$0f
1abb: 48 ff     eor   a,#$ff      ;Invert echo delay
1abd: f3 4c 03  bbc7  $4c,$1ac2   ;Skip 4C if it's positive
1ac0: 60        clrc
1ac1: 84 4c     adc   a,$4c       ;Else add it
1ac3: c4 4c     mov   $4c,a       ;Store to 4C
1ac5: 8d 04     mov   y,#$04
1ac7: f6 51 1e  mov   a,$1e51+y
1aca: c5 f2 00  mov   $00f2,a
1acd: e8 00     mov   a,#$00
1acf: c5 f3 00  mov   $00f3,a
1ad2: fe f3     dbnz  y,$1ac7     ;Clear DSP registers ($1E52) - ($1E55). 2C,3C,0D,4D by default (EchoLeftVol,EchoRightVol,EchoFeedbackVol,EchoEnable)
1ad4: e4 48     mov   a,$48
1ad6: 08 20     or    a,#$20
1ad8: 8d 6c     mov   y,#$6c      ;Store $48 to FLG (DSP 6C) with echo buffer update disabled (#$20)
1ada: 3f 26 17  call  $1726       ;Store A to DSP register (Y)
1add: e4 4d     mov   a,$4d
1adf: 8d 7d     mov   y,#$7d      ;Store A (from routine call) to Echo Delay (DSP 7D)
1ae1: 3f 26 17  call  $1726       ;Store A to DSP register (Y)
1ae4: 1c        asl   a
1ae5: 1c        asl   a
1ae6: 1c        asl   a
1ae7: 48 ff     eor   a,#$ff
1ae9: 80        setc
1aea: 88 15     adc   a,#$15      ;A = - (echo delay * 8) + 15
1aec: 8d 6d     mov   y,#$6d      ;Set Echo buffer hi-address (DSP 6D) to A
1aee: 5f 26 17  jmp   $1726       ;Store A to DSP register (Y)

1af1: c4 5f     mov   $5f,a
1af3: 6f        ret

1af4: 3f f1 18  call  $18f1
1af7: 6f        ret
1af8: bc        inc   a
1af9: d5 00 04  mov   $0400+x,a
1afc: 6f        ret
1afd: bc        inc   a
1afe: c4 1b     mov   $1b,a
1b00: 5f 50 17  jmp   $1750

1b03: f4 a0     mov   a,$a0+x
1b05: d0 33     bne   $1b3a
1b07: e7 30     mov   a,($30+x)
1b09: 68 f9     cmp   a,#$f9
1b0b: d0 2d     bne   $1b3a       ;Goes to 1b3a if note is about to start sliding (and isn't sliding already)
1b0d: 3f f1 18  call  $18f1       ;Skip next song instruction byte?
1b10: 3f ef 18  call  $18ef       ;Then get next byte?
1b13: d4 a1     mov   $a1+x,a     ;And this is the start of the normal f9 code...
1b15: 3f ef 18  call  $18ef
1b18: d4 a0     mov   $a0+x,a
1b1a: 3f ef 18  call  $18ef
1b1d: 60        clrc
1b1e: 84 50     adc   a,$50
1b20: 95 f0 02  adc   a,$02f0+x
1b23: 28 7f     and   a,#$7f
1b25: d5 80 03  mov   $0380+x,a
1b28: 80        setc
1b29: b5 61 03  sbc   a,$0361+x
1b2c: fb a0     mov   y,$a0+x
1b2e: 6d        push  y
1b2f: ce        pop   x
1b30: 3f 46 1b  call  $1b46
1b33: d5 70 03  mov   $0370+x,a
1b36: dd        mov   a,y
1b37: d5 71 03  mov   $0371+x,a
1b3a: 6f        ret

1b3b: f5 61 03  mov   a,$0361+x   ;Subroutine 1B3B: Copy a word from $0360,x to $10
1b3e: c4 11     mov   $11,a
1b40: f5 60 03  mov   a,$0360+x
1b43: c4 10     mov   $10,a
1b45: 6f        ret

1b46: ed        notc              ;Subroutine 1B46: Signed division. ya = a * 100 / x, carry determines sign.
1b47: 6b 12     ror   $12
1b49: 10 03     bpl   $1b4e       ;basically bcs coming into the routine
1b4b: 48 ff     eor   a,#$ff
1b4d: bc        inc   a
1b4e: 8d 00     mov   y,#$00
1b50: 9e        div   ya,x        ;a = a / x, y = a mod x
1b51: 2d        push  a
1b52: e8 00     mov   a,#$00
1b54: 9e        div   ya,x        ;a = (a mod x) * 100 / x
1b55: ee        pop   y           ;y = a / x
1b56: f8 44     mov   x,$44
1b58: f3 12 06  bbc7  $12,$1b61   ;Same bcs. ya = a * 100 / x. Alternatively: Subroutine 1B58: If negative, invert ya
1b5b: da 14     movw  $14,ya
1b5d: ba 0e     movw  ya,$0e
1b5f: 9a 14     subw  ya,$14      ;ya = - (a * 100 / x)
1b61: 6f        ret

1b62:      18f9 1952 1960 1979 1985 19a0 19a5 ;Jump table
1b70: 19b7 19bc 19ce 19d1 19d5 19e1 1a02 1a0b ;Indexed from $1AA2
1b80: 1a28 1990 19e4 19e8 19fe 1a24 1a4b 1a7f ;Valid numbers are #$E0 - #$FE
1b90: 1a86 1a5e 1b13 1af1 1af4 1af8 1afd 1afe

1ba0: 01 01 02 03 00 01 02 01 02 01 01 03 00 01 02 03
1bb0: 01 03 03 00 01 03 00 03 03 03 01 02 00 00 00

;Individual channel processing for one song tic
1bbf: f4 90     mov   a,$90+x     ;Check if volume is changing
1bc1: f0 24     beq   $1be7
1bc3: 09 47 5e  or    ($5e),($47) ;Add this channel to some list? 5E is always FF unless there's a call I'm missing
1bc6: 9b 90     dec   $90+x
1bc8: d0 0a     bne   $1bd4
1bca: e8 00     mov   a,#$00
1bcc: d5 00 03  mov   $0300+x,a   ;Low byte of volume
1bcf: f5 20 03  mov   a,$0320+x   ;Target volume
1bd2: 2f 10     bra   $1be4
1bd4: 60        clrc
1bd5: f5 00 03  mov   a,$0300+x
1bd8: 95 10 03  adc   a,$0310+x
1bdb: d5 00 03  mov   $0300+x,a
1bde: f5 01 03  mov   a,$0301+x
1be1: 95 11 03  adc   a,$0311+x
1be4: d5 01 03  mov   $0301+x,a   ;Update channel volume
1be7: fb c1     mov   y,$c1+x     ;Check volume wavering
1be9: f0 23     beq   $1c0e
1beb: f5 e0 02  mov   a,$02e0+x
1bee: de c0 1b  cbne  $c0+x,$1c0c
1bf1: 09 47 5e  or    ($5e),($47)
1bf4: f5 d0 02  mov   a,$02d0+x
1bf7: 10 07     bpl   $1c00
1bf9: fc        inc   y
1bfa: d0 04     bne   $1c00
1bfc: e8 80     mov   a,#$80
1bfe: 2f 04     bra   $1c04
1c00: 60        clrc
1c01: 95 d1 02  adc   a,$02d1+x
1c04: d5 d0 02  mov   $02d0+x,a
1c07: 3f 00 1e  call  $1e00       ;Get current volume if volume wavering is on
1c0a: 2f 07     bra   $1c13
1c0c: bb c0     inc   $c0+x
1c0e: e8 ff     mov   a,#$ff      ;Get current volume with no volume wavering
1c10: 3f 0b 1e  call  $1e0b
1c13: f4 91     mov   a,$91+x     ;Check panning
1c15: f0 24     beq   $1c3b
1c17: 09 47 5e  or    ($5e),($47)
1c1a: 9b 91     dec   $91+x
1c1c: d0 0a     bne   $1c28
1c1e: e8 00     mov   a,#$00
1c20: d5 30 03  mov   $0330+x,a
1c23: f5 50 03  mov   a,$0350+x
1c26: 2f 10     bra   $1c38
1c28: 60        clrc
1c29: f5 30 03  mov   a,$0330+x
1c2c: 95 40 03  adc   a,$0340+x
1c2f: d5 30 03  mov   $0330+x,a
1c32: f5 31 03  mov   a,$0331+x
1c35: 95 41 03  adc   a,$0341+x
1c38: d5 31 03  mov   $0331+x,a  ;Panning updated
1c3b: e4 47     mov   a,$47
1c3d: 24 5e     and   a,$5e      ;Check if channel volume changed?
1c3f: f0 46     beq   $1c87
1c41: f5 31 03  mov   a,$0331+x
1c44: fd        mov   y,a
1c45: f5 30 03  mov   a,$0330+x
1c48: da 10     movw  $10,ya
1c4a: 7d        mov   a,x        ;Subroutine 1c4a:
1c4b: 9f        xcn   a          ;Pretty sure x is the channel.
1c4c: 5c        lsr   a          ;a = channel * 10
1c4d: c4 12     mov   $12,a
1c4f: eb 11     mov   y,$11      ;High byte of actual panning. At least, in the case I'm looking at it.
1c51: f6 1e 1e  mov   a,$1e1e+y  ;Higher panning volume multiplier
1c54: 80        setc
1c55: b6 1d 1e  sbc   a,$1e1d+y  ;Lower panning volume multiplier
1c58: eb 10     mov   y,$10      ;Low byte of actual panning
1c5a: cf        mul   ya
1c5b: dd        mov   a,y
1c5c: eb 11     mov   y,$11
1c5e: 60        clrc
1c5f: 96 1d 1e  adc   a,$1e1d+y  ;Ahhh, so linear interpolation to get a precise panning volume multiplier
1c62: fd        mov   y,a
1c63: f5 21 03  mov   a,$0321+x  ;Actual volume of channel
1c66: cf        mul   ya
1c67: f5 51 03  mov   a,$0351+x
1c6a: 1c        asl   a
1c6b: 13 12 01  bbc0  $12,$1c6f  ;This is channel * 10 the first time, and channel * 10 + 1 the second time. Don't branch the second time
1c6e: 1c        asl   a
1c6f: dd        mov   a,y
1c70: 90 03     bcc   $1c75      ;Branch if bit 7 of 0351+x is clear (first time) or if bit 6 of 0351+x is clear (second time)
1c72: 48 ff     eor   a,#$ff
1c74: bc        inc   a          ;invert volume if the appropriate bit is set... hmm.
1c75: eb 12     mov   y,$12
1c77: 3f 1e 17  call  $171e      ;Write a to DSP (y) if current channel is off.
1c7a: 8d 14     mov   y,#$14
1c7c: e8 00     mov   a,#$00
1c7e: 9a 10     subw  ya,$10
1c80: da 10     movw  $10,ya     ;$10 = 1400 - $10. Invert panning to do right side next.
1c82: ab 12     inc   $12
1c84: 33 12 c8  bbc1  $12,$1c4f  ;Loop first time to do right volume, return second time
1c87: 6f        ret

1c88: f4 71     mov   a,$71+x    ;Note play length
1c8a: f0 65     beq   $1cf1
1c8c: 9b 71     dec   $71+x
1c8e: f0 05     beq   $1c95
1c90: e8 02     mov   a,#$02
1c92: de 70 5c  cbne  $70+x,$1cf1
1c95: f4 80     mov   a,$80+x    ;Here if note stops playing or next event starts in 2 tics
1c97: c4 17     mov   $17,a
1c99: f4 30     mov   a,$30+x
1c9b: fb 31     mov   y,$31+x
1c9d: da 14     movw  $14,ya
1c9f: 8d 00     mov   y,#$00
1ca1: f7 14     mov   a,($14)+y  ;Check next command
1ca3: f0 1e     beq   $1cc3      ;Branch if it's end loop
1ca5: 30 07     bmi   $1cae      ;Branch if it's not a note duration
1ca7: fc        inc   y
1ca8: 30 40     bmi   $1cea      ;Branch if past 80 bytes?
1caa: f7 14     mov   a,($14)+y  ;Check next next command
1cac: 10 f9     bpl   $1ca7      ;Loop till it's NOT a note duration
1cae: 68 c8     cmp   a,#$c8     ;Check if it's a dummy note (aka, a wait)
1cb0: f0 3f     beq   $1cf1
1cb2: 68 ef     cmp   a,#$ef     ;Check if it's a loop command (JSR-like)
1cb4: f0 29     beq   $1cdf
1cb6: 68 e0     cmp   a,#$e0     ;Check if it's a command at all
1cb8: 90 30     bcc   $1cea      ;Branch if it's not a command
1cba: 6d        push  y
1cbb: fd        mov   y,a
1cbc: ae        pop   a          ;a = bytes till next command
1cbd: 96 c0 1a  adc   a,$1ac0+y  ;Add instruction's argument count. Note carry is set; this also passes the instruction
1cc0: fd        mov   y,a
1cc1: 2f de     bra   $1ca1      ;and loop

1cc3: e4 17     mov   a,$17      ;Found an end loop, check loop counter
1cc5: f0 23     beq   $1cea      ;Branch if this end loop will start next pattern
1cc7: 8b 17     dec   $17
1cc9: d0 0a     bne   $1cd5
1ccb: f5 31 02  mov   a,$0231+x  ;Load return address if last loop
1cce: 2d        push  a
1ccf: f5 30 02  mov   a,$0230+x
1cd2: ee        pop   y
1cd3: 2f c8     bra   $1c9d
1cd5: f5 41 02  mov   a,$0241+x  ;Or loop address
1cd8: 2d        push  a
1cd9: f5 40 02  mov   a,$0240+x
1cdc: ee        pop   y
1cdd: 2f be     bra   $1c9d

1cdf: fc        inc   y          ;Found a start loop
1ce0: f7 14     mov   a,($14)+y
1ce2: 2d        push  a
1ce3: fc        inc   y
1ce4: f7 14     mov   a,($14)+y
1ce6: fd        mov   y,a
1ce7: ae        pop   a
1ce8: 2f b3     bra   $1c9d      ;It enters the loop, but doesn't update the loop counter... also no return address.

1cea: e4 47     mov   a,$47      ;Current channel
1cec: 8d 5c     mov   y,#$5c
1cee: 3f 1e 17  call  $171e      ;Turn key off
1cf1: f2 13     clr7  $13
1cf3: f4 a0     mov   a,$a0+x     ;Check if note is set to slide
1cf5: f0 2c     beq   $1d23
1cf7: f4 a1     mov   a,$a1+x     ;Check if note has started sliding
1cf9: f0 04     beq   $1cff
1cfb: 9b a1     dec   $a1+x
1cfd: 2f 24     bra   $1d23

1cff: e2 13     set7  $13
1d01: 9b a0     dec   $a0+x       ;Decrease slide timer
1d03: d0 0b     bne   $1d10       ;Branch if not done sliding
1d05: f5 81 03  mov   a,$0381+x   ;If done sliding, copy target pitch to current pitch
1d08: d5 60 03  mov   $0360+x,a
1d0b: f5 80 03  mov   a,$0380+x
1d0e: 2f 10     bra   $1d20
1d10: 60        clrc
1d11: f5 60 03  mov   a,$0360+x    ;Slide notes
1d14: 95 70 03  adc   a,$0370+x
1d17: d5 60 03  mov   $0360+x,a
1d1a: f5 61 03  mov   a,$0361+x
1d1d: 95 71 03  adc   a,$0371+x
1d20: d5 61 03  mov   $0361+x,a
1d23: 3f 3b 1b  call  $1b3b        ;Copy pitch of current channel to w.$10
1d26: f4 b1     mov   a,$b1+x      ;Check vibrato multiplier
1d28: f0 4c     beq   $1d76        ;Skip vibrato if multiplier is 0
1d2a: f5 b0 02  mov   a,$02b0+x    ;Tics to wait to start vibrato
1d2d: de b0 44  cbne  $b0+x,$1d74  ;Branch if vibrato hasn't started yet
1d30: f5 00 01  mov   a,$0100+x
1d33: 75 b1 02  cmp   a,$02b1+x
1d36: d0 05     bne   $1d3d
1d38: f5 c1 02  mov   a,$02c1+x
1d3b: 2f 0d     bra   $1d4a
1d3d: 40        setp               ;The only setp in all the code. heh.
1d3e: bb 00     inc   $00+x        ;Inc 0100+x until it = 02B1+x
1d40: 20        clrp
1d41: fd        mov   y,a          ;Check old 0100+x
1d42: f0 02     beq   $1d46
1d44: f4 b1     mov   a,$b1+x      ;If 0100+x != 0, a = 00B1+x
1d46: 60        clrc               ;else a = #$00
1d47: 95 c0 02  adc   a,$02c0+x    ;02C0+x is only set by the F0 song instruction, 0 otherwise
1d4a: d4 b1     mov   $b1+x,a      ;Update vibrato multiplier?
1d4c: f5 a0 02  mov   a,$02a0+x
1d4f: 60        clrc
1d50: 95 a1 02  adc   a,$02a1+x
1d53: d5 a0 02  mov   $02a0+x,a    ;Update vibrato by vibrato rate
1d56: c4 12     mov   $12,a       ;Actual vibrato at this moment
1d58: 1c        asl   a
1d59: 1c        asl   a           ;Get just vibrato percent
1d5a: 90 02     bcc   $1d5e       ;Checks direction, I guess
1d5c: 48 ff     eor   a,#$ff      ;Just get magnitude
1d5e: fd        mov   y,a
1d5f: f4 b1     mov   a,$b1+x     ;Some value for vibrato
1d61: 68 f1     cmp   a,#$f1
1d63: 90 05     bcc   $1d6a
1d65: 28 0f     and   a,#$0f      ;So... 01 - F0 is part of a note, F1 - FF is whole notes. 
1d67: cf        mul   ya          ;Vibrato percent * (b1+x AND #$0F)
1d68: 2f 04     bra   $1d6e
1d6a: cf        mul   ya          ;Vibrato percent * b1+x
1d6b: dd        mov   a,y         ;/100
1d6c: 8d 00     mov   y,#$00
1d6e: 3f eb 1d  call  $1deb       ;Change sign of ya if $12 is negative, add and update w.$10
1d71: 5f 9b 16  jmp   $169b       ;jmp is reached if note is sliding, has vibrato, or both. Finished pitch calc and writes to registers
1d74: bb b0     inc   $b0+x       ;1 tic closer to starting vibrato
1d76: e3 13 f8  bbs7  $13,$1d71   ;If note is sliding, this will branch
1d79: 6f        ret

1d7a: f2 13     clr7  $13
1d7c: f4 c1     mov   a,$c1+x
1d7e: f0 09     beq   $1d89
1d80: f5 e0 02  mov   a,$02e0+x
1d83: de c0 03  cbne  $c0+x,$1d88
1d86: 3f f3 1d  call  $1df3       ;Volume calculation. Result in 0321+x and a
1d89: f5 31 03  mov   a,$0331+x
1d8c: fd        mov   y,a
1d8d: f5 30 03  mov   a,$0330+x   ;Panning
1d90: da 10     movw  $10,ya
1d92: f4 91     mov   a,$91+x     ;Check if panning is moving
1d94: f0 0a     beq   $1da0       ;Skip if not
1d96: f5 41 03  mov   a,$0341+x
1d99: fd        mov   y,a
1d9a: f5 40 03  mov   a,$0340+x   ;Load panning rate
1d9d: 3f d5 1d  call  $1dd5       ;Update actual panning by panning rate * percent of tic
1da0: f3 13 03  bbc7  $13,$1da6   ;If volume doesn't change, skip volume update
1da3: 3f 4a 1c  call  $1c4a       ;Use actual volume and panning to determine and write volumes for left and right
1da6: f2 13     clr7  $13
1da8: 3f 3b 1b  call  $1b3b       ;Copy current cents and note to w.$10
1dab: f4 a0     mov   a,$a0+x     ;See if note is currently sliding
1dad: f0 0e     beq   $1dbd
1daf: f4 a1     mov   a,$a1+x     ;Check if note has started sliding
1db1: d0 0a     bne   $1dbd
1db3: f5 71 03  mov   a,$0371+x
1db6: fd        mov   y,a
1db7: f5 70 03  mov   a,$0370+x   ;Note sliding rate
1dba: 3f d5 1d  call  $1dd5       ;Update actual note by note rate * percent of tic
1dbd: f4 b1     mov   a,$b1+x     ;... check vibrato, I guess.
1dbf: f0 b5     beq   $1d76
1dc1: f5 b0 02  mov   a,$02b0+x   ;Another vibrato check?
1dc4: de b0 af  cbne  $b0+x,$1d76 ;check if vibrato has started yet
1dc7: eb 51     mov   y,$51
1dc9: f5 a1 02  mov   a,$02a1+x   ;Vibrato rate, I guess
1dcc: cf        mul   ya
1dcd: dd        mov   a,y
1dce: 60        clrc
1dcf: 95 a0 02  adc   a,$02a0+x   ;Current vibrato, I guess
1dd2: 5f 56 1d  jmp   $1d56

1dd5: e2 13     set7  $13        ;Multiply rate by percent of tic to add to current value to get actual value for output this moment. Used by panning, looks like others can use it too.
1dd7: cb 12     mov   $12,y
1dd9: 3f 58 1b  call  $1b58      ;Invert ya if negative (basically, absolute value of ya)
1ddc: 6d        push  y
1ddd: eb 51     mov   y,$51      ;% of tic elapsed
1ddf: cf        mul   ya         ;Assumably, rate will never be greater than 100
1de0: cb 14     mov   $14,y      
1de2: 8f 00 15  mov   $15,#$00
1de5: eb 51     mov   y,$51
1de7: ae        pop   a
1de8: cf        mul   ya
1de9: 7a 14     addw  ya,$14     ;Scratch that. Top byte of rate handled here.
1deb: 3f 58 1b  call  $1b58      ;Change sign back to whatever it was before
1dee: 7a 10     addw  ya,$10     ;Actual value is here. Add rate * percent
1df0: da 10     movw  $10,ya     ;and store it back to actual value
1df2: 6f        ret

1df3: e2 13     set7  $13
1df5: eb 51     mov   y,$51       ;Song tic timer
1df7: f5 d1 02  mov   a,$02d1+x
1dfa: cf        mul   ya
1dfb: dd        mov   a,y
1dfc: 60        clrc
1dfd: 95 d0 02  adc   a,$02d0+x
1e00: 1c        asl   a
1e01: 90 02     bcc   $1e05
1e03: 48 ff     eor   a,#$ff
1e05: fb c1     mov   y,$c1+x
1e07: cf        mul   ya
1e08: dd        mov   a,y
1e09: 48 ff     eor   a,#$ff
1e0b: eb 59     mov   y,$59       ;Song Volume
1e0d: cf        mul   ya
1e0e: f5 10 02  mov   a,$0210+x   ;Note volume percent
1e11: cf        mul   ya
1e12: f5 01 03  mov   a,$0301+x   ;Channel volume
1e15: cf        mul   ya
1e16: dd        mov   a,y
1e17: cf        mul   ya          ;Once more just for good measure
1e18: dd        mov   a,y
1e19: d5 21 03  mov   $0321+x,a
1e1c: 6f        ret

1e1d: 00        nop
1e1e: 01        tcall 0
1e1f: 03 07 0d  bbs0  $07,$1e2e
1e22: 15 1e 29  or    a,$291e+x
1e25: 34 42     and   a,$42+x
1e27: 51        tcall 5
1e28: 5e 67 6e  cmp   y,$6e67
1e2b: 73 77 7a  bbc3  $77,$1ea7
1e2e: 7c        ror   a
1e2f: 7d        mov   a,x
1e30: 7e 7f     cmp   y,$7f

1E1D: 00 01 03 07 0D 15 1E 29 34 42 51 5E 67 6E 73 77 7A 7C 7D 7E 7F ; Panning volume multipliers.


1E32: 7F 00 00 00 00 00 00 00 ;FIR coefficients
1E3A: 58 BF DB F0 FE 07 0C 0C
1E42: 0C 21 2B 2B 13 FE F3 F9
1E4A: 34 33 00 D9 E5 01 FC EB

1E52: 2C 3C 0D 4D 6C 4C 5C 3D 2D 5C  ;Target DSP registers
1E5C: 61 63 4E 4A 48 45 0E 49 4B 46  ;Source RAM


1e66: 5f 08 de  jmp   $de08
1e69: 08 65     or    a,#$65
1e6b: 09 f4 09  or    ($09),($f4)
1e6e: 8c 0a 2c  dec   $2c0a
1e71: 0b d6     asl   $d6
1e73: 0b 8b     asl   $8b
1e75: 0c 4a 0d  asl   $0d4a
1e78: 14 0e     or    a,$0e+x
1e7a: ea 0e cd  not1  $19a1,6
1e7d: 0f        brk
1e7e: be        das   a
1e7f: 10 2a     bpl   $1eab
1e81: 56 65 72  eor   a,$7265+y
1e84: 20        clrp
1e85: 53 31 2e  bbc2  $31,$1eb5
1e88: 32 30     clr1  $30
1e8a: 2a

1e8b: e8 aa     mov   a,#$aa       ;Subroutine 1E8B: Get data from cpu. This is just an inefficient form of FFC0. <_<
1e8d: c5 f4 00  mov   $00f4,a
1e90: e8 bb     mov   a,#$bb
1e92: c5 f5 00  mov   $00f5,a
1e95: e5 f4 00  mov   a,$00f4
1e98: 68 cc     cmp   a,#$cc
1e9a: d0 f9     bne   $1e95
1e9c: 2f 20     bra   $1ebe
1e9e: ec f4 00  mov   y,$00f4
1ea1: d0 fb     bne   $1e9e
1ea3: 5e f4 00  cmp   y,$00f4
1ea6: d0 0f     bne   $1eb7
1ea8: e5 f5 00  mov   a,$00f5
1eab: cc f4 00  mov   $00f4,y
1eae: d7 14     mov   ($14)+y,a
1eb0: fc        inc   y
1eb1: d0 f0     bne   $1ea3
1eb3: ab 15     inc   $15
1eb5: 2f ec     bra   $1ea3
1eb7: 10 ea     bpl   $1ea3
1eb9: 5e f4 00  cmp   y,$00f4
1ebc: 10 e5     bpl   $1ea3
1ebe: e5 f6 00  mov   a,$00f6
1ec1: ec f7 00  mov   y,$00f7
1ec4: da 14     movw  $14,ya
1ec6: ec f4 00  mov   y,$00f4
1ec9: e5 f5 00  mov   a,$00f5
1ecc: cc f4 00  mov   $00f4,y
1ecf: d0 cd     bne   $1e9e
1ed1: cd 31     mov   x,#$31
1ed3: c9 f1 00  mov   $00f1,x   ;Clear ports and (re)start timer0
1ed6: 6f        ret

1ed7: e8 00     mov   a,#$00    ;Subroutine 1ED7: Clear $0390 bytes, starting at ($00EE)
1ed9: 8d 00     mov   y,#$00
1edb: d7 ee     mov   ($ee)+y,a
1edd: fc        inc   y
1ede: 5e 90 03  cmp   y,$0390
1ee1: d0 f8     bne   $1edb
1ee3: 6f        ret

1ee4: 5f d1 1f  jmp   $1fd1
1ee7: eb 09     mov   y,$09     ;Subroutine 1EE7: 
1ee9: e4 01     mov   a,$01
1eeb: c4 09     mov   $09,a
1eed: c4 05     mov   $05,a     ;01 --> 05 and 09
1eef: 7e 01     cmp   y,$01
1ef1: d0 06     bne   $1ef9     ;Branch if $F5 is a new value
1ef3: e5 92 03  mov   a,$0392   ;Sometimes set to $05 within this routine. Otherwise #$00
1ef6: d0 ec     bne   $1ee4
1ef8: 6f        ret
1ef9: 68 00     cmp   a,#$00
1efb: f0 f6     beq   $1ef3     ;Branch if $F5 is #$00
1efd: e4 01     mov   a,$01     ;Redundant. <_<
1eff: 68 02     cmp   a,#$02
1f01: f0 09     beq   $1f0c     ;Branch if $F5 is #$02
1f03: 68 01     cmp   a,#$01
1f05: f0 05     beq   $1f0c     ;Branch if $F5 is #$01
1f07: e5 bb 04  mov   a,$04bb
1f0a: d0 e7     bne   $1ef3     ;If $F5 is new, but isn't #$00 - #$02, and $04BB is set, go to 1st $0392 check.
1f0c: e5 92 03  mov   a,$0392
1f0f: f0 11     beq   $1f22     ;Skip the next 6 lines if $0392 isn't set
1f11: e8 00     mov   a,#$00
1f13: c5 b3 03  mov   $03b3,a   ;Clear $03B3
1f16: 3f 32 27  call  $2732
1f19: 3f 75 27  call  $2775
1f1c: 3f b8 27  call  $27b8
1f1f: 3f fb 27  call  $27fb
1f22: e8 00     mov   a,#$00
1f24: c5 e1 03  mov   $03e1,a
1f27: c5 e8 03  mov   $03e8,a
1f2a: c5 ef 03  mov   $03ef,a
1f2d: c5 f6 03  mov   $03f6,a
1f30: e4 05     mov   a,$05
1f32: 9c        dec   a
1f33: 1c        asl   a
1f34: c5 93 03  mov   $0393,a
1f37: e9 93 03  mov   x,$0393
1f3a: f5 ed 2a  mov   a,$2aed+x
1f3d: c4 22     mov   $22,a
1f3f: 3d        inc   x
1f40: f5 ed 2a  mov   a,$2aed+x
1f43: c4 23     mov   $23,a
1f45: e4 05     mov   a,$05
1f47: c5 92 03  mov   $0392,a
1f4a: 3f 75 28  call  $2875
1f4d: 5f 2a 63  jmp   $632a

1f50: 2a 63 2a  or1   c,!($054c,3)
1f53: 63 2a 63  bbs3  $2a,$1fb8
1f56: 2a 63 2a  or1   c,!($054c,3)
1f59: 63 2a 67  bbs3  $2a,$1fc2
1f5c: 2a 6b 2a  or1   c,!($054d,3)
1f5f: 6b 2a     ror   $2a
1f61: 6b 2a     ror   $2a
1f63: 6b 2a     ror   $2a
1f65: 6b 2a     ror   $2a
1f67: 6b 2a     ror   $2a
1f69: 6b 2a     ror   $2a
1f6b: 6b 2a     ror   $2a
1f6d: 6b 2a     ror   $2a
1f6f: 6b 2a     ror   $2a
1f71: 6b 2a     ror   $2a
1f73: 6b 2a     ror   $2a
1f75: 6b 2a     ror   $2a
1f77: 6b 2a     ror   $2a
1f79: 6b 2a     ror   $2a
1f7b: 6b 2a     ror   $2a
1f7d: 6b 2a     ror   $2a
1f7f: 6b 2a     ror   $2a
1f81: 6b 2a     ror   $2a
1f83: 6b 2a     ror   $2a
1f85: 6b 2a     ror   $2a
1f87: 6b 2a     ror   $2a
1f89: 6b 2a     ror   $2a
1f8b: 6b 2a     ror   $2a
1f8d: 6b 2a     ror   $2a
1f8f: 6b 2a     ror   $2a
1f91: 6b 2a     ror   $2a
1f93: 6f        ret
1f94: 2a 73 2a  or1   c,!($054e,3)
1f97: 73 2a 77  bbc3  $2a,$2010
1f9a: 2a 7b 2a  or1   c,!($054f,3)
1f9d: 7b 2a     ror   $2a+x
1f9f: 7b 2a     ror   $2a+x
1fa1: 7b 2a     ror   $2a+x
1fa3: 7f        reti
1fa4: 2a 83 2a  or1   c,!($0550,3)
1fa7: 87 2a     adc   a,($2a+x)
1fa9: 8b 2a     dec   $2a
1fab: 8b 2a     dec   $2a
1fad: 8b 2a     dec   $2a
1faf: 8b 2a     dec   $2a
1fb1: 8f 2a 93  mov   $93,#$2a
1fb4: 2a 97 2a  or1   c,!($0552,7)
1fb7: 9b 2a     dec   $2a+x
1fb9: 9b 2a     dec   $2a+x
1fbb: 9b 2a     dec   $2a+x
1fbd: 9b 2a     dec   $2a+x
1fbf: 9b 2a     dec   $2a+x
1fc1: 9b 2a     dec   $2a+x
1fc3: 9b 2a     dec   $2a+x
1fc5: 9b 2a     dec   $2a+x
1fc7: 9b 2a     dec   $2a+x
1fc9: 9b 2a     dec   $2a+x
1fcb: 9f        xcn   a
1fcc: 2a a3 2a  or1   c,!($0554,3)
1fcf: a7 2a     sbc   a,($2a+x)
1fd1: e8 ff     mov   a,#$ff
1fd3: 65 a4 03  cmp   a,$03a4
1fd6: f0 6c     beq   $2044
1fd8: 3f b2 28  call  $28b2
1fdb: 8d 00     mov   y,#$00
1fdd: f7 22     mov   a,($22)+y
1fdf: c4 2a     mov   $2a,a
1fe1: 3f 57 2a  call  $2a57
1fe4: c4 2b     mov   $2b,a
1fe6: 3f 57 2a  call  $2a57
1fe9: c4 2c     mov   $2c,a
1feb: 3f 57 2a  call  $2a57
1fee: c4 2d     mov   $2d,a
1ff0: 3f 57 2a  call  $2a57
1ff3: c4 2e     mov   $2e,a
1ff5: 3f 57 2a  call  $2a57
1ff8: c4 2f     mov   $2f,a
1ffa: 3f 57 2a  call  $2a57
1ffd: c4 d0     mov   $d0,a
1fff: 3f 57 2a  call  $2a57
2002: c4 d1     mov   $d1,a
2004: e5 af 03  mov   a,$03af
2007: 3f 5b 2a  call  $2a5b
200a: c5 b4 03  mov   $03b4,a
200d: e5 b0 03  mov   a,$03b0
2010: 3f 5b 2a  call  $2a5b
2013: c5 b5 03  mov   $03b5,a
2016: e5 b1 03  mov   a,$03b1
2019: 3f 5b 2a  call  $2a5b
201c: c5 b6 03  mov   $03b6,a
201f: e5 b2 03  mov   a,$03b2
2022: 3f 5b 2a  call  $2a5b
2025: c5 b7 03  mov   $03b7,a
2028: 8d 00     mov   y,#$00
202a: cc 94 03  mov   $0394,y
202d: cc 95 03  mov   $0395,y
2030: cc 96 03  mov   $0396,y
2033: cc 97 03  mov   $0397,y
2036: 8d 01     mov   y,#$01
2038: cc 98 03  mov   $0398,y
203b: cc 99 03  mov   $0399,y
203e: cc 9a 03  mov   $039a,y
2041: cc 9b 03  mov   $039b,y
2044: e8 ff     mov   a,#$ff
2046: 65 9c 03  cmp   a,$039c
2049: d0 03     bne   $204e
204b: 5f fe 21  jmp   $21fe
204e: 8c 98 03  dec   $0398
2051: f0 03     beq   $2056
2053: 5f 97 21  jmp   $2197
2056: e5 e1 03  mov   a,$03e1
2059: f0 02     beq   $205d
205b: 2f 43     bra   $20a0
205d: e8 00     mov   a,#$00
205f: c5 e0 03  mov   $03e0,a
2062: c5 de 03  mov   $03de,a
2065: c5 df 03  mov   $03df,a
2068: e8 ff     mov   a,#$ff
206a: 65 c0 03  cmp   a,$03c0
206d: f0 16     beq   $2085
206f: e5 a6 03  mov   a,$03a6
2072: 04 46     or    a,$46
2074: c4 46     mov   $46,a
2076: e8 02     mov   a,#$02
2078: c5 c1 03  mov   $03c1,a
207b: e8 01     mov   a,#$01
207d: c5 98 03  mov   $0398,a
2080: e8 ff     mov   a,#$ff
2082: c5 c0 03  mov   $03c0,a
2085: 8c c1 03  dec   $03c1
2088: f0 03     beq   $208d
208a: 5f fe 21  jmp   $21fe
208d: e8 00     mov   a,#$00
208f: c5 c0 03  mov   $03c0,a
2092: e5 aa 03  mov   a,$03aa
2095: 24 47     and   a,$47
2097: c4 47     mov   $47,a
2099: e5 aa 03  mov   a,$03aa
209c: 24 49     and   a,$49
209e: c4 49     mov   $49,a
20a0: 3f 4f 28  call  $284f
20a3: 68 fa     cmp   a,#$fa
20a5: d0 00     bne   $20a7
20a7: 68 f9     cmp   a,#$f9
20a9: d0 14     bne   $20bf
20ab: 3f 4f 28  call  $284f
20ae: c5 d0 03  mov   $03d0,a
20b1: 3f 4f 28  call  $284f
20b4: c5 d1 03  mov   $03d1,a
20b7: e8 ff     mov   a,#$ff
20b9: c5 d8 03  mov   $03d8,a
20bc: 5f a0 20  jmp   $20a0
20bf: 68 f5     cmp   a,#$f5
20c1: d0 05     bne   $20c8
20c3: c5 e2 03  mov   $03e2,a
20c6: 2f 09     bra   $20d1
20c8: 68 f8     cmp   a,#$f8
20ca: d0 19     bne   $20e5
20cc: e8 00     mov   a,#$00
20ce: c5 e2 03  mov   $03e2,a
20d1: 3f 4f 28  call  $284f
20d4: c5 de 03  mov   $03de,a
20d7: 3f 4f 28  call  $284f
20da: c5 df 03  mov   $03df,a
20dd: e8 ff     mov   a,#$ff
20df: c5 e0 03  mov   $03e0,a
20e2: 3f 4f 28  call  $284f
20e5: 68 ff     cmp   a,#$ff
20e7: d0 06     bne   $20ef
20e9: 3f 32 27  call  $2732
20ec: 5f fe 21  jmp   $21fe
20ef: 68 fe     cmp   a,#$fe
20f1: d0 0f     bne   $2102
20f3: 3f 4f 28  call  $284f
20f6: c5 c8 03  mov   $03c8,a
20f9: e5 94 03  mov   a,$0394
20fc: c5 cc 03  mov   $03cc,a
20ff: 3f 4f 28  call  $284f
2102: 68 fd     cmp   a,#$fd
2104: d0 11     bne   $2117
2106: 8c c8 03  dec   $03c8
2109: d0 03     bne   $210e
210b: 5f a0 20  jmp   $20a0
210e: e5 cc 03  mov   a,$03cc
2111: c5 94 03  mov   $0394,a
2114: 3f 4f 28  call  $284f
2117: 68 fb     cmp   a,#$fb
2119: d0 03     bne   $211e
211b: 5f 0e 21  jmp   $210e
211e: 68 fc     cmp   a,#$fc
2120: d0 0a     bne   $212c
2122: e5 a6 03  mov   a,$03a6
2125: 04 49     or    a,$49
2127: c4 49     mov   $49,a
2129: 5f a0 20  jmp   $20a0
212c: e9 af 03  mov   x,$03af
212f: 3f fc 18  call  $18fc
2132: 3f 4f 28  call  $284f
2135: e9 af 03  mov   x,$03af
2138: d5 21 03  mov   $0321+x,a
213b: e8 00     mov   a,#$00
213d: d5 51 03  mov   $0351+x,a
2140: 3f 4f 28  call  $284f
2143: c4 11     mov   $11,a
2145: 8f 00 10  mov   $10,#$00
2148: 3f 4a 1c  call  $1c4a
214b: 3f 4f 28  call  $284f
214e: 68 f6     cmp   a,#$f6
2150: f0 08     beq   $215a
2152: c5 dc 03  mov   $03dc,a
2155: e8 00     mov   a,#$00
2157: c5 dd 03  mov   $03dd,a
215a: ec dc 03  mov   y,$03dc
215d: e5 dd 03  mov   a,$03dd
2160: da 10     movw  $10,ya
2162: e9 af 03  mov   x,$03af
2165: 3f b1 16  call  $16b1
2168: 3f 4f 28  call  $284f
216b: c5 98 03  mov   $0398,a
216e: e5 d8 03  mov   a,$03d8
2171: f0 18     beq   $218b
2173: e5 b4 03  mov   a,$03b4
2176: 08 05     or    a,#$05
2178: fd        mov   y,a
2179: e5 d0 03  mov   a,$03d0
217c: 3f 26 17  call  $1726
217f: e5 b4 03  mov   a,$03b4
2182: 08 06     or    a,#$06
2184: fd        mov   y,a
2185: e5 d1 03  mov   a,$03d1
2188: 3f 26 17  call  $1726
218b: e5 e1 03  mov   a,$03e1
218e: d0 07     bne   $2197
2190: e5 a6 03  mov   a,$03a6
2193: 04 45     or    a,$45
2195: c4 45     mov   $45,a
2197: e5 e0 03  mov   a,$03e0
219a: 68 ff     cmp   a,#$ff
219c: d0 60     bne   $21fe
219e: e5 e2 03  mov   a,$03e2
21a1: f0 05     beq   $21a8
21a3: e8 ff     mov   a,#$ff
21a5: c5 e1 03  mov   $03e1,a
21a8: e5 dc 03  mov   a,$03dc
21ab: 65 df 03  cmp   a,$03df
21ae: 90 21     bcc   $21d1
21b0: e5 dd 03  mov   a,$03dd
21b3: 80        setc
21b4: a5 de 03  sbc   a,$03de
21b7: c5 dd 03  mov   $03dd,a
21ba: b0 34     bcs   $21f0
21bc: 8c dc 03  dec   $03dc
21bf: e5 df 03  mov   a,$03df
21c2: 65 dc 03  cmp   a,$03dc
21c5: d0 29     bne   $21f0
21c7: e8 00     mov   a,#$00
21c9: c5 e0 03  mov   $03e0,a
21cc: c5 e1 03  mov   $03e1,a
21cf: 2f 1f     bra   $21f0
21d1: e5 de 03  mov   a,$03de
21d4: 60        clrc
21d5: 85 dd 03  adc   a,$03dd
21d8: c5 dd 03  mov   $03dd,a
21db: 90 13     bcc   $21f0
21dd: ac dc 03  inc   $03dc
21e0: e5 df 03  mov   a,$03df
21e3: 65 dc 03  cmp   a,$03dc
21e6: d0 08     bne   $21f0
21e8: e8 00     mov   a,#$00
21ea: c5 e0 03  mov   $03e0,a
21ed: c5 e1 03  mov   $03e1,a
21f0: e5 dd 03  mov   a,$03dd
21f3: ec dc 03  mov   y,$03dc
21f6: da 10     movw  $10,ya
21f8: e9 af 03  mov   x,$03af
21fb: 3f b1 16  call  $16b1
21fe: e8 ff     mov   a,#$ff
2200: 65 9d 03  cmp   a,$039d
2203: d0 03     bne   $2208
2205: 5f ba 23  jmp   $23ba
2208: 8c 99 03  dec   $0399
220b: f0 03     beq   $2210
220d: 5f 4d 23  jmp   $234d
2210: e5 e8 03  mov   a,$03e8
2213: f0 02     beq   $2217
2215: 2f 43     bra   $225a
2217: e8 00     mov   a,#$00
2219: c5 e7 03  mov   $03e7,a
221c: c5 e5 03  mov   $03e5,a
221f: c5 e6 03  mov   $03e6,a
2222: e8 ff     mov   a,#$ff
2224: 65 c2 03  cmp   a,$03c2
2227: f0 16     beq   $223f
2229: e5 a7 03  mov   a,$03a7
222c: 04 46     or    a,$46
222e: c4 46     mov   $46,a
2230: e8 02     mov   a,#$02
2232: c5 c3 03  mov   $03c3,a
2235: e8 01     mov   a,#$01
2237: c5 99 03  mov   $0399,a
223a: e8 ff     mov   a,#$ff
223c: c5 c2 03  mov   $03c2,a
223f: 8c c3 03  dec   $03c3
2242: f0 03     beq   $2247
2244: 5f ba 23  jmp   $23ba
2247: e8 00     mov   a,#$00
2249: c5 c2 03  mov   $03c2,a
224c: e5 ab 03  mov   a,$03ab
224f: 24 47     and   a,$47
2251: c4 47     mov   $47,a
2253: e5 ab 03  mov   a,$03ab
2256: 24 49     and   a,$49
2258: c4 49     mov   $49,a
225a: 3f 58 28  call  $2858
225d: 68 f9     cmp   a,#$f9
225f: d0 14     bne   $2275
2261: 3f 58 28  call  $2858
2264: c5 d2 03  mov   $03d2,a
2267: 3f 58 28  call  $2858
226a: c5 d3 03  mov   $03d3,a
226d: e8 ff     mov   a,#$ff
226f: c5 d9 03  mov   $03d9,a
2272: 5f 5a 22  jmp   $225a
2275: 68 f5     cmp   a,#$f5
2277: d0 05     bne   $227e
2279: c5 e9 03  mov   $03e9,a
227c: 2f 09     bra   $2287
227e: 68 f8     cmp   a,#$f8
2280: d0 19     bne   $229b
2282: e8 00     mov   a,#$00
2284: c5 e9 03  mov   $03e9,a
2287: 3f 58 28  call  $2858
228a: c5 e5 03  mov   $03e5,a
228d: 3f 58 28  call  $2858
2290: c5 e6 03  mov   $03e6,a
2293: e8 ff     mov   a,#$ff
2295: c5 e7 03  mov   $03e7,a
2298: 3f 58 28  call  $2858
229b: 68 ff     cmp   a,#$ff
229d: d0 06     bne   $22a5
229f: 3f 75 27  call  $2775
22a2: 5f ba 23  jmp   $23ba
22a5: 68 fe     cmp   a,#$fe
22a7: d0 0f     bne   $22b8
22a9: 3f 58 28  call  $2858
22ac: c5 c9 03  mov   $03c9,a
22af: e5 95 03  mov   a,$0395
22b2: c5 cd 03  mov   $03cd,a
22b5: 3f 58 28  call  $2858
22b8: 68 fd     cmp   a,#$fd
22ba: d0 11     bne   $22cd
22bc: 8c c9 03  dec   $03c9
22bf: d0 03     bne   $22c4
22c1: 5f 5a 22  jmp   $225a
22c4: e5 cd 03  mov   a,$03cd
22c7: c5 95 03  mov   $0395,a
22ca: 3f 58 28  call  $2858
22cd: 68 fb     cmp   a,#$fb
22cf: d0 03     bne   $22d4
22d1: 5f c4 22  jmp   $22c4
22d4: 68 fc     cmp   a,#$fc
22d6: d0 0a     bne   $22e2
22d8: e5 a7 03  mov   a,$03a7
22db: 04 49     or    a,$49
22dd: c4 49     mov   $49,a
22df: 5f 5a 22  jmp   $225a
22e2: e9 b0 03  mov   x,$03b0
22e5: 3f fc 18  call  $18fc
22e8: 3f 58 28  call  $2858
22eb: e9 b0 03  mov   x,$03b0
22ee: d5 21 03  mov   $0321+x,a
22f1: e8 00     mov   a,#$00
22f3: d5 51 03  mov   $0351+x,a
22f6: 3f 58 28  call  $2858
22f9: c4 11     mov   $11,a
22fb: 8f 00 10  mov   $10,#$00
22fe: 3f 4a 1c  call  $1c4a
2301: 3f 58 28  call  $2858
2304: 68 f6     cmp   a,#$f6
2306: f0 08     beq   $2310
2308: c5 e3 03  mov   $03e3,a
230b: e8 00     mov   a,#$00
230d: c5 e4 03  mov   $03e4,a
2310: ec e3 03  mov   y,$03e3
2313: e5 e4 03  mov   a,$03e4
2316: da 10     movw  $10,ya
2318: e9 b0 03  mov   x,$03b0
231b: 3f b1 16  call  $16b1
231e: 3f 58 28  call  $2858
2321: c5 99 03  mov   $0399,a
2324: e5 d9 03  mov   a,$03d9
2327: f0 18     beq   $2341
2329: e5 b5 03  mov   a,$03b5
232c: 08 05     or    a,#$05
232e: fd        mov   y,a
232f: e5 d2 03  mov   a,$03d2
2332: 3f 26 17  call  $1726
2335: e5 b5 03  mov   a,$03b5
2338: 08 06     or    a,#$06
233a: fd        mov   y,a
233b: e5 d3 03  mov   a,$03d3
233e: 3f 26 17  call  $1726
2341: e5 e8 03  mov   a,$03e8
2344: d0 07     bne   $234d
2346: e5 a7 03  mov   a,$03a7
2349: 04 45     or    a,$45
234b: c4 45     mov   $45,a
234d: 00        nop
234e: 00        nop
234f: 00        nop
2350: 00        nop
2351: 00        nop
2352: 00        nop
2353: e5 e7 03  mov   a,$03e7
2356: 68 ff     cmp   a,#$ff
2358: d0 60     bne   $23ba
235a: e5 e9 03  mov   a,$03e9
235d: f0 05     beq   $2364
235f: e8 ff     mov   a,#$ff
2361: c5 e8 03  mov   $03e8,a
2364: e5 e3 03  mov   a,$03e3
2367: 65 e6 03  cmp   a,$03e6
236a: 90 21     bcc   $238d
236c: e5 e4 03  mov   a,$03e4
236f: 80        setc
2370: a5 e5 03  sbc   a,$03e5
2373: c5 e4 03  mov   $03e4,a
2376: b0 34     bcs   $23ac
2378: 8c e3 03  dec   $03e3
237b: e5 e6 03  mov   a,$03e6
237e: 65 e3 03  cmp   a,$03e3
2381: d0 29     bne   $23ac
2383: e8 00     mov   a,#$00
2385: c5 e7 03  mov   $03e7,a
2388: c5 e8 03  mov   $03e8,a
238b: 2f 1f     bra   $23ac
238d: e5 e5 03  mov   a,$03e5
2390: 60        clrc
2391: 85 e4 03  adc   a,$03e4
2394: c5 e4 03  mov   $03e4,a
2397: 90 13     bcc   $23ac
2399: ac e3 03  inc   $03e3
239c: e5 e6 03  mov   a,$03e6
239f: 65 e3 03  cmp   a,$03e3
23a2: d0 08     bne   $23ac
23a4: e8 00     mov   a,#$00
23a6: c5 e7 03  mov   $03e7,a
23a9: c5 e8 03  mov   $03e8,a
23ac: e5 e4 03  mov   a,$03e4
23af: ec e3 03  mov   y,$03e3
23b2: da 10     movw  $10,ya
23b4: e9 b0 03  mov   x,$03b0
23b7: 3f b1 16  call  $16b1
23ba: e8 ff     mov   a,#$ff
23bc: 65 9e 03  cmp   a,$039e
23bf: d0 03     bne   $23c4
23c1: 5f 76 25  jmp   $2576
23c4: 8c 9a 03  dec   $039a
23c7: f0 03     beq   $23cc
23c9: 5f 09 25  jmp   $2509
23cc: e5 ef 03  mov   a,$03ef
23cf: f0 02     beq   $23d3
23d1: 2f 43     bra   $2416
23d3: e8 00     mov   a,#$00
23d5: c5 ee 03  mov   $03ee,a
23d8: c5 ec 03  mov   $03ec,a
23db: c5 ed 03  mov   $03ed,a
23de: e8 ff     mov   a,#$ff
23e0: 65 c4 03  cmp   a,$03c4
23e3: f0 16     beq   $23fb
23e5: e5 a8 03  mov   a,$03a8
23e8: 04 46     or    a,$46
23ea: c4 46     mov   $46,a
23ec: e8 02     mov   a,#$02
23ee: c5 c5 03  mov   $03c5,a
23f1: e8 01     mov   a,#$01
23f3: c5 9a 03  mov   $039a,a
23f6: e8 ff     mov   a,#$ff
23f8: c5 c4 03  mov   $03c4,a
23fb: 8c c5 03  dec   $03c5
23fe: f0 03     beq   $2403
2400: 5f 76 25  jmp   $2576
2403: e8 00     mov   a,#$00
2405: c5 c4 03  mov   $03c4,a
2408: e5 ac 03  mov   a,$03ac
240b: 24 47     and   a,$47
240d: c4 47     mov   $47,a
240f: e5 ac 03  mov   a,$03ac
2412: 24 49     and   a,$49
2414: c4 49     mov   $49,a
2416: 3f 61 28  call  $2861
2419: 68 f9     cmp   a,#$f9
241b: d0 14     bne   $2431
241d: 3f 61 28  call  $2861
2420: c5 d4 03  mov   $03d4,a
2423: 3f 61 28  call  $2861
2426: c5 d5 03  mov   $03d5,a
2429: e8 ff     mov   a,#$ff
242b: c5 da 03  mov   $03da,a
242e: 5f 16 24  jmp   $2416
2431: 68 f5     cmp   a,#$f5
2433: d0 05     bne   $243a
2435: c5 f0 03  mov   $03f0,a
2438: 2f 09     bra   $2443
243a: 68 f8     cmp   a,#$f8
243c: d0 19     bne   $2457
243e: e8 00     mov   a,#$00
2440: c5 f0 03  mov   $03f0,a
2443: 3f 61 28  call  $2861
2446: c5 ec 03  mov   $03ec,a
2449: 3f 61 28  call  $2861
244c: c5 ed 03  mov   $03ed,a
244f: e8 ff     mov   a,#$ff
2451: c5 ee 03  mov   $03ee,a
2454: 3f 61 28  call  $2861
2457: 68 ff     cmp   a,#$ff
2459: d0 06     bne   $2461
245b: 3f b8 27  call  $27b8
245e: 5f 76 25  jmp   $2576
2461: 68 fe     cmp   a,#$fe
2463: d0 0f     bne   $2474
2465: 3f 61 28  call  $2861
2468: c5 ca 03  mov   $03ca,a
246b: e5 96 03  mov   a,$0396
246e: c5 ce 03  mov   $03ce,a
2471: 3f 61 28  call  $2861
2474: 68 fd     cmp   a,#$fd
2476: d0 11     bne   $2489
2478: 8c ca 03  dec   $03ca
247b: d0 03     bne   $2480
247d: 5f 16 24  jmp   $2416
2480: e5 ce 03  mov   a,$03ce
2483: c5 96 03  mov   $0396,a
2486: 3f 61 28  call  $2861
2489: 68 fb     cmp   a,#$fb
248b: d0 03     bne   $2490
248d: 5f 80 24  jmp   $2480
2490: 68 fc     cmp   a,#$fc
2492: d0 0a     bne   $249e
2494: e5 a8 03  mov   a,$03a8
2497: 04 49     or    a,$49
2499: c4 49     mov   $49,a
249b: 5f 16 24  jmp   $2416
249e: e9 b1 03  mov   x,$03b1
24a1: 3f fc 18  call  $18fc
24a4: 3f 61 28  call  $2861
24a7: e9 b1 03  mov   x,$03b1
24aa: d5 21 03  mov   $0321+x,a
24ad: e8 00     mov   a,#$00
24af: d5 51 03  mov   $0351+x,a
24b2: 3f 61 28  call  $2861
24b5: c4 11     mov   $11,a
24b7: 8f 00 10  mov   $10,#$00
24ba: 3f 4a 1c  call  $1c4a
24bd: 3f 61 28  call  $2861
24c0: 68 f6     cmp   a,#$f6
24c2: f0 08     beq   $24cc
24c4: c5 ea 03  mov   $03ea,a
24c7: e8 00     mov   a,#$00
24c9: c5 eb 03  mov   $03eb,a
24cc: ec ea 03  mov   y,$03ea
24cf: e5 eb 03  mov   a,$03eb
24d2: da 10     movw  $10,ya
24d4: e9 b1 03  mov   x,$03b1
24d7: 3f b1 16  call  $16b1
24da: 3f 61 28  call  $2861
24dd: c5 9a 03  mov   $039a,a
24e0: e5 da 03  mov   a,$03da
24e3: f0 18     beq   $24fd
24e5: e5 b6 03  mov   a,$03b6
24e8: 08 05     or    a,#$05
24ea: fd        mov   y,a
24eb: e5 d4 03  mov   a,$03d4
24ee: 3f 26 17  call  $1726
24f1: e5 b6 03  mov   a,$03b6
24f4: 08 06     or    a,#$06
24f6: fd        mov   y,a
24f7: e5 d5 03  mov   a,$03d5
24fa: 3f 26 17  call  $1726
24fd: e5 ef 03  mov   a,$03ef
2500: d0 07     bne   $2509
2502: e5 a8 03  mov   a,$03a8
2505: 04 45     or    a,$45
2507: c4 45     mov   $45,a
2509: 00        nop
250a: 00        nop
250b: 00        nop
250c: 00        nop
250d: 00        nop
250e: 00        nop
250f: e5 ee 03  mov   a,$03ee
2512: 68 ff     cmp   a,#$ff
2514: d0 60     bne   $2576
2516: e5 f0 03  mov   a,$03f0
2519: f0 05     beq   $2520
251b: e8 ff     mov   a,#$ff
251d: c5 ef 03  mov   $03ef,a
2520: e5 ea 03  mov   a,$03ea
2523: 65 ed 03  cmp   a,$03ed
2526: 90 21     bcc   $2549
2528: e5 eb 03  mov   a,$03eb
252b: 80        setc
252c: a5 ec 03  sbc   a,$03ec
252f: c5 eb 03  mov   $03eb,a
2532: b0 34     bcs   $2568
2534: 8c ea 03  dec   $03ea
2537: e5 ed 03  mov   a,$03ed
253a: 65 ea 03  cmp   a,$03ea
253d: d0 29     bne   $2568
253f: e8 00     mov   a,#$00
2541: c5 ee 03  mov   $03ee,a
2544: c5 ef 03  mov   $03ef,a
2547: 2f 1f     bra   $2568
2549: e5 ec 03  mov   a,$03ec
254c: 60        clrc
254d: 85 eb 03  adc   a,$03eb
2550: c5 eb 03  mov   $03eb,a
2553: 90 13     bcc   $2568
2555: ac ea 03  inc   $03ea
2558: e5 ed 03  mov   a,$03ed
255b: 65 ea 03  cmp   a,$03ea
255e: d0 08     bne   $2568
2560: e8 00     mov   a,#$00
2562: c5 ee 03  mov   $03ee,a
2565: c5 ef 03  mov   $03ef,a
2568: e5 eb 03  mov   a,$03eb
256b: ec ea 03  mov   y,$03ea
256e: da 10     movw  $10,ya
2570: e9 b1 03  mov   x,$03b1
2573: 3f b1 16  call  $16b1
2576: e8 ff     mov   a,#$ff
2578: 65 9f 03  cmp   a,$039f
257b: d0 03     bne   $2580
257d: 5f 31 27  jmp   $2731
2580: 8c 9b 03  dec   $039b
2583: f0 03     beq   $2588
2585: 5f c5 26  jmp   $26c5
2588: e5 f6 03  mov   a,$03f6
258b: f0 02     beq   $258f
258d: 2f 43     bra   $25d2
258f: e8 00     mov   a,#$00
2591: c5 f5 03  mov   $03f5,a
2594: c5 f3 03  mov   $03f3,a
2597: c5 f4 03  mov   $03f4,a
259a: e8 ff     mov   a,#$ff
259c: 65 c6 03  cmp   a,$03c6
259f: f0 16     beq   $25b7
25a1: e5 a9 03  mov   a,$03a9
25a4: 04 46     or    a,$46
25a6: c4 46     mov   $46,a
25a8: e8 02     mov   a,#$02
25aa: c5 c7 03  mov   $03c7,a
25ad: e8 01     mov   a,#$01
25af: c5 9b 03  mov   $039b,a
25b2: e8 ff     mov   a,#$ff
25b4: c5 c6 03  mov   $03c6,a
25b7: 8c c7 03  dec   $03c7
25ba: f0 03     beq   $25bf
25bc: 5f 31 27  jmp   $2731
25bf: e8 00     mov   a,#$00
25c1: c5 c6 03  mov   $03c6,a
25c4: e5 ad 03  mov   a,$03ad
25c7: 24 47     and   a,$47
25c9: c4 47     mov   $47,a
25cb: e5 ad 03  mov   a,$03ad
25ce: 24 49     and   a,$49
25d0: c4 49     mov   $49,a
25d2: 3f 6a 28  call  $286a
25d5: 68 f9     cmp   a,#$f9
25d7: d0 14     bne   $25ed
25d9: 3f 6a 28  call  $286a
25dc: c5 d6 03  mov   $03d6,a
25df: 3f 6a 28  call  $286a
25e2: c5 d7 03  mov   $03d7,a
25e5: e8 ff     mov   a,#$ff
25e7: c5 db 03  mov   $03db,a
25ea: 5f d2 25  jmp   $25d2
25ed: 68 f5     cmp   a,#$f5
25ef: d0 05     bne   $25f6
25f1: c5 f7 03  mov   $03f7,a
25f4: 2f 09     bra   $25ff
25f6: 68 f8     cmp   a,#$f8
25f8: d0 19     bne   $2613
25fa: e8 00     mov   a,#$00
25fc: c5 f7 03  mov   $03f7,a
25ff: 3f 6a 28  call  $286a
2602: c5 f3 03  mov   $03f3,a
2605: 3f 6a 28  call  $286a
2608: c5 f4 03  mov   $03f4,a
260b: e8 ff     mov   a,#$ff
260d: c5 f5 03  mov   $03f5,a
2610: 3f 6a 28  call  $286a
2613: 68 ff     cmp   a,#$ff
2615: d0 06     bne   $261d
2617: 3f fb 27  call  $27fb
261a: 5f 31 27  jmp   $2731
261d: 68 fe     cmp   a,#$fe
261f: d0 0f     bne   $2630
2621: 3f 6a 28  call  $286a
2624: c5 cb 03  mov   $03cb,a
2627: e5 97 03  mov   a,$0397
262a: c5 cf 03  mov   $03cf,a
262d: 3f 6a 28  call  $286a
2630: 68 fd     cmp   a,#$fd
2632: d0 11     bne   $2645
2634: 8c cb 03  dec   $03cb
2637: d0 03     bne   $263c
2639: 5f d2 25  jmp   $25d2
263c: e5 cf 03  mov   a,$03cf
263f: c5 97 03  mov   $0397,a
2642: 3f 6a 28  call  $286a
2645: 68 fb     cmp   a,#$fb
2647: d0 03     bne   $264c
2649: 5f 3c 26  jmp   $263c
264c: 68 fc     cmp   a,#$fc
264e: d0 0a     bne   $265a
2650: e5 a9 03  mov   a,$03a9
2653: 04 49     or    a,$49
2655: c4 49     mov   $49,a
2657: 5f d2 25  jmp   $25d2
265a: e9 b2 03  mov   x,$03b2
265d: 3f fc 18  call  $18fc
2660: 3f 6a 28  call  $286a
2663: e9 b2 03  mov   x,$03b2
2666: d5 21 03  mov   $0321+x,a
2669: e8 00     mov   a,#$00
266b: d5 51 03  mov   $0351+x,a
266e: 3f 6a 28  call  $286a
2671: c4 11     mov   $11,a
2673: 8f 00 10  mov   $10,#$00
2676: 3f 4a 1c  call  $1c4a
2679: 3f 6a 28  call  $286a
267c: 68 f6     cmp   a,#$f6
267e: f0 08     beq   $2688
2680: c5 f1 03  mov   $03f1,a
2683: e8 00     mov   a,#$00
2685: c5 f2 03  mov   $03f2,a
2688: ec f1 03  mov   y,$03f1
268b: e5 f2 03  mov   a,$03f2
268e: da 10     movw  $10,ya
2690: e9 b2 03  mov   x,$03b2
2693: 3f b1 16  call  $16b1
2696: 3f 6a 28  call  $286a
2699: c5 9b 03  mov   $039b,a
269c: e5 db 03  mov   a,$03db
269f: f0 18     beq   $26b9
26a1: e5 b7 03  mov   a,$03b7
26a4: 08 05     or    a,#$05
26a6: fd        mov   y,a
26a7: e5 d6 03  mov   a,$03d6
26aa: 3f 26 17  call  $1726
26ad: e5 b7 03  mov   a,$03b7
26b0: 08 06     or    a,#$06
26b2: fd        mov   y,a
26b3: e5 d7 03  mov   a,$03d7
26b6: 3f 26 17  call  $1726
26b9: e5 f6 03  mov   a,$03f6
26bc: d0 07     bne   $26c5
26be: e5 a9 03  mov   a,$03a9
26c1: 04 45     or    a,$45
26c3: c4 45     mov   $45,a
26c5: 00        nop
26c6: 00        nop
26c7: 00        nop
26c8: 00        nop
26c9: 00        nop
26ca: e5 f5 03  mov   a,$03f5
26cd: 68 ff     cmp   a,#$ff
26cf: d0 60     bne   $2731
26d1: e5 f7 03  mov   a,$03f7
26d4: f0 05     beq   $26db
26d6: e8 ff     mov   a,#$ff
26d8: c5 f6 03  mov   $03f6,a
26db: e5 f1 03  mov   a,$03f1
26de: 65 f4 03  cmp   a,$03f4
26e1: 90 21     bcc   $2704
26e3: e5 f2 03  mov   a,$03f2
26e6: 80        setc
26e7: a5 f3 03  sbc   a,$03f3
26ea: c5 f2 03  mov   $03f2,a
26ed: b0 34     bc   $2723
26ef: 8c f1 03  dec   $03f1
26f2: e5 f4 03  mov   a,$03f4
26f5: 65 f1 03  cmp   a,$03f1
26f8: d0 29     bne   $2723
26fa: e8 00     mov   a,#$00
26fc: c5 f5 03  mov   $03f5,a
26ff: c5 f6 03  mov   $03f6,a
2702: 2f 1f     bra   $2723
2704: e5 f3 03  mov   a,$03f3
2707: 60        clrc
2708: 85 f2 03  adc   a,$03f2
270b: c5 f2 03  mov   $03f2,a
270e: 90 13     bcc   $2723
2710: ac f1 03  inc   $03f1
2713: e5 f4 03  mov   a,$03f4
2716: 65 f1 03  cmp   a,$03f1
2719: d0 08     bne   $2723
271b: e8 00     mov   a,#$00
271d: c5 f5 03  mov   $03f5,a
2720: c5 f6 03  mov   $03f6,a
2723: e5 f2 03  mov   a,$03f2
2726: ec f1 03  mov   y,$03f1
2729: da 10     movw  $10,ya
272b: e9 b2 03  mov   x,$03b2
272e: 3f b1 16  call  $16b1
2731: 6f        ret

2732: e8 ff     mov   a,#$ff        ;Subroutine 2732: Set $039C to #$FF, Clear $03D8
2734: c5 9c 03  mov   $039c,a
2737: e8 00     mov   a,#$00
2739: c5 d8 03  mov   $03d8,a
273c: e5 b3 03  mov   a,$03b3
273f: 25 aa 03  and   a,$03aa
2742: c5 b3 03  mov   $03b3,a
2745: e4 1a     mov   a,$1a
2747: 25 aa 03  and   a,$03aa
274a: c4 1a     mov   $1a,a
274c: e4 47     mov   a,$47
274e: 05 a6 03  or    a,$03a6
2751: c4 47     mov   $47,a
2753: e4 46     mov   a,$46
2755: 05 a6 03  or    a,$03a6
2758: c4 46     mov   $46,a
275a: e9 af 03  mov   x,$03af
275d: f5 11 02  mov   a,$0211+x
2760: 3f fc 18  call  $18fc
2763: e9 af 03  mov   x,$03af
2766: e5 b8 03  mov   a,$03b8
2769: d5 21 03  mov   $0321+x,a
276c: e5 b9 03  mov   a,$03b9
276f: d5 51 03  mov   $0351+x,a
2772: 5f 3e 28  jmp   $283e          ;If $03B3 is cleared, clear $0392, $04BB, and $03A4.

2775: e8 ff     mov   a,#$ff
2777: c5 9d 03  mov   $039d,a
277a: e8 00     mov   a,#$00
277c: c5 d9 03  mov   $03d9,a
277f: e5 b3 03  mov   a,$03b3
2782: 25 ab 03  and   a,$03ab
2785: c5 b3 03  mov   $03b3,a
2788: e4 1a     mov   a,$1a
278a: 25 ab 03  and   a,$03ab
278d: c4 1a     mov   $1a,a
278f: e4 47     mov   a,$47
2791: 05 a7 03  or    a,$03a7
2794: c4 47     mov   $47,a
2796: e4 46     mov   a,$46
2798: 05 a7 03  or    a,$03a7
279b: c4 46     mov   $46,a
279d: e9 b0 03  mov   x,$03b0
27a0: f5 11 02  mov   a,$0211+x
27a3: 3f fc 18  call  $18fc
27a6: e9 b0 03  mov   x,$03b0
27a9: e5 ba 03  mov   a,$03ba
27ac: d5 21 03  mov   $0321+x,a
27af: e5 bb 03  mov   a,$03bb
27b2: d5 51 03  mov   $0351+x,a
27b5: 5f 3e 28  jmp   $283e          ;If $03B3 is cleared, clear $0392, $04BB, and $03A4.
27b8: e8 ff     mov   a,#$ff
27ba: c5 9e 03  mov   $039e,a
27bd: e8 00     mov   a,#$00
27bf: c5 da 03  mov   $03da,a
27c2: e5 b3 03  mov   a,$03b3
27c5: 25 ac 03  and   a,$03ac
27c8: c5 b3 03  mov   $03b3,a
27cb: e4 1a     mov   a,$1a
27cd: 25 ac 03  and   a,$03ac
27d0: c4 1a     mov   $1a,a
27d2: e4 47     mov   a,$47
27d4: 05 a8 03  or    a,$03a8
27d7: c4 47     mov   $47,a
27d9: e4 46     mov   a,$46
27db: 05 a8 03  or    a,$03a8
27de: c4 46     mov   $46,a
27e0: e9 b1 03  mov   x,$03b1
27e3: f5 11 02  mov   a,$0211+x
27e6: 3f fc 18  call  $18fc
27e9: e9 b1 03  mov   x,$03b1
27ec: e5 bc 03  mov   a,$03bc
27ef: d5 21 03  mov   $0321+x,a
27f2: e5 bd 03  mov   a,$03bd
27f5: d5 51 03  mov   $0351+x,a
27f8: 5f 3e 28  jmp   $283e          ;If $03B3 is cleared, clear $0392, $04BB, and $03A4.
27fb: e8 ff     mov   a,#$ff
27fd: c5 9f 03  mov   $039f,a
2800: e8 00     mov   a,#$00
2802: c5 db 03  mov   $03db,a
2805: e5 b3 03  mov   a,$03b3
2808: 25 ad 03  and   a,$03ad
280b: c5 b3 03  mov   $03b3,a
280e: e4 1a     mov   a,$1a
2810: 25 ad 03  and   a,$03ad
2813: c4 1a     mov   $1a,a
2815: e4 47     mov   a,$47
2817: 05 a9 03  or    a,$03a9
281a: c4 47     mov   $47,a
281c: e4 46     mov   a,$46
281e: 05 a9 03  or    a,$03a9
2821: c4 46     mov   $46,a
2823: e9 b2 03  mov   x,$03b2
2826: f5 11 02  mov   a,$0211+x
2829: 3f fc 18  call  $18fc
282c: e9 b2 03  mov   x,$03b2
282f: e5 be 03  mov   a,$03be
2832: d5 21 03  mov   $0321+x,a
2835: e5 bf 03  mov   a,$03bf
2838: d5 51 03  mov   $0351+x,a
283b: 5f 3e 28  jmp   $283e          ;Yeah, this is real useful.

283e: e5 b3 03  mov   a,$03b3        ;'Subroutine' 283E: If $03B3 is cleared, clear $0392, $04BB, and $03A4.
2841: d0 0b     bne   $284e
2843: e8 00     mov   a,#$00
2845: c5 92 03  mov   $0392,a
2848: c5 bb 04  mov   $04bb,a
284b: c5 a4 03  mov   $03a4,a
284e: 6f        ret

284f: ec 94 03  mov   y,$0394
2852: f7 2a     mov   a,($2a)+y
2854: ac 94 03  inc   $0394
2857: 6f        ret
2858: ec 95 03  mov   y,$0395
285b: f7 2c     mov   a,($2c)+y
285d: ac 95 03  inc   $0395
2860: 6f        ret
2861: ec 96 03  mov   y,$0396
2864: f7 2e     mov   a,($2e)+y
2866: ac 96 03  inc   $0396
2869: 6f        ret
286a: ec 97 03  mov   y,$0397
286d: f7 d0     mov   a,($d0)+y
286f: ac 97 03  inc   $0397
2872: 6f        ret
2873: 6f        ret
2874: 6f        ret
2875: 68 01     cmp   a,#$01
2877: f0 1c     beq   $2895
2879: 9c        dec   a
287a: 1c        asl   a
287b: fd        mov   y,a
287c: ae        pop   a
287d: c5 20 00  mov   $0020,a
2880: ae        pop   a
2881: c5 21 00  mov   $0021,a
2884: f7 20     mov   a,($20)+y
2886: 5d        mov   x,a
2887: fc        inc   y
2888: f7 20     mov   a,($20)+y
288a: c5 21 00  mov   $0021,a
288d: c9 20 00  mov   $0020,x
2890: cd 00     mov   x,#$00
2892: 1f 20 00  jmp   ($0020+x)
2895: 8d 00     mov   y,#$00
2897: 5f 7c 28  jmp   $287c
289a: a6        sbc   a,(x)
289b: 03 a7 03  bbs0  $a7,$28a0
289e: a8 03     sbc   a,#$03
28a0: a9 03 aa  sbc   ($aa),($03)
28a3: 03 ab 03  bbs0  $ab,$28a8
28a6: ac 03 ad  inc   $ad03
28a9: 03 af 03  bbs0  $af,$28ae
28ac: b0 03     bcs   $28b1
28ae: b1        tcall 11
28af: 03 b2 03  bbs0  $b2,$28b4
28b2: e8 09     mov   a,#$09
28b4: c5 a5 03  mov   $03a5,a
28b7: e4 1a     mov   a,$1a
28b9: c5 a3 03  mov   $03a3,a
28bc: e8 ff     mov   a,#$ff
28be: c5 a4 03  mov   $03a4,a
28c1: e8 00     mov   a,#$00
28c3: c5 ae 03  mov   $03ae,a
28c6: c5 a0 03  mov   $03a0,a
28c9: c5 a6 03  mov   $03a6,a
28cc: c5 a7 03  mov   $03a7,a
28cf: c5 a8 03  mov   $03a8,a
28d2: c5 a9 03  mov   $03a9,a
28d5: c5 af 03  mov   $03af,a
28d8: c5 b0 03  mov   $03b0,a
28db: c5 b1 03  mov   $03b1,a
28de: c5 b2 03  mov   $03b2,a
28e1: e8 ff     mov   a,#$ff
28e3: c5 aa 03  mov   $03aa,a
28e6: c5 ab 03  mov   $03ab,a
28e9: c5 ac 03  mov   $03ac,a
28ec: c5 ad 03  mov   $03ad,a
28ef: c5 9c 03  mov   $039c,a
28f2: c5 9d 03  mov   $039d,a
28f5: c5 9e 03  mov   $039e,a
28f8: c5 9f 03  mov   $039f,a
28fb: 8c a5 03  dec   $03a5
28fe: f0 7e     beq   $297e
2900: 0c a3 03  asl   $03a3
2903: b0 f6     bcs   $28fb
2905: e8 00     mov   a,#$00
2907: 65 a1 03  cmp   a,$03a1
290a: f0 72     beq   $297e
290c: 8c a1 03  dec   $03a1
290f: e8 00     mov   a,#$00
2911: e9 a0 03  mov   x,$03a0
2914: d5 9c 03  mov   $039c+x,a
2917: ac a0 03  inc   $03a0
291a: e5 ae 03  mov   a,$03ae
291d: 5d        mov   x,a
291e: fd        mov   y,a
291f: f5 9a 28  mov   a,$289a+x
2922: c4 24     mov   $24,a
2924: f5 a2 28  mov   a,$28a2+x
2927: c4 26     mov   $26,a
2929: f5 aa 28  mov   a,$28aa+x
292c: c4 28     mov   $28,a
292e: 3d        inc   x
292f: f5 9a 28  mov   a,$289a+x
2932: c4 25     mov   $25,a
2934: f5 a2 28  mov   a,$28a2+x
2937: c4 27     mov   $27,a
2939: f5 aa 28  mov   a,$28aa+x
293c: c4 29     mov   $29,a
293e: ac ae 03  inc   $03ae
2941: ac ae 03  inc   $03ae
2944: e5 a5 03  mov   a,$03a5
2947: c5 a2 03  mov   $03a2,a
294a: 8c a2 03  dec   $03a2
294d: 60        clrc
294e: 0c a2 03  asl   $03a2
2951: e9 a2 03  mov   x,$03a2
2954: f5 21 03  mov   a,$0321+x
2957: d6 b8 03  mov   $03b8+y,a
295a: fc        inc   y
295b: f5 51 03  mov   a,$0351+x
295e: d6 b8 03  mov   $03b8+y,a
2961: 8d 00     mov   y,#$00
2963: e5 a2 03  mov   a,$03a2
2966: d7 28     mov   ($28)+y,a
2968: e5 a5 03  mov   a,$03a5
296b: 3f 75 28  call  $2875
296e: 3c        rol   a
296f: 2a 21 2a  or1   c,!($0544,1)
2972: 06        or    a,(x)
2973: 2a eb 29  or1   c,!($053d,3)
2976: d0 29     bne   $29a1
2978: b5 29 9a  sbc   a,$9a29+x
297b: 29 7f 29  and   ($29),($7f)
297e: 6f        ret
297f: e2 1a     set7  $1a
2981: f2 47     clr7  $47
2983: f2 4a     clr7  $4a
2985: e8 80     mov   a,#$80
2987: 05 b3 03  or    a,$03b3
298a: c5 b3 03  mov   $03b3,a
298d: 8d 00     mov   y,#$00
298f: e8 80     mov   a,#$80
2991: d7 24     mov   ($24)+y,a
2993: e8 7f     mov   a,#$7f
2995: d7 26     mov   ($26)+y,a
2997: 5f fb 28  jmp   $28fb
299a: c2 1a     set6  $1a
299c: d2 47     clr6  $47
299e: d2 4a     clr6  $4a
29a0: e8 40     mov   a,#$40
29a2: 05 b3 03  or    a,$03b3
29a5: c5 b3 03  mov   $03b3,a
29a8: 8d 00     mov   y,#$00
29aa: e8 40     mov   a,#$40
29ac: d7 24     mov   ($24)+y,a
29ae: e8 bf     mov   a,#$bf
29b0: d7 26     mov   ($26)+y,a
29b2: 5f fb 28  jmp   $28fb
29b5: a2 1a     set5  $1a
29b7: b2 47     clr5  $47
29b9: b2 4a     clr5  $4a
29bb: e8 20     mov   a,#$20
29bd: 05 b3 03  or    a,$03b3
29c0: c5 b3 03  mov   $03b3,a
29c3: 8d 00     mov   y,#$00
29c5: e8 20     mov   a,#$20
29c7: d7 24     mov   ($24)+y,a
29c9: e8 df     mov   a,#$df
29cb: d7 26     mov   ($26)+y,a
29cd: 5f fb 28  jmp   $28fb
29d0: 82 1a     set4  $1a
29d2: 92 47     clr4  $47
29d4: 92 4a     clr4  $4a
29d6: e8 10     mov   a,#$10
29d8: 05 b3 03  or    a,$03b3
29db: c5 b3 03  mov   $03b3,a
29de: 8d 00     mov   y,#$00
29e0: e8 10     mov   a,#$10
29e2: d7 24     mov   ($24)+y,a
29e4: e8 ef     mov   a,#$ef
29e6: d7 26     mov   ($26)+y,a
29e8: 5f fb 28  jmp   $28fb
29eb: 62 1a     set3  $1a
29ed: 72 47     clr3  $47
29ef: 72 4a     clr3  $4a
29f1: e8 08     mov   a,#$08
29f3: 05 b3 03  or    a,$03b3
29f6: c5 b3 03  mov   $03b3,a
29f9: 8d 00     mov   y,#$00
29fb: e8 08     mov   a,#$08
29fd: d7 24     mov   ($24)+y,a
29ff: e8 f7     mov   a,#$f7
2a01: d7 26     mov   ($26)+y,a
2a03: 5f fb 28  jmp   $28fb
2a06: 42 1a     set2  $1a
2a08: 52 47     clr2  $47
2a0a: 52 4a     clr2  $4a
2a0c: e8 04     mov   a,#$04
2a0e: 05 b3 03  or    a,$03b3
2a11: c5 b3 03  mov   $03b3,a
2a14: 8d 00     mov   y,#$00
2a16: e8 04     mov   a,#$04
2a18: d7 24     mov   ($24)+y,a
2a1a: e8 fb     mov   a,#$fb
2a1c: d7 26     mov   ($26)+y,a
2a1e: 5f fb 28  jmp   $28fb
2a21: 22 1a     set1  $1a
2a23: 32 47     clr1  $47
2a25: 32 4a     clr1  $4a
2a27: e8 02     mov   a,#$02
2a29: 05 b3 03  or    a,$03b3
2a2c: c5 b3 03  mov   $03b3,a
2a2f: 8d 00     mov   y,#$00
2a31: e8 02     mov   a,#$02
2a33: d7 24     mov   ($24)+y,a
2a35: e8 fd     mov   a,#$fd
2a37: d7 26     mov   ($26)+y,a
2a39: 5f fb 28  jmp   $28fb
2a3c: 02 1a     set0  $1a
2a3e: 12 47     clr0  $47
2a40: 12 4a     clr0  $4a
2a42: e8 01     mov   a,#$01
2a44: 05 b3 03  or    a,$03b3
2a47: c5 b3 03  mov   $03b3,a
2a4a: 8d 00     mov   y,#$00
2a4c: e8 01     mov   a,#$01
2a4e: d7 24     mov   ($24)+y,a
2a50: e8 fe     mov   a,#$fe
2a52: d7 26     mov   ($26)+y,a
2a54: 5f fb 28  jmp   $28fb
2a57: fc        inc   y
2a58: f7 22     mov   a,($22)+y
2a5a: 6f        ret
2a5b: 1c        asl   a
2a5c: 1c        asl   a
2a5d: 1c        asl   a
2a5e: 6f        ret
2a5f: 3f e2 2a  call  $2ae2
2a62: 6f        ret
2a63: 3f ab 2a  call  $2aab
2a66: 6f        ret
2a67: 3f c1 2a  call  $2ac1
2a6a: 6f        ret
2a6b: 3f ab 2a  call  $2aab
2a6e: 6f        ret
2a6f: 3f c1 2a  call  $2ac1
2a72: 6f        ret
2a73: 3f ab 2a  call  $2aab
2a76: 6f        ret
2a77: 3f c1 2a  call  $2ac1
2a7a: 6f        ret
2a7b: 3f ab 2a  call  $2aab
2a7e: 6f        ret
2a7f: 3f ab 2a  call  $2aab
2a82: 6f        ret
2a83: 3f ab 2a  call  $2aab
2a86: 6f        ret
2a87: 3f d7 2a  call  $2ad7
2a8a: 6f        ret
2a8b: 3f ab 2a  call  $2aab
2a8e: 6f        ret
2a8f: 3f c1 2a  call  $2ac1
2a92: 6f        ret
2a93: 3f ab 2a  call  $2aab
2a96: 6f        ret
2a97: 3f b6 2a  call  $2ab6
2a9a: 6f        ret
2a9b: 3f ab 2a  call  $2aab
2a9e: 6f        ret
2a9f: 3f cc 2a  call  $2acc
2aa2: 6f        ret
2aa3: 3f c1 2a  call  $2ac1
2aa6: 6f        ret
2aa7: 3f c1 2a  call  $2ac1
2aaa: 6f        ret
2aab: e8 01     mov   a,#$01
2aad: c5 a1 03  mov   $03a1,a
2ab0: e8 00     mov   a,#$00
2ab2: c5 bb 04  mov   $04bb,a
2ab5: 6f        ret
2ab6: e8 01     mov   a,#$01
2ab8: c5 a1 03  mov   $03a1,a
2abb: e8 01     mov   a,#$01
2abd: c5 bb 04  mov   $04bb,a
2ac0: 6f        ret
2ac1: e8 02     mov   a,#$02
2ac3: c5 a1 03  mov   $03a1,a
2ac6: e8 00     mov   a,#$00
2ac8: c5 bb 04  mov   $04bb,a
2acb: 6f        ret
2acc: e8 03     mov   a,#$03
2ace: c5 a1 03  mov   $03a1,a
2ad1: e8 01     mov   a,#$01
2ad3: c5 bb 04  mov   $04bb,a
2ad6: 6f        ret
2ad7: e8 04     mov   a,#$04
2ad9: c5 a1 03  mov   $03a1,a
2adc: e8 00     mov   a,#$00
2ade: c5 bb 04  mov   $04bb,a
2ae1: 6f        ret
2ae2: e8 04     mov   a,#$04
2ae4: c5 a1 03  mov   $03a1,a
2ae7: e8 00     mov   a,#$00
2ae9: c5 bb 04  mov   $04bb,a
2aec: 6f        ret
2aed: 71        tcall 7
2aee: 2b af     rol   $af
2af0: 2b b7     rol   $b7
2af2: 2b c4     rol   $c4
2af4: 2b d1     rol   $d1
2af6: 2b fc     rol   $fc
2af8: 2b 2f     rol   $2f
2afa: 2c 37 2c  rol   $2c37
2afd: ff        stop
2afe: 2c 12 2d  rol   $2d12
2b01: 1a 2d     decw  $2d
2b03: 27 2d     and   a,($2d+x)
2b05: 4b 2d     lsr   $2d
2b07: 5d        mov   x,a
2b08: 2d        push  a
2b09: 5f 2d 76  jmp   $762d
2b0c: 2d        push  a
2b0d: 95 2d 97  adc   a,$972d+x
2b10: 2d        push  a
2b11: 99        adc   (x),(y)
2b12: 2d        push  a
2b13: a6        sbc   a,(x)
2b14: 2d        push  a
2b15: a8 2d     sbc   a,#$2d
2b17: aa 2d ac  mov1  c,$1585,5
2b1a: 2d        push  a
2b1b: c8 2d     cmp   x,#$2d
2b1d: e7 2d     mov   a,($2d+x)
2b1f: fe 2d     dbnz  y,$2b4e
2b21: 00        nop
2b22: 2e 17 2e  cbne  $17,$2b52
2b25: 19        or    (x),(y)
2b26: 2e 1b 2e  cbne  $1b,$2b56
2b29: 1d        dec   x
2b2a: 2e 34 2e  cbne  $34,$2b5a
2b2d: 36 2e 38  and   a,$382e+y
2b30: 2e 3a 2e  cbne  $3a,$2b60
2b33: 68 2e     cmp   a,#$2e
2b35: af        mov   (x)+,a
2b36: 2e d0 2e  cbne  $d0,$2b66
2b39: f6 2e 2c  mov   a,$2c2e+y
2b3c: 2f 37     bra   $2b75
2b3e: 2f 3f     bra   $2b7f
2b40: 2f 47     bra   $2b89
2b42: 2f 4a     bra   $2b8e
2b44: 2f 4d     bra   $2b93
2b46: 2f 50     bra   $2b98
2b48: 2f b0     bra   $2afa
2b4a: 2f b8     bra   $2b04
2b4c: 2f c3     bra   $2b11
2b4e: 2f dd     bra   $2b2d
2b50: 2f e5     bra   $2b37
2b52: 2f 40     bra   $2b94
2b54: 30 48     bmi   $2b9e
2b56: 30 55     bmi   $2bad
2b58: 30 5d     bmi   $2bb7
2b5a: 30 65     bmi   $2bc1
2b5c: 30 70     bmi   $2bce
2b5e: 30 78     bmi   $2bd8
2b60: 30 7b     bmi   $2bdd
2b62: 30 8b     bmi   $2aef
2b64: 30 9b     bmi   $2b01
2b66: 30 a8     bmi   $2b10
2b68: 30 d6     bmi   $2b40
2b6a: 30 e1     bmi   $2b4d
2b6c: 30 2a     bmi   $2b98
2b6e: 31        tcall 3
2b6f: 3f 31 79  call  $7931
2b72: 2b 82     rol   $82
2b74: 2b 93     rol   $93
2b76: 2b a1     rol   $a1
2b78: 2b f5     rol   $f5
2b7a: b0 c7     bcs   $2b43
2b7c: 05 d0 0a  or    a,$0ad0
2b7f: 98 46 ff  adc   $ff,#$46
2b82: f5 a0 c7  mov   a,$c7a0+x
2b85: 09 d0 0f  or    ($0f),($d0)
2b88: 80        setc
2b89: 50 f5     bvc   $2b80
2b8b: 50 80     bvc   $2b0d
2b8d: 09 d0 0a  or    ($0a),($d0)
2b90: ab 46     inc   $46
2b92: ff        stop
2b93: 09 d0 0f  or    ($0f),($d0)
2b96: 87 10     adc   a,($10+x)
2b98: f5 b0 c7  mov   a,$c7b0+x
2b9b: 05 d0 0f  or    a,$0fd0
2b9e: 80        setc
2b9f: 60        clrc
2ba0: ff        stop
2ba1: 09 d0 05  or    ($05),($d0)
2ba4: 82 30     set4  $30
2ba6: f5 a0 80  mov   a,$80a0+x
2ba9: 05 d0 05  or    a,$05d0
2bac: c7 60     mov   ($60+x),a
2bae: ff        stop
2baf: b1        tcall 11
2bb0: 2b 15     rol   $15
2bb2: 00        nop
2bb3: 0a bc 03  or1   c,$0077,4
2bb6: ff        stop
2bb7: b9        sbc   (x),(y)
2bb8: 2b 00     rol   $00
2bba: d8 0a     mov   $0a,x
2bbc: 95 08 01  adc   a,$0108+x
2bbf: d8 0a     mov   $0a,x
2bc1: 8b 30     dec   $30
2bc3: ff        stop
2bc4: c6        mov   (x),a
2bc5: 2b 00     rol   $00
2bc7: d0 0a     bne   $2bd3
2bc9: 95 08 01  adc   a,$0108+x
2bcc: d0 0a     bne   $2bd8
2bce: 90 30     bcc   $2c00
2bd0: ff        stop
2bd1: d3 2b 01  bbc6  $2b,$2bd4
2bd4: 80        setc
2bd5: 0a 9d 10  or1   c,$0213,5
2bd8: 02 50     set0  $50
2bda: 0a 93 07  or1   c,$00f2,3
2bdd: 02 50     set0  $50
2bdf: 0a 93 03  or1   c,$0072,3
2be2: 02 50     set0  $50
2be4: 0a 93 05  or1   c,$00b2,3
2be7: 02 50     set0  $50
2be9: 0a 93 08  or1   c,$0112,3
2bec: 02 50     set0  $50
2bee: 0a 93 04  or1   c,$0092,3
2bf1: 02 50     set0  $50
2bf3: 0a 93 06  or1   c,$00d2,3
2bf6: 02 50     set0  $50
2bf8: 0a 93 04  or1   c,$0092,3
2bfb: ff        stop
2bfc: fe 2b     dbnz  y,$2c29
2bfe: 0d        push  psw
2bff: 50 0a     bvc   $2c0b
2c01: 80        setc
2c02: 03 0d 50  bbs0  $0d,$2c54
2c05: 0a 85 04  or1   c,$0090,5
2c08: fe 00     dbnz  y,$2c0a
2c0a: 02 50     set0  $50
2c0c: 0a 93 07  or1   c,$00f2,3
2c0f: 02 50     set0  $50
2c11: 0a 93 03  or1   c,$0072,3
2c14: 02 50     set0  $50
2c16: 0a 93 05  or1   c,$00b2,3
2c19: 02 50     set0  $50
2c1b: 0a 93 08  or1   c,$0112,3
2c1e: 02 50     set0  $50
2c20: 0a 93 04  or1   c,$0092,3
2c23: 02 50     set0  $50
2c25: 0a 93 06  or1   c,$00d2,3
2c28: 02 50     set0  $50
2c2a: 0a 93 04  or1   c,$0092,3
2c2d: fb ff     mov   y,$ff+x
2c2f: 31        tcall 3
2c30: 2c 02 50  rol   $5002
2c33: 0a 93 05  or1   c,$00b2,3
2c36: ff        stop
2c37: 3b 2c     rol   $2c+x
2c39: 51        tcall 5
2c3a: 2c 05 00  rol   $0005
2c3d: 0a b4 15  or1   c,$02b6,4
2c40: f5 30 c7  mov   a,$c730+x
2c43: 05 50 0a  or    a,$0a50
2c46: b7 25     sbc   a,($25)+y
2c48: fe 00     dbnz  y,$2c4a
2c4a: 07 60     or    a,($60+x)
2c4c: 0a c7 30  or1   c,$0618,7
2c4f: fb ff     mov   y,$ff+x
2c51: 02 00     set0  $00
2c53: 0a 9c 07  or1   c,$00f3,4
2c56: 02 10     set0  $10
2c58: 0a 9c 03  or1   c,$0073,4
2c5b: 02 00     set0  $00
2c5d: 0a 9c 05  or1   c,$00b3,4
2c60: 02 20     set0  $20
2c62: 0a 9c 08  or1   c,$0113,4
2c65: 02 20     set0  $20
2c67: 0a 9c 04  or1   c,$0093,4
2c6a: 02 30     set0  $30
2c6c: 0a 9c 06  or1   c,$00d3,4
2c6f: 02 00     set0  $00
2c71: 0a 9c 04  or1   c,$0093,4
2c74: 02 30     set0  $30
2c76: 0a 9c 03  or1   c,$0073,4
2c79: 02 30     set0  $30
2c7b: 0a 9c 07  or1   c,$00f3,4
2c7e: 02 00     set0  $00
2c80: 0a 9c 0a  or1   c,$0153,4
2c83: 02 30     set0  $30
2c85: 0a 9c 03  or1   c,$0073,4
2c88: 02 00     set0  $00
2c8a: 0a 9c 04  or1   c,$0093,4
2c8d: 02 40     set0  $40
2c8f: 0a 9c 03  or1   c,$0073,4
2c92: 02 40     set0  $40
2c94: 0a 9c 07  or1   c,$00f3,4
2c97: 02 00     set0  $00
2c99: 0a 9c 05  or1   c,$00b3,4
2c9c: 02 40     set0  $40
2c9e: 0a 9c 06  or1   c,$00d3,4
2ca1: 02 40     set0  $40
2ca3: 0a 9c 03  or1   c,$0073,4
2ca6: 02 00     set0  $00
2ca8: 0a 9c 0a  or1   c,$0153,4
2cab: 02 50     set0  $50
2cad: 0a 9c 03  or1   c,$0073,4
2cb0: 02 50     set0  $50
2cb2: 0a 9c 03  or1   c,$0073,4
2cb5: 02 60     set0  $60
2cb7: 0a 9c 05  or1   c,$00b3,4
2cba: 02 00     set0  $00
2cbc: 0a 9c 06  or1   c,$00d3,4
2cbf: 02 60     set0  $60
2cc1: 0a 9c 07  or1   c,$00f3,4
2cc4: 02 00     set0  $00
2cc6: 0a 9c 03  or1   c,$0073,4
2cc9: 02 60     set0  $60
2ccb: 0a 9c 04  or1   c,$0093,4
2cce: 02 60     set0  $60
2cd0: 0a 9c 03  or1   c,$0073,4
2cd3: 02 00     set0  $00
2cd5: 0a 9c 03  or1   c,$0073,4
2cd8: fe 00     dbnz  y,$2cda
2cda: 02 40     set0  $40
2cdc: 0a 9c 05  or1   c,$00b3,4
2cdf: 02 40     set0  $40
2ce1: 0a 9c 06  or1   c,$00d3,4
2ce4: 02 40     set0  $40
2ce6: 0a 9c 07  or1   c,$00f3,4
2ce9: 02 40     set0  $40
2ceb: 0a 9c 03  or1   c,$0073,4
2cee: 02 40     set0  $40
2cf0: 0a 9c 04  or1   c,$0093,4
2cf3: 02 40     set0  $40
2cf5: 0a 9c 03  or1   c,$0073,4
2cf8: 02 40     set0  $40
2cfa: 0a 9c 03  or1   c,$0073,4
2cfd: fb ff     mov   y,$ff+x
2cff: 01        tcall 0
2d00: 2d        push  a
2d01: f5 70 ad  mov   a,$ad70+x
2d04: 06        or    a,(x)
2d05: 40        setp
2d06: 0a a4 40  or1   c,$0814,4
2d09: fe 00     dbnz  y,$2d0b
2d0b: 06        or    a,(x)
2d0c: 40        setp
2d0d: 0a ad f0  or1   c,$1e15,5
2d10: fb ff     mov   y,$ff+x
2d12: 14 2d     or    a,$2d+x
2d14: 06        or    a,(x)
2d15: 00        nop
2d16: 0a ad 03  or1   c,$0075,5
2d19: ff        stop
2d1a: 1c        asl   a
2d1b: 2d        push  a
2d1c: 04 90     or    a,$90
2d1e: 0a 89 03  or1   c,$0071,1
2d21: 04 90     or    a,$90
2d23: 0a 84 0e  or1   c,$01d0,4
2d26: ff        stop
2d27: 29 2d 04  and   ($04),($2d)
2d2a: b0 0a     bcs   $2d36
2d2c: 8b 03     dec   $03
2d2e: 04 b0     or    a,$b0
2d30: 0a 89 07  or1   c,$00f1,1
2d33: f5 90 c7  mov   a,$c790+x
2d36: 10 90     bpl   $2cc8
2d38: 0a bc 0a  or1   c,$0157,4
2d3b: 10 60     bpl   $2d9d
2d3d: 0a c3 06  or1   c,$00d8,3
2d40: 10 30     bpl   $2d72
2d42: 0a c7 03  or1   c,$0078,7
2d45: 10 20     bpl   $2d67
2d47: 0a c7 03  or1   c,$0078,7
2d4a: ff        stop
2d4b: 4d        push  x
2d4c: 2d        push  a
2d4d: 04 90     or    a,$90
2d4f: 0a 89 03  or1   c,$0071,1
2d52: 04 70     or    a,$70
2d54: 0a 84 0b  or1   c,$0170,4
2d57: 04 30     or    a,$30
2d59: 0a 84 08  or1   c,$0110,4
2d5c: ff        stop
2d5d: 29 2d 61  and   ($61),($2d)
2d60: 2d        push  a
2d61: 00        nop
2d62: d0 0a     bne   $2d6e
2d64: 98 0c 04  adc   $04,#$0c
2d67: c0        di
2d68: 0a 80 10  or1   c,$0210,0
2d6b: 04 30     or    a,$30
2d6d: 0a 80 08  or1   c,$0110,0
2d70: 04 10     or    a,$10
2d72: 0a 80 06  or1   c,$00d0,0
2d75: ff        stop
2d76: 78 2d 00  cmp   $00,#$2d
2d79: d0 0a     bne   $2d85
2d7b: 98 0c f5  adc   $f5,#$0c
2d7e: 90 c7     bcc   $2d47
2d80: 10 90     bpl   $2d12
2d82: 0a bc 0a  or1   c,$0157,4
2d85: 10 60     bpl   $2de7
2d87: 0a c3 06  or1   c,$00d8,3
2d8a: 10 30     bpl   $2dbc
2d8c: 0a c7 03  or1   c,$0078,7
2d8f: 10 20     bpl   $2db1
2d91: 0a c7 03  or1   c,$0078,7
2d94: ff        stop
2d95: 78 2d 61  cmp   $61,#$2d
2d98: 2d        push  a
2d99: 9b 2d     dec   $2d+x
2d9b: 00        nop
2d9c: d0 0a     bne   $2da8
2d9e: 98 0c 04  adc   $04,#$0c
2da1: b0 0a     bcs   $2dad
2da3: 80        setc
2da4: 13 ff 78  bbc0  $ff,$2e1e
2da7: 2d        push  a
2da8: 78 2d 9b  cmp   $9b,#$2d
2dab: 2d        push  a
2dac: ae        pop   a
2dad: 2d        push  a
2dae: 04 d0     or    a,$d0
2db0: 0a 84 05  or1   c,$00b0,4
2db3: 04 d0     or    a,$d0
2db5: 0a 80 0c  or1   c,$0190,0
2db8: 02 80     set0  $80
2dba: 0a 98 03  or1   c,$0073,0
2dbd: 02 60     set0  $60
2dbf: 0a 98 03  or1   c,$0073,0
2dc2: 02 50     set0  $50
2dc4: 0a 98 03  or1   c,$0073,0
2dc7: ff        stop
2dc8: ca 2d 00  mov1  $0005,5,c
2dcb: e0        clrv
2dcc: 0a 98 0c  or1   c,$0193,0
2dcf: f5 b0 c7  mov   a,$c7b0+x
2dd2: 10 e0     bpl   $2db4
2dd4: 0a bc 0a  or1   c,$0157,4
2dd7: 10 70     bpl   $2e49
2dd9: 0a c3 06  or1   c,$00d8,3
2ddc: 10 30     bpl   $2e0e
2dde: 0a c7 03  or1   c,$0078,7
2de1: 10 20     bpl   $2e03
2de3: 0a c7 03  or1   c,$0078,7
2de6: ff        stop
2de7: e9 2d 04  mov   x,$042d
2dea: e0        clrv
2deb: 0a 84 03  or1   c,$0070,4
2dee: 04 e0     or    a,$e0
2df0: 0a 80 10  or1   c,$0210,0
2df3: 04 50     or    a,$50
2df5: 0a 80 04  or1   c,$0090,0
2df8: 04 30     or    a,$30
2dfa: 0a 80 09  or1   c,$0130,0
2dfd: ff        stop
2dfe: ca 2d 02  mov1  $0045,5,c
2e01: 2e 00 d0  cbne  $00,$2dd3
2e04: 0a 95 08  or1   c,$0112,5
2e07: 04 d0     or    a,$d0
2e09: 0a 80 0f  or1   c,$01f0,0
2e0c: 04 80     or    a,$80
2e0e: 0a 80 0d  or1   c,$01b0,0
2e11: 04 20     or    a,$20
2e13: 0a 80 0a  or1   c,$0150,0
2e16: ff        stop
2e17: ca 2d ca  mov1  $1945,5,c
2e1a: 2d        push  a
2e1b: 02 2e     set0  $2e
2e1d: 1f 2e 00  jmp   ($002e+x)
2e20: d0 0a     bne   $2e2c
2e22: 98 0e 04  adc   $04,#$0e
2e25: d0 0a     bne   $2e31
2e27: 80        setc
2e28: 10 04     bpl   $2e2e
2e2a: 70 0a     bvs   $2e36
2e2c: 80        setc
2e2d: 10 04     bpl   $2e33
2e2f: 30 0a     bmi   $2e3b
2e31: 80        setc
2e32: 10 ff     bpl   $2e33
2e34: ca 2d ca  mov1  $1945,5,c
2e37: 2d        push  a
2e38: 1f 2e 3c  jmp   ($3c2e+x)
2e3b: 2e fe 00  cbne  $fe,$2e3d
2e3e: 10 50     bpl   $2e90
2e40: 0a c0 03  or1   c,$0078,0
2e43: 10 50     bpl   $2e95
2e45: 0a c1 03  or1   c,$0078,1
2e48: 10 60     bpl   $2eaa
2e4a: 0a c3 03  or1   c,$0078,3
2e4d: 10 60     bpl   $2eaf
2e4f: 0a c5 03  or1   c,$0078,5
2e52: 10 70     bpl   $2ec4
2e54: 0a c7 03  or1   c,$0078,7
2e57: 10 60     bpl   $2eb9
2e59: 0a c5 03  or1   c,$0078,5
2e5c: 10 50     bpl   $2eae
2e5e: 0a c3 03  or1   c,$0078,3
2e61: 10 50     bpl   $2eb3
2e63: 0a c1 03  or1   c,$0078,1
2e66: fb ff     mov   y,$ff+x
2e68: 6c 2e 9f  ror   $9f2e
2e6b: 2e 10 d0  cbne  $10,$2e3d
2e6e: 0a bc 0a  or1   c,$0157,4
2e71: 10 70     bpl   $2ee3
2e73: 0a c3 06  or1   c,$00d8,3
2e76: 10 30     bpl   $2ea8
2e78: 0a c7 03  or1   c,$0078,7
2e7b: 10 20     bpl   $2e9d
2e7d: 0a c7 03  or1   c,$0078,7
2e80: 10 50     bpl   $2ed2
2e82: 0a c3 06  or1   c,$00d8,3
2e85: 10 40     bpl   $2ec7
2e87: 0a c7 03  or1   c,$0078,7
2e8a: 10 40     bpl   $2ecc
2e8c: 0a c7 03  or1   c,$0078,7
2e8f: 10 30     bpl   $2ec1
2e91: 0a c3 06  or1   c,$00d8,3
2e94: 10 20     bpl   $2eb6
2e96: 0a c7 03  or1   c,$0078,7
2e99: 10 20     bpl   $2ebb
2e9b: 0a c7 03  or1   c,$0078,7
2e9e: ff        stop
2e9f: 04 d0     or    a,$d0
2ea1: 0a 80 10  or1   c,$0210,0
2ea4: 04 70     or    a,$70
2ea6: 0a 80 10  or1   c,$0210,0
2ea9: 04 30     or    a,$30
2eab: 0a 80 10  or1   c,$0210,0
2eae: ff        stop
2eaf: b1        tcall 11
2eb0: 2e 04 d0  cbne  $04,$2e82
2eb3: 0a 80 10  or1   c,$0210,0
2eb6: 04 70     or    a,$70
2eb8: 0a 80 10  or1   c,$0210,0
2ebb: 04 30     or    a,$30
2ebd: 0a 80 02  or1   c,$0050,0
2ec0: 04 d0     or    a,$d0
2ec2: 0a 80 10  or1   c,$0210,0
2ec5: 04 70     or    a,$70
2ec7: 0a 80 10  or1   c,$0210,0
2eca: 04 30     or    a,$30
2ecc: 0a 80 10  or1   c,$0210,0
2ecf: ff        stop
2ed0: d2 2e     clr6  $2e
2ed2: 04 d0     or    a,$d0
2ed4: 0a 80 10  or1   c,$0210,0
2ed7: 04 70     or    a,$70
2ed9: 0a 80 04  or1   c,$0090,0
2edc: 04 30     or    a,$30
2ede: 0a 80 02  or1   c,$0050,0
2ee1: 04 30     or    a,$30
2ee3: 0a 80 06  or1   c,$00d0,0
2ee6: 04 30     or    a,$30
2ee8: 0a 80 06  or1   c,$00d0,0
2eeb: 04 70     or    a,$70
2eed: 0a 80 07  or1   c,$00f0,0
2ef0: 04 70     or    a,$70
2ef2: 0a 80 07  or1   c,$00f0,0
2ef5: ff        stop
2ef6: fa 2e 13  mov   ($13),($2e)
2ef9: 2f f5     bra   $2ef0
2efb: 30 c7     bmi   $2ec4
2efd: 07 90     or    a,($90+x)
2eff: 0a b7 25  or1   c,$04b6,7
2f02: f5 30 b7  mov   a,$b730+x
2f05: 07 90     or    a,($90+x)
2f07: 0a f6 25  or1   c,$04be,6
2f0a: f5 b0 c7  mov   a,$c7b0+x
2f0d: 07 90     or    a,($90+x)
2f0f: 0a f6 25  or1   c,$04be,6
2f12: ff        stop
2f13: f5 30 c7  mov   a,$c730+x
2f16: 05 90 0a  or    a,$0a90
2f19: b7 27     sbc   a,($27)+y
2f1b: f5 30 b7  mov   a,$b730+x
2f1e: 05 90 0a  or    a,$0a90
2f21: f6 27 f5  mov   a,$f527+y
2f24: b0 c7     bcs   $2eed
2f26: 05 90 0a  or    a,$0a90
2f29: f6 27 ff  mov   a,$ff27+y
2f2c: 2e 2f f5  cbne  $2f,$2f23
2f2f: 30 c7     bmi   $2ef8
2f31: 05 50 0a  or    a,$0a50
2f34: b7 25     sbc   a,($25)+y
2f36: ff        stop
2f37: 39        and   (x),(y)
2f38: 2f 05     bra   $2f3f
2f3a: 00        nop
2f3b: 0a b7 03  or1   c,$0076,7
2f3e: ff        stop
2f3f: 41        tcall 4
2f40: 2f 07     bra   $2f49
2f42: 90 0a     bcc   $2f4e
2f44: c5 12 ff  mov   $ff12,a
2f47: 49 2f ff  eor   ($ff),($2f)
2f4a: 4c 2f ff  lsr   $ff2f
2f4d: 4f 2f     pcall $2f
2f4f: ff        stop
2f50: 58 2f 6e  eor   $6e,#$2f
2f53: 2f 84     bra   $2ed9
2f55: 2f 9a     bra   $2ef1
2f57: 2f f5     bra   $2f4e
2f59: f0 b1     beq   $2f0c
2f5b: 06        or    a,(x)
2f5c: 45 0a 99  eor   a,$990a
2f5f: 19        or    (x),(y)
2f60: 06        or    a,(x)
2f61: 45 0a b1  eor   a,$b10a
2f64: 80        setc
2f65: f5 f0 99  mov   a,$99f0+x
2f68: 06        or    a,(x)
2f69: 45 0a b1  eor   a,$b10a
2f6c: 19        or    (x),(y)
2f6d: ff        stop
2f6e: f5 f0 a7  mov   a,$a7f0+x
2f71: 06        or    a,(x)
2f72: 45 0a 8f  eor   a,$8f0a
2f75: 19        or    (x),(y)
2f76: 06        or    a,(x)
2f77: 45 0a a7  eor   a,$a70a
2f7a: 80        setc
2f7b: f5 f0 8f  mov   a,$8ff0+x
2f7e: 06        or    a,(x)
2f7f: 45 0a a7  eor   a,$a70a
2f82: 19        or    (x),(y)
2f83: ff        stop
2f84: f5 f0 a0  mov   a,$a0f0+x
2f87: 06        or    a,(x)
2f88: 45 0a 88  eor   a,$880a
2f8b: 19        or    (x),(y)
2f8c: 06        or    a,(x)
2f8d: 45 0a a0  eor   a,$a00a
2f90: 80        setc
2f91: f5 f0 88  mov   a,$88f0+x
2f94: 06        or    a,(x)
2f95: 45 0a a0  eor   a,$a00a
2f98: 19        or    (x),(y)
2f99: ff        stop
2f9a: f5 f0 98  mov   a,$98f0+x
2f9d: 06        or    a,(x)
2f9e: 45 0a 80  eor   a,$800a
2fa1: 19        or    (x),(y)
2fa2: 06        or    a,(x)
2fa3: 45 0a 98  eor   a,$980a
2fa6: 80        setc
2fa7: f5 f0 80  mov   a,$80f0+x
2faa: 06        or    a,(x)
2fab: 45 0a 98  eor   a,$980a
2fae: 19        or    (x),(y)
2faf: ff        stop
2fb0: b2 2f     clr5  $2f
2fb2: 07 80     or    a,($80+x)
2fb4: 0a c7 10  or1   c,$0218,7
2fb7: ff        stop
2fb8: ba 2f     movw  ya,$2f
2fba: fe 00     dbnz  y,$2fbc
2fbc: 07 80     or    a,($80+x)
2fbe: 0a c7 10  or1   c,$0218,7
2fc1: fb ff     mov   y,$ff+x
2fc3: c5 2f 07  mov   $072f,a
2fc6: 30 0a     bmi   $2fd2
2fc8: c5 10 07  mov   $0710,a
2fcb: 40        setp
2fcc: 0a c6 10  or1   c,$0218,6
2fcf: 07 50     or    a,($50+x)
2fd1: 0a c7 10  or1   c,$0218,7
2fd4: fe 00     dbnz  y,$2fd6
2fd6: 07 80     or    a,($80+x)
2fd8: 0a c7 10  or1   c,$0218,7
2fdb: fb ff     mov   y,$ff+x
2fdd: df        daa   a
2fde: 2f 0a     bra   $2fea
2fe0: 00        nop
2fe1: 0a 87 03  or1   c,$0070,7
2fe4: ff        stop
2fe5: e9 2f 15  mov   x,$152f
2fe8: 30 07     bmi   $2ff1
2fea: 30 0a     bmi   $2ff6
2fec: c7 04     mov   ($04+x),a
2fee: 07 40     or    a,($40+x)
2ff0: 0a c7 05  or1   c,$00b8,7
2ff3: 07 50     or    a,($50+x)
2ff5: 0a c7 06  or1   c,$00d8,7
2ff8: 07 60     or    a,($60+x)
2ffa: 0a c7 07  or1   c,$00f8,7
2ffd: 07 70     or    a,($70+x)
2fff: 0a c7 09  or1   c,$0138,7
3002: 07 80     or    a,($80+x)
3004: 0a c7 0d  or1   c,$01b8,7
3007: 07 80     or    a,($80+x)
3009: 0a c7 0f  or1   c,$01f8,7
300c: fe 00     dbnz  y,$300e
300e: 07 80     or    a,($80+x)
3010: 0a c7 10  or1   c,$0218,7
3013: fb ff     mov   y,$ff+x
3015: f5 e0 bc  mov   a,$bce0+x
3018: 05 60 0a  or    a,$0a60
301b: 98 0e f5  adc   $f5,#$0e
301e: e0        clrv
301f: bc        inc   a
3020: 05 70 0a  or    a,$0a70
3023: a4 08     sbc   a,$08
3025: f5 e0 bc  mov   a,$bce0+x
3028: 05 80 0a  or    a,$0a80
302b: b0 06     bcs   $3033
302d: fe 00     dbnz  y,$302f
302f: 05 80 0a  or    a,$0a80
3032: bc        inc   a
3033: 03 05 80  bbs0  $05,$2fb5
3036: 0a c4 03  or1   c,$0078,4
3039: 05 80 0a  or    a,$0a80
303c: c6        mov   (x),a
303d: 03 fb ff  bbs0  $fb,$303e
3040: 42 30     set2  $30
3042: 0a 00 0a  or1   c,$0140,0
3045: 87 03     adc   a,($03+x)
3047: ff        stop
3048: 4a 30 13  and1  c,$0266,0
304b: 60        clrc
304c: 0a a4 10  or1   c,$0214,4
304f: 13 10 0a  bbc0  $10,$305b
3052: a4 07     sbc   a,$07
3054: ff        stop
3055: 57 30     eor   a,($30)+y
3057: 0c 60 0a  asl   $0a60
305a: b0 02     bcs   $305e
305c: ff        stop
305d: 5f 30 03  jmp   $0330
3060: 60        clrc
3061: 0a 9c 04  or1   c,$0093,4
3064: ff        stop
3065: 67 30     cmp   a,($30+x)
3067: f5 90 c7  mov   a,$c790+x
306a: 15 90 0a  or    a,$0a90+x
306d: b0 15     bcs   $3084
306f: ff        stop
3070: 72 30     clr3  $30
3072: 03 40 0a  bbs0  $40,$307e
3075: 9c        dec   a
3076: 03 ff 7a  bbs0  $ff,$30f2
3079: 30 ff     bmi   $307a
307b: 7d        mov   a,x
307c: 30 05     bmi   $3083
307e: 90 0a     bcc   $308a
3080: 9c        dec   a
3081: 0b f5     asl   $f5
3083: f0 c2     beq   $3047
3085: 05 90 0a  or    a,$0a90
3088: 9c        dec   a
3089: 12 ff     clr0  $ff
308b: 8d 30     mov   y,#$30
308d: 05 90 0a  or    a,$0a90
3090: 9c        dec   a
3091: 0b f5     asl   $f5
3093: f0 80     beq   $3015
3095: 05 90 0a  or    a,$0a90
3098: 9c        dec   a
3099: 12 ff     clr0  $ff
309b: 9d        mov   x,sp
309c: 30 08     bmi   $30a6
309e: 70 0a     bvs   $30aa
30a0: 99        adc   (x),(y)
30a1: 03 08 70  bbs0  $08,$3113
30a4: 0a 9c 05  or1   c,$00b3,4
30a7: ff        stop
30a8: aa 30 07  mov1  c,$00e6,0
30ab: 30 0a     bmi   $30b7
30ad: c7 04     mov   ($04+x),a
30af: 07 40     or    a,($40+x)
30b1: 0a c7 05  or1   c,$00b8,7
30b4: 07 50     or    a,($50+x)
30b6: 0a c7 06  or1   c,$00d8,7
30b9: 07 60     or    a,($60+x)
30bb: 0a c7 07  or1   c,$00f8,7
30be: 07 70     or    a,($70+x)
30c0: 0a c7 09  or1   c,$0138,7
30c3: 07 80     or    a,($80+x)
30c5: 0a c7 0d  or1   c,$01b8,7
30c8: 07 80     or    a,($80+x)
30ca: 0a c7 0f  or1   c,$01f8,7
30cd: fe 00     dbnz  y,$30cf
30cf: 07 80     or    a,($80+x)
30d1: 0a c7 10  or1   c,$0218,7
30d4: fb ff     mov   y,$ff+x
30d6: d8 30     mov   $30,x
30d8: fe 00     dbnz  y,$30da
30da: 07 80     or    a,($80+x)
30dc: 0a c7 10  or1   c,$0218,7
30df: fb ff     mov   y,$ff+x
30e1: e7 30     mov   a,($30+x)
30e3: 18 31 21  or    $21,#$31
30e6: 31        tcall 3
30e7: fe 00     dbnz  y,$30e9
30e9: 23 d0 0a  bbs1  $d0,$30f5
30ec: 89 07 23  adc   ($23),($07)
30ef: d0 0a     bne   $30fb
30f1: 8b 07     dec   $07
30f3: 23 d0 0a  bbs1  $d0,$30ff
30f6: 8c 07 23  dec   $2307
30f9: d0 0a     bne   $3105
30fb: 8e        pop   psw
30fc: 07 23     or    a,($23+x)
30fe: d0 0a     bne   $310a
3100: 90 07     bcc   $3109
3102: 23 d0 0a  bbs1  $d0,$310e
3105: 91        tcall 9
3106: 07 23     or    a,($23+x)
3108: d0 0a     bne   $3114
310a: 93 07 23  bbc4  $07,$312f
310d: d0 0a     bne   $3119
310f: 95 07 23  adc   a,$2307+x
3112: d0 0a     bne   $311e
3114: 97 07     adc   a,($07)+y
3116: fb ff     mov   y,$ff+x
3118: fe 00     dbnz  y,$311a
311a: 06        or    a,(x)
311b: d0 0a     bne   $3127
311d: ba f0     movw  ya,$f0
311f: fb ff     mov   y,$ff+x
3121: fe 00     dbnz  y,$3123
3123: 06        or    a,(x)
3124: d0 0a     bne   $3130
3126: b3 f0 fb  bbc5  $f0,$3123
3129: ff        stop
312a: 2e 31 65  cbne  $31,$3191
312d: 2c f5 70  rol   $70f5
3130: c7 05     mov   ($05+x),a
3132: 50 0a     bvc   $313e
3134: c0        di
3135: 03 fe 00  bbs0  $fe,$3137
3138: 07 60     or    a,($60+x)
313a: 0a c7 30  or1   c,$0618,7
313d: fb ff     mov   y,$ff+x
313f: 43 31 49  bbs2  $31,$318a
3142: 31        tcall 3
3143: 24 a0     and   a,$a0
3145: 0a 9c 20  or1   c,$0413,4
3148: ff        stop
3149: 24 00     and   a,$00
314b: 0a 9d 05  or1   c,$00b3,5
314e: 24 80     and   a,$80
3150: 0a 95 40  or1   c,$0812,5
3153: ff        stop
3154: 5f af 32  jmp   $32af

3157: eb 0a     mov   y,$0a      ;Subroutine 3157: Looks like a parallel of 1EE7 for byte 2 instead of byte 1.
3159: e4 02     mov   a,$02
315b: c4 0a     mov   $0a,a
315d: c4 06     mov   $06,a
315f: 7e 02     cmp   y,$02
3161: d0 06     bne   $3169
3163: e5 f8 03  mov   a,$03f8
3166: d0 ec     bne   $3154
3168: 6f        ret
3169: 68 00     cmp   a,#$00
316b: f0 f6     beq   $3163
316d: e4 02     mov   a,$02
316f: 68 71     cmp   a,#$71
3171: f0 09     beq   $317c
3173: 68 7e     cmp   a,#$7e
3175: f0 05     beq   $317c
3177: e5 bc 04  mov   a,$04bc
317a: d0 e7     bne   $3163
317c: e5 f8 03  mov   a,$03f8
317f: f0 0b     beq   $318c
3181: e8 00     mov   a,#$00
3183: c5 4d 04  mov   $044d,a
3186: 3f 6d 36  call  $366d
3189: 3f b0 36  call  $36b0
318c: e8 00     mov   a,#$00
318e: c5 67 04  mov   $0467,a
3191: c5 6e 04  mov   $046e,a
3194: e4 06     mov   a,$06
3196: 9c        dec   a
3197: 1c        asl   a
3198: c5 f9 03  mov   $03f9,a
319b: e9 f9 03  mov   x,$03f9
319e: f5 b3 39  mov   a,$39b3+x
31a1: c4 d4     mov   $d4,a
31a3: 3d        inc   x
31a4: f5 b3 39  mov   a,$39b3+x
31a7: c4 d5     mov   $d5,a
31a9: e4 06     mov   a,$06
31ab: c5 f8 03  mov   $03f8,a
31ae: 3f 75 28  call  $2875       ;This assumably does not return to here
31b1: b7 38     sbc   a,($38)+y
31b3: b7 38     sbc   a,($38)+y
31b5: b7 38     sbc   a,($38)+y
31b7: b7 38     sbc   a,($38)+y
31b9: b7 38     sbc   a,($38)+y
31bb: bb 38     inc   $38+x
31bd: bb 38     inc   $38+x
31bf: bf        mov   a,(x)+
31c0: 38 c3 38  and   $38,#$c3
31c3: c3 38 c3  bbs6  $38,$3188
31c6: 38 c3 38  and   $38,#$c3
31c9: c3 38 c3  bbs6  $38,$318e
31cc: 38 c3 38  and   $38,#$c3
31cf: c3 38 c3  bbs6  $38,$3194
31d2: 38 c3 38  and   $38,#$c3
31d5: c3 38 c3  bbs6  $38,$319a
31d8: 38 c3 38  and   $38,#$c3
31db: c7 38     mov   ($38+x),a
31dd: c7 38     mov   ($38+x),a
31df: cb 38     mov   $38,y
31e1: cf        mul   ya
31e2: 38 d3 38  and   $38,#$d3
31e5: d7 38     mov   ($38)+y,a
31e7: db 38     mov   $38+x,y
31e9: df        daa   a
31ea: 38 e3 38  and   $38,#$e3
31ed: e7 38     mov   a,($38+x)
31ef: eb 38     mov   y,$38
31f1: eb 38     mov   y,$38
31f3: eb 38     mov   y,$38
31f5: eb 38     mov   y,$38
31f7: eb 38     mov   y,$38
31f9: eb 38     mov   y,$38
31fb: eb 38     mov   y,$38
31fd: ef        sleep
31fe: 38 f3 38  and   $38,#$f3
3201: f3 38 f3  bbc7  $38,$31f6
3204: 38 f3 38  and   $38,#$f3
3207: f7 38     mov   a,($38)+y
3209: fb 38     mov   y,$38+x
320b: ff        stop
320c: 38 03 39  and   $39,#$03
320f: 03 39 03  bbs0  $39,$3214
3212: 39        and   (x),(y)
3213: 03 39 03  bbs0  $39,$3218
3216: 39        and   (x),(y)
3217: 03 39 07  bbs0  $39,$3220
321a: 39        and   (x),(y)
321b: 0b 39     asl   $39
321d: 0f        brk
321e: 39        and   (x),(y)
321f: 0f        brk
3220: 39        and   (x),(y)
3221: 13 39 13  bbc0  $39,$3236
3224: 39        and   (x),(y)
3225: 13 39 13  bbc0  $39,$323a
3228: 39        and   (x),(y)
3229: 13 39 13  bbc0  $39,$323e
322c: 39        and   (x),(y)
322d: 13 39 13  bbc0  $39,$3242
3230: 39        and   (x),(y)
3231: 13 39 13  bbc0  $39,$3246
3234: 39        and   (x),(y)
3235: 13 39 13  bbc0  $39,$324a
3238: 39        and   (x),(y)
3239: 13 39 17  bbc0  $39,$3252
323c: 39        and   (x),(y)
323d: 1b 39     asl   $39+x
323f: 1b 39     asl   $39+x
3241: 1b 39     asl   $39+x
3243: 1b 39     asl   $39+x
3245: 1b 39     asl   $39+x
3247: 1b 39     asl   $39+x
3249: 1b 39     asl   $39+x
324b: 1f 39 23  jmp   ($2339+x)
324e: 39        and   (x),(y)
324f: 27 39     and   a,($39+x)
3251: 27 39     and   a,($39+x)
3253: 2b 39     rol   $39
3255: 2b 39     rol   $39
3257: 2f 39     bra   $3292
3259: 33 39 37  bbc1  $39,$3292
325c: 39        and   (x),(y)
325d: 3b 39     rol   $39+x
325f: 3f 39 43  call  $4339
3262: 39        and   (x),(y)
3263: 47 39     eor   a,($39+x)
3265: 4b 39     lsr   $39
3267: 4b 39     lsr   $39
3269: 4b 39     lsr   $39
326b: 4b 39     lsr   $39
326d: 4b 39     lsr   $39
326f: 4b 39     lsr   $39
3271: 4b 39     lsr   $39
3273: 4b 39     lsr   $39
3275: 4f 39     pcall $39
3277: 53 39 53  bbc2  $39,$32cc
327a: 39        and   (x),(y)
327b: 53 39 53  bbc2  $39,$32d0
327e: 39        and   (x),(y)
327f: 53 39 53  bbc2  $39,$32d4
3282: 39        and   (x),(y)
3283: 53 39 53  bbc2  $39,$32d8
3286: 39        and   (x),(y)
3287: 53 39 53  bbc2  $39,$32dc
328a: 39        and   (x),(y)
328b: 57 39     eor   a,($39)+y
328d: 5b 39     lsr   $39+x
328f: 5f 39 5f  jmp   $5f39
3292: 39        and   (x),(y)
3293: 63 39 63  bbs3  $39,$32f8
3296: 39        and   (x),(y)
3297: 63 39 67  bbs3  $39,$3300
329a: 39        and   (x),(y)
329b: 6b 39     ror   $39
329d: 6f        ret
329e: 39        and   (x),(y)
329f: 73 39 77  bbc3  $39,$3318
32a2: 39        and   (x),(y)
32a3: 77 39     cmp   a,($39)+y
32a5: 77 39     cmp   a,($39)+y
32a7: 7b 39     ror   $39+x
32a9: 7f        reti
32aa: 39        and   (x),(y)
32ab: 7f        reti
32ac: 39        and   (x),(y)
32ad: 83 39 e8  bbs4  $39,$3297
32b0: ff        stop
32b1: 65 44 04  cmp   a,$0444
32b4: f0 3a     beq   $32f0
32b6: 3f 22 37  call  $3722
32b9: 8d 00     mov   y,#$00
32bb: f7 d4     mov   a,($d4)+y
32bd: c4 dc     mov   $dc,a
32bf: 3f af 38  call  $38af
32c2: c4 dd     mov   $dd,a
32c4: 3f af 38  call  $38af
32c7: c4 de     mov   $de,a
32c9: 3f af 38  call  $38af
32cc: c4 df     mov   $df,a
32ce: e5 4b 04  mov   a,$044b
32d1: 3f b3 38  call  $38b3
32d4: c5 4e 04  mov   $044e,a
32d7: e5 4c 04  mov   a,$044c
32da: 3f b3 38  call  $38b3
32dd: c5 4f 04  mov   $044f,a
32e0: 8d 00     mov   y,#$00
32e2: cc fa 03  mov   $03fa,y
32e5: cc fb 03  mov   $03fb,y
32e8: 8d 01     mov   y,#$01
32ea: cc fc 03  mov   $03fc,y
32ed: cc fd 03  mov   $03fd,y
32f0: e8 ff     mov   a,#$ff
32f2: 65 fe 03  cmp   a,$03fe
32f5: d0 03     bne   $32fa
32f7: 5f b0 34  jmp   $34b0
32fa: 8c fc 03  dec   $03fc
32fd: f0 03     beq   $3302
32ff: 5f 43 34  jmp   $3443
3302: e5 67 04  mov   a,$0467
3305: f0 02     beq   $3309
3307: 2f 43     bra   $334c
3309: e8 00     mov   a,#$00
330b: c5 66 04  mov   $0466,a
330e: c5 64 04  mov   $0464,a
3311: c5 65 04  mov   $0465,a
3314: e8 ff     mov   a,#$ff
3316: 65 54 04  cmp   a,$0454
3319: f0 16     beq   $3331
331b: e5 46 04  mov   a,$0446
331e: 04 46     or    a,$46
3320: c4 46     mov   $46,a
3322: e8 02     mov   a,#$02
3324: c5 55 04  mov   $0455,a
3327: e8 01     mov   a,#$01
3329: c5 fc 03  mov   $03fc,a
332c: e8 ff     mov   a,#$ff
332e: c5 54 04  mov   $0454,a
3331: 8c 55 04  dec   $0455
3334: f0 03     beq   $3339
3336: 5f b0 34  jmp   $34b0
3339: e8 00     mov   a,#$00
333b: c5 54 04  mov   $0454,a
333e: e5 48 04  mov   a,$0448
3341: 24 47     and   a,$47
3343: c4 47     mov   $47,a
3345: e5 48 04  mov   a,$0448
3348: 24 49     and   a,$49
334a: c4 49     mov   $49,a
334c: 3f 04 37  call  $3704
334f: 68 fa     cmp   a,#$fa
3351: d0 00     bne   $3353
3353: 68 f9     cmp   a,#$f9
3355: d0 14     bne   $336b
3357: 3f 04 37  call  $3704
335a: c5 5c 04  mov   $045c,a
335d: 3f 04 37  call  $3704
3360: c5 5d 04  mov   $045d,a
3363: e8 ff     mov   a,#$ff
3365: c5 60 04  mov   $0460,a
3368: 5f 4c 33  jmp   $334c
336b: 68 f5     cmp   a,#$f5
336d: d0 05     bne   $3374
336f: c5 68 04  mov   $0468,a
3372: 2f 09     bra   $337d
3374: 68 f8     cmp   a,#$f8
3376: d0 19     bne   $3391
3378: e8 00     mov   a,#$00
337a: c5 68 04  mov   $0468,a
337d: 3f 04 37  call  $3704
3380: c5 64 04  mov   $0464,a
3383: 3f 04 37  call  $3704
3386: c5 65 04  mov   $0465,a
3389: e8 ff     mov   a,#$ff
338b: c5 66 04  mov   $0466,a
338e: 3f 04 37  call  $3704
3391: 68 ff     cmp   a,#$ff
3393: d0 06     bne   $339b
3395: 3f 6d 36  call  $366d
3398: 5f b0 34  jmp   $34b0
339b: 68 fe     cmp   a,#$fe
339d: d0 0f     bne   $33ae
339f: 3f 04 37  call  $3704
33a2: c5 58 04  mov   $0458,a
33a5: e5 fa 03  mov   a,$03fa
33a8: c5 5a 04  mov   $045a,a
33ab: 3f 04 37  call  $3704
33ae: 68 fd     cmp   a,#$fd
33b0: d0 11     bne   $33c3
33b2: 8c 58 04  dec   $0458
33b5: d0 03     bne   $33ba
33b7: 5f 4c 33  jmp   $334c
33ba: e5 5a 04  mov   a,$045a
33bd: c5 fa 03  mov   $03fa,a
33c0: 3f 04 37  call  $3704
33c3: 68 fb     cmp   a,#$fb
33c5: d0 03     bne   $33ca
33c7: 5f ba 33  jmp   $33ba
33ca: 68 fc     cmp   a,#$fc
33cc: d0 0a     bne   $33d8
33ce: e5 46 04  mov   a,$0446
33d1: 04 49     or    a,$49
33d3: c4 49     mov   $49,a
33d5: 5f 4c 33  jmp   $334c
33d8: e9 4b 04  mov   x,$044b
33db: 3f fc 18  call  $18fc
33de: 3f 04 37  call  $3704
33e1: e9 4b 04  mov   x,$044b
33e4: d5 21 03  mov   $0321+x,a
33e7: e8 00     mov   a,#$00
33e9: d5 51 03  mov   $0351+x,a
33ec: 3f 04 37  call  $3704
33ef: c4 11     mov   $11,a
33f1: 8f 00 10  mov   $10,#$00
33f4: 3f 4a 1c  call  $1c4a
33f7: 3f 04 37  call  $3704
33fa: 68 f6     cmp   a,#$f6
33fc: f0 08     beq   $3406
33fe: c5 62 04  mov   $0462,a
3401: e8 00     mov   a,#$00
3403: c5 63 04  mov   $0463,a
3406: ec 62 04  mov   y,$0462
3409: e5 63 04  mov   a,$0463
340c: da 10     movw  $10,ya
340e: e9 4b 04  mov   x,$044b
3411: 3f b1 16  call  $16b1
3414: 3f 04 37  call  $3704
3417: c5 fc 03  mov   $03fc,a
341a: e5 60 04  mov   a,$0460
341d: f0 18     beq   $3437
341f: e5 4e 04  mov   a,$044e
3422: 08 05     or    a,#$05
3424: fd        mov   y,a
3425: e5 5c 04  mov   a,$045c
3428: 3f 26 17  call  $1726
342b: e5 4e 04  mov   a,$044e
342e: 08 06     or    a,#$06
3430: fd        mov   y,a
3431: e5 5d 04  mov   a,$045d
3434: 3f 26 17  call  $1726
3437: e5 67 04  mov   a,$0467
343a: d0 07     bne   $3443
343c: e5 46 04  mov   a,$0446
343f: 04 45     or    a,$45
3441: c4 45     mov   $45,a
3443: 00        nop
3444: 00        nop
3445: 00        nop
3446: 00        nop
3447: 00        nop
3448: 00        nop
3449: e5 66 04  mov   a,$0466
344c: 68 ff     cmp   a,#$ff
344e: d0 60     bne   $34b0
3450: e5 68 04  mov   a,$0468
3453: f0 05     beq   $345a
3455: e8 ff     mov   a,#$ff
3457: c5 67 04  mov   $0467,a
345a: e5 62 04  mov   a,$0462
345d: 65 65 04  cmp   a,$0465
3460: 90 21     bcc   $3483
3462: e5 63 04  mov   a,$0463
3465: 80        setc
3466: a5 64 04  sbc   a,$0464
3469: c5 63 04  mov   $0463,a
346c: b0 34     bcs   $34a2
346e: 8c 62 04  dec   $0462
3471: e5 65 04  mov   a,$0465
3474: 65 62 04  cmp   a,$0462
3477: d0 29     bne   $34a2
3479: e8 00     mov   a,#$00
347b: c5 66 04  mov   $0466,a
347e: c5 67 04  mov   $0467,a
3481: 2f 1f     bra   $34a2
3483: e5 64 04  mov   a,$0464
3486: 60        clrc
3487: 85 63 04  adc   a,$0463
348a: c5 63 04  mov   $0463,a
348d: 90 13     bcc   $34a2
348f: ac 62 04  inc   $0462
3492: e5 65 04  mov   a,$0465
3495: 65 62 04  cmp   a,$0462
3498: d0 08     bne   $34a2
349a: e8 00     mov   a,#$00
349c: c5 66 04  mov   $0466,a
349f: c5 67 04  mov   $0467,a
34a2: e5 63 04  mov   a,$0463
34a5: ec 62 04  mov   y,$0462
34a8: da 10     movw  $10,ya
34aa: e9 4b 04  mov   x,$044b
34ad: 3f b1 16  call  $16b1
34b0: e8 ff     mov   a,#$ff
34b2: 65 ff 03  cmp   a,$03ff
34b5: d0 03     bne   $34ba
34b7: 5f 6c 36  jmp   $366c
34ba: 8c fd 03  dec   $03fd
34bd: f0 03     beq   $34c2
34bf: 5f ff 35  jmp   $35ff
34c2: e5 6e 04  mov   a,$046e
34c5: f0 02     beq   $34c9
34c7: 2f 43     bra   $350c
34c9: e8 00     mov   a,#$00
34cb: c5 6d 04  mov   $046d,a
34ce: c5 6b 04  mov   $046b,a
34d1: c5 6c 04  mov   $046c,a
34d4: e8 ff     mov   a,#$ff
34d6: 65 56 04  cmp   a,$0456
34d9: f0 16     beq   $34f1
34db: e5 47 04  mov   a,$0447
34de: 04 46     or    a,$46
34e0: c4 46     mov   $46,a
34e2: e8 02     mov   a,#$02
34e4: c5 57 04  mov   $0457,a
34e7: e8 01     mov   a,#$01
34e9: c5 fd 03  mov   $03fd,a
34ec: e8 ff     mov   a,#$ff
34ee: c5 56 04  mov   $0456,a
34f1: 8c 57 04  dec   $0457
34f4: f0 03     beq   $34f9
34f6: 5f 6c 36  jmp   $366c
34f9: e8 00     mov   a,#$00
34fb: c5 56 04  mov   $0456,a
34fe: e5 49 04  mov   a,$0449
3501: 24 47     and   a,$47
3503: c4 47     mov   $47,a
3505: e5 49 04  mov   a,$0449
3508: 24 49     and   a,$49
350a: c4 49     mov   $49,a
350c: 3f 0d 37  call  $370d
350f: 68 f9     cmp   a,#$f9
3511: d0 14     bne   $3527
3513: 3f 0d 37  call  $370d
3516: c5 5e 04  mov   $045e,a
3519: 3f 0d 37  call  $370d
351c: c5 5f 04  mov   $045f,a
351f: e8 ff     mov   a,#$ff
3521: c5 61 04  mov   $0461,a
3524: 5f 0c 35  jmp   $350c
3527: 68 f5     cmp   a,#$f5
3529: d0 05     bne   $3530
352b: c5 6f 04  mov   $046f,a
352e: 2f 09     bra   $3539
3530: 68 f8     cmp   a,#$f8
3532: d0 19     bne   $354d
3534: e8 00     mov   a,#$00
3536: c5 6f 04  mov   $046f,a
3539: 3f 0d 37  call  $370d
353c: c5 6b 04  mov   $046b,a
353f: 3f 0d 37  call  $370d
3542: c5 6c 04  mov   $046c,a
3545: e8 ff     mov   a,#$ff
3547: c5 6d 04  mov   $046d,a
354a: 3f 0d 37  call  $370d
354d: 68 ff     cmp   a,#$ff
354f: d0 06     bne   $3557
3551: 3f b0 36  call  $36b0
3554: 5f 6c 36  jmp   $366c
3557: 68 fe     cmp   a,#$fe
3559: d0 0f     bne   $356a
355b: 3f 0d 37  call  $370d
355e: c5 59 04  mov   $0459,a
3561: e5 fb 03  mov   a,$03fb
3564: c5 5b 04  mov   $045b,a
3567: 3f 0d 37  call  $370d
356a: 68 fd     cmp   a,#$fd
356c: d0 11     bne   $357f
356e: 8c 59 04  dec   $0459
3571: d0 03     bne   $3576
3573: 5f 0c 35  jmp   $350c
3576: e5 5b 04  mov   a,$045b
3579: c5 fb 03  mov   $03fb,a
357c: 3f 0d 37  call  $370d
357f: 68 fb     cmp   a,#$fb
3581: d0 03     bne   $3586
3583: 5f 76 35  jmp   $3576
3586: 68 fc     cmp   a,#$fc
3588: d0 0a     bne   $3594
358a: e5 47 04  mov   a,$0447
358d: 04 49     or    a,$49
358f: c4 49     mov   $49,a
3591: 5f 0c 35  jmp   $350c
3594: e9 4c 04  mov   x,$044c
3597: 3f fc 18  call  $18fc
359a: 3f 0d 37  call  $370d
359d: e9 4c 04  mov   x,$044c
35a0: d5 21 03  mov   $0321+x,a
35a3: e8 00     mov   a,#$00
35a5: d5 51 03  mov   $0351+x,a
35a8: 3f 0d 37  call  $370d
35ab: c4 11     mov   $11,a
35ad: 8f 00 10  mov   $10,#$00
35b0: 3f 4a 1c  call  $1c4a
35b3: 3f 0d 37  call  $370d
35b6: 68 f6     cmp   a,#$f6
35b8: f0 08     beq   $35c2
35ba: c5 69 04  mov   $0469,a
35bd: e8 00     mov   a,#$00
35bf: c5 6a 04  mov   $046a,a
35c2: ec 69 04  mov   y,$0469
35c5: e5 6a 04  mov   a,$046a
35c8: da 10     movw  $10,ya
35ca: e9 4c 04  mov   x,$044c
35cd: 3f b1 16  call  $16b1
35d0: 3f 0d 37  call  $370d
35d3: c5 fd 03  mov   $03fd,a
35d6: e5 61 04  mov   a,$0461
35d9: f0 18     beq   $35f3
35db: e5 4f 04  mov   a,$044f
35de: 08 05     or    a,#$05
35e0: fd        mov   y,a
35e1: e5 5e 04  mov   a,$045e
35e4: 3f 26 17  call  $1726
35e7: e5 4f 04  mov   a,$044f
35ea: 08 06     or    a,#$06
35ec: fd        mov   y,a
35ed: e5 5f 04  mov   a,$045f
35f0: 3f 26 17  call  $1726
35f3: e5 6e 04  mov   a,$046e
35f6: d0 07     bne   $35ff
35f8: e5 47 04  mov   a,$0447
35fb: 04 45     or    a,$45
35fd: c4 45     mov   $45,a
35ff: 00        nop
3600: 00        nop
3601: 00        nop
3602: 00        nop
3603: 00        nop
3604: 00        nop
3605: e5 6d 04  mov   a,$046d
3608: 68 ff     cmp   a,#$ff
360a: d0 60     bne   $366c
360c: e5 6f 04  mov   a,$046f
360f: f0 05     beq   $3616
3611: e8 ff     mov   a,#$ff
3613: c5 6e 04  mov   $046e,a
3616: e5 69 04  mov   a,$0469
3619: 65 6c 04  cmp   a,$046c
361c: 90 21     bcc   $363f
361e: e5 6a 04  mov   a,$046a
3621: 80        setc
3622: a5 6b 04  sbc   a,$046b
3625: c5 6a 04  mov   $046a,a
3628: b0 34     bcs   $365e
362a: 8c 69 04  dec   $0469
362d: e5 6c 04  mov   a,$046c
3630: 65 69 04  cmp   a,$0469
3633: d0 29     bne   $365e
3635: e8 00     mov   a,#$00
3637: c5 6d 04  mov   $046d,a
363a: c5 6e 04  mov   $046e,a
363d: 2f 1f     bra   $365e
363f: e5 6b 04  mov   a,$046b
3642: 60        clrc
3643: 85 6a 04  adc   a,$046a
3646: c5 6a 04  mov   $046a,a
3649: 90 13     bcc   $365e
364b: ac 69 04  inc   $0469
364e: e5 6c 04  mov   a,$046c
3651: 65 69 04  cmp   a,$0469
3654: d0 08     bne   $365e
3656: e8 00     mov   a,#$00
3658: c5 6d 04  mov   $046d,a
365b: c5 6e 04  mov   $046e,a
365e: e5 6a 04  mov   a,$046a
3661: ec 69 04  mov   y,$0469
3664: da 10     movw  $10,ya
3666: e9 4c 04  mov   x,$044c
3669: 3f b1 16  call  $16b1
366c: 6f        ret
366d: e8 ff     mov   a,#$ff
366f: c5 fe 03  mov   $03fe,a
3672: e8 00     mov   a,#$00
3674: c5 60 04  mov   $0460,a
3677: e5 4d 04  mov   a,$044d
367a: 25 48 04  and   a,$0448
367d: c5 4d 04  mov   $044d,a
3680: e4 1a     mov   a,$1a
3682: 25 48 04  and   a,$0448
3685: c4 1a     mov   $1a,a
3687: e4 47     mov   a,$47
3689: 05 46 04  or    a,$0446
368c: c4 47     mov   $47,a
368e: e4 46     mov   a,$46
3690: 05 46 04  or    a,$0446
3693: c4 46     mov   $46,a
3695: e9 4b 04  mov   x,$044b
3698: f5 11 02  mov   a,$0211+x
369b: 3f fc 18  call  $18fc
369e: e9 4b 04  mov   x,$044b
36a1: e5 50 04  mov   a,$0450
36a4: d5 21 03  mov   $0321+x,a
36a7: e5 51 04  mov   a,$0451
36aa: d5 51 03  mov   $0351+x,a
36ad: 5f f3 36  jmp   $36f3
36b0: e8 ff     mov   a,#$ff
36b2: c5 ff 03  mov   $03ff,a
36b5: e8 00     mov   a,#$00
36b7: c5 61 04  mov   $0461,a
36ba: e5 4d 04  mov   a,$044d
36bd: 25 49 04  and   a,$0449
36c0: c5 4d 04  mov   $044d,a
36c3: e4 1a     mov   a,$1a
36c5: 25 49 04  and   a,$0449
36c8: c4 1a     mov   $1a,a
36ca: e4 47     mov   a,$47
36cc: 05 47 04  or    a,$0447
36cf: c4 47     mov   $47,a
36d1: e4 46     mov   a,$46
36d3: 05 47 04  or    a,$0447
36d6: c4 46     mov   $46,a
36d8: e9 4c 04  mov   x,$044c
36db: f5 11 02  mov   a,$0211+x
36de: 3f fc 18  call  $18fc
36e1: e9 4c 04  mov   x,$044c
36e4: e5 52 04  mov   a,$0452
36e7: d5 21 03  mov   $0321+x,a
36ea: e5 53 04  mov   a,$0453
36ed: d5 51 03  mov   $0351+x,a
36f0: 5f f3 36  jmp   $36f3
36f3: e5 4d 04  mov   a,$044d
36f6: d0 0b     bne   $3703
36f8: e8 00     mov   a,#$00
36fa: c5 f8 03  mov   $03f8,a
36fd: c5 bc 04  mov   $04bc,a
3700: c5 44 04  mov   $0444,a
3703: 6f        ret
3704: ec fa 03  mov   y,$03fa
3707: f7 dc     mov   a,($dc)+y
3709: ac fa 03  inc   $03fa
370c: 6f        ret
370d: ec fb 03  mov   y,$03fb
3710: f7 de     mov   a,($de)+y
3712: ac fb 03  inc   $03fb
3715: 6f        ret
3716: 46        eor   a,(x)
3717: 04 47     or    a,$47
3719: 04 48     or    a,$48
371b: 04 49     or    a,$49
371d: 04 4b     or    a,$4b
371f: 04 4c     or    a,$4c
3721: 04 e8     or    a,$e8
3723: 09 c5 45  or    ($45),($c5)
3726: 04 e4     or    a,$e4
3728: 1a c5     decw  $c5
372a: 43 04 e8  bbs2  $04,$3714
372d: ff        stop
372e: c5 44 04  mov   $0444,a
3731: e8 00     mov   a,#$00
3733: c5 4a 04  mov   $044a,a
3736: c5 40 04  mov   $0440,a
3739: c5 46 04  mov   $0446,a
373c: c5 47 04  mov   $0447,a
373f: c5 4b 04  mov   $044b,a
3742: c5 4c 04  mov   $044c,a
3745: e8 ff     mov   a,#$ff
3747: c5 48 04  mov   $0448,a
374a: c5 49 04  mov   $0449,a
374d: c5 fe 03  mov   $03fe,a
3750: c5 ff 03  mov   $03ff,a
3753: 8c 45 04  dec   $0445
3756: f0 7e     beq   $37d6
3758: 0c 43 04  asl   $0443
375b: b0 f6     bcs   $3753
375d: e8 00     mov   a,#$00
375f: 65 41 04  cmp   a,$0441
3762: f0 72     beq   $37d6
3764: 8c 41 04  dec   $0441
3767: e8 00     mov   a,#$00
3769: e9 40 04  mov   x,$0440
376c: d5 fe 03  mov   $03fe+x,a
376f: ac 40 04  inc   $0440
3772: e5 4a 04  mov   a,$044a
3775: 5d        mov   x,a
3776: fd        mov   y,a
3777: f5 16 37  mov   a,$3716+x
377a: c4 d6     mov   $d6,a
377c: f5 1a 37  mov   a,$371a+x
377f: c4 d8     mov   $d8,a
3781: f5 1e 37  mov   a,$371e+x
3784: c4 da     mov   $da,a
3786: 3d        inc   x
3787: f5 16 37  mov   a,$3716+x
378a: c4 d7     mov   $d7,a
378c: f5 1a 37  mov   a,$371a+x
378f: c4 d9     mov   $d9,a
3791: f5 1e 37  mov   a,$371e+x
3794: c4 db     mov   $db,a
3796: ac 4a 04  inc   $044a
3799: ac 4a 04  inc   $044a
379c: e5 45 04  mov   a,$0445
379f: c5 42 04  mov   $0442,a
37a2: 8c 42 04  dec   $0442
37a5: 60        clrc
37a6: 0c 42 04  asl   $0442
37a9: e9 42 04  mov   x,$0442
37ac: f5 21 03  mov   a,$0321+x
37af: d6 50 04  mov   $0450+y,a
37b2: fc        inc   y
37b3: f5 51 03  mov   a,$0351+x
37b6: d6 50 04  mov   $0450+y,a
37b9: 8d 00     mov   y,#$00
37bb: e5 42 04  mov   a,$0442
37be: d7 da     mov   ($da)+y,a
37c0: e5 45 04  mov   a,$0445
37c3: 3f 75 28  call  $2875
37c6: 94 38     adc   a,$38+x
37c8: 79        cmp   (x),(y)
37c9: 38 5e 38  and   $38,#$5e
37cc: 43 38 28  bbs2  $38,$37f6
37cf: 38 0d 38  and   $38,#$0d
37d2: f2 37     clr7  $37
37d4: d7 37     mov   ($37)+y,a
37d6: 6f        ret
37d7: e2 1a     set7  $1a
37d9: f2 47     clr7  $47
37db: f2 4a     clr7  $4a
37dd: e8 80     mov   a,#$80
37df: 05 4d 04  or    a,$044d
37e2: c5 4d 04  mov   $044d,a
37e5: 8d 00     mov   y,#$00
37e7: e8 80     mov   a,#$80
37e9: d7 d6     mov   ($d6)+y,a
37eb: e8 7f     mov   a,#$7f
37ed: d7 d8     mov   ($d8)+y,a
37ef: 5f 53 37  jmp   $3753
37f2: c2 1a     set6  $1a
37f4: d2 47     clr6  $47
37f6: d2 4a     clr6  $4a
37f8: e8 40     mov   a,#$40
37fa: 05 4d 04  or    a,$044d
37fd: c5 4d 04  mov   $044d,a
3800: 8d 00     mov   y,#$00
3802: e8 40     mov   a,#$40
3804: d7 d6     mov   ($d6)+y,a
3806: e8 bf     mov   a,#$bf
3808: d7 d8     mov   ($d8)+y,a
380a: 5f 53 37  jmp   $3753
380d: a2 1a     set5  $1a
380f: b2 47     clr5  $47
3811: b2 4a     clr5  $4a
3813: e8 20     mov   a,#$20
3815: 05 4d 04  or    a,$044d
3818: c5 4d 04  mov   $044d,a
381b: 8d 00     mov   y,#$00
381d: e8 20     mov   a,#$20
381f: d7 d6     mov   ($d6)+y,a
3821: e8 df     mov   a,#$df
3823: d7 d8     mov   ($d8)+y,a
3825: 5f 53 37  jmp   $3753
3828: 82 1a     set4  $1a
382a: 92 47     clr4  $47
382c: 92 4a     clr4  $4a
382e: e8 10     mov   a,#$10
3830: 05 4d 04  or    a,$044d
3833: c5 4d 04  mov   $044d,a
3836: 8d 00     mov   y,#$00
3838: e8 10     mov   a,#$10
383a: d7 d6     mov   ($d6)+y,a
383c: e8 ef     mov   a,#$ef
383e: d7 d8     mov   ($d8)+y,a
3840: 5f 53 37  jmp   $3753
3843: 62 1a     set3  $1a
3845: 72 47     clr3  $47
3847: 72 4a     clr3  $4a
3849: e8 08     mov   a,#$08
384b: 05 4d 04  or    a,$044d
384e: c5 4d 04  mov   $044d,a
3851: 8d 00     mov   y,#$00
3853: e8 08     mov   a,#$08
3855: d7 d6     mov   ($d6)+y,a
3857: e8 f7     mov   a,#$f7
3859: d7 d8     mov   ($d8)+y,a
385b: 5f 53 37  jmp   $3753
385e: 42 1a     set2  $1a
3860: 52 47     clr2  $47
3862: 52 4a     clr2  $4a
3864: e8 04     mov   a,#$04
3866: 05 4d 04  or    a,$044d
3869: c5 4d 04  mov   $044d,a
386c: 8d 00     mov   y,#$00
386e: e8 04     mov   a,#$04
3870: d7 d6     mov   ($d6)+y,a
3872: e8 fb     mov   a,#$fb
3874: d7 d8     mov   ($d8)+y,a
3876: 5f 53 37  jmp   $3753
3879: 22 1a     set1  $1a
387b: 32 47     clr1  $47
387d: 32 4a     clr1  $4a
387f: e8 02     mov   a,#$02
3881: 05 4d 04  or    a,$044d
3884: c5 4d 04  mov   $044d,a
3887: 8d 00     mov   y,#$00
3889: e8 02     mov   a,#$02
388b: d7 d6     mov   ($d6)+y,a
388d: e8 fd     mov   a,#$fd
388f: d7 d8     mov   ($d8)+y,a
3891: 5f 53 37  jmp   $3753
3894: 02 1a     set0  $1a
3896: 12 47     clr0  $47
3898: 12 4a     clr0  $4a
389a: e8 01     mov   a,#$01
389c: 05 4d 04  or    a,$044d
389f: c5 4d 04  mov   $044d,a
38a2: 8d 00     mov   y,#$00
38a4: e8 01     mov   a,#$01
38a6: d7 d6     mov   ($d6)+y,a
38a8: e8 fe     mov   a,#$fe
38aa: d7 d8     mov   ($d8)+y,a
38ac: 5f 53 37  jmp   $3753
38af: fc        inc   y
38b0: f7 d4     mov   a,($d4)+y
38b2: 6f        ret
38b3: 1c        asl   a
38b4: 1c        asl   a
38b5: 1c        asl   a
38b6: 6f        ret
38b7: 3f 92 39  call  $3992
38ba: 6f        ret
38bb: 3f 87 39  call  $3987
38be: 6f        ret
38bf: 3f 87 39  call  $3987
38c2: 6f        ret
38c3: 3f 87 39  call  $3987
38c6: 6f        ret
38c7: 3f 92 39  call  $3992
38ca: 6f        ret
38cb: 3f 87 39  call  $3987
38ce: 6f        ret
38cf: 3f 9d 39  call  $399d
38d2: 6f        ret
38d3: 3f 9d 39  call  $399d
38d6: 6f        ret
38d7: 3f 87 39  call  $3987
38da: 6f        ret
38db: 3f 92 39  call  $3992
38de: 6f        ret
38df: 3f 87 39  call  $3987
38e2: 6f        ret
38e3: 3f a8 39  call  $39a8
38e6: 6f        ret
38e7: 3f 92 39  call  $3992
38ea: 6f        ret
38eb: 3f 87 39  call  $3987
38ee: 6f        ret
38ef: 3f a8 39  call  $39a8
38f2: 6f        ret
38f3: 3f 87 39  call  $3987
38f6: 6f        ret
38f7: 3f a8 39  call  $39a8
38fa: 6f        ret
38fb: 3f 92 39  call  $3992
38fe: 6f        ret
38ff: 3f a8 39  call  $39a8
3902: 6f        ret
3903: 3f 87 39  call  $3987
3906: 6f        ret
3907: 3f 92 39  call  $3992
390a: 6f        ret
390b: 3f 87 39  call  $3987
390e: 6f        ret
390f: 3f 9d 39  call  $399d
3912: 6f        ret
3913: 3f 87 39  call  $3987
3916: 6f        ret
3917: 3f 92 39  call  $3992
391a: 6f        ret
391b: 3f 87 39  call  $3987
391e: 6f        ret
391f: 3f a8 39  call  $39a8
3922: 6f        ret
3923: 3f 87 39  call  $3987
3926: 6f        ret
3927: 3f a8 39  call  $39a8
392a: 6f        ret
392b: 3f 87 39  call  $3987
392e: 6f        ret
392f: 3f 92 39  call  $3992
3932: 6f        ret
3933: 3f 87 39  call  $3987
3936: 6f        ret
3937: 3f 9d 39  call  $399d
393a: 6f        ret
393b: 3f 87 39  call  $3987
393e: 6f        ret
393f: 3f 9d 39  call  $399d
3942: 6f        ret
3943: 3f a8 39  call  $39a8
3946: 6f        ret
3947: 3f 9d 39  call  $399d
394a: 6f        ret
394b: 3f 87 39  call  $3987
394e: 6f        ret
394f: 3f 9d 39  call  $399d
3952: 6f        ret
3953: 3f 87 39  call  $3987
3956: 6f        ret
3957: 3f a8 39  call  $39a8
395a: 6f        ret
395b: 3f a8 39  call  $39a8
395e: 6f        ret
395f: 3f 87 39  call  $3987
3962: 6f        ret
3963: 3f a8 39  call  $39a8
3966: 6f        ret
3967: 3f a8 39  call  $39a8
396a: 6f        ret
396b: 3f 87 39  call  $3987
396e: 6f        ret
396f: 3f a8 39  call  $39a8
3972: 6f        ret
3973: 3f 9d 39  call  $399d
3976: 6f        ret
3977: 3f 9d 39  call  $399d
397a: 6f        ret
397b: 3f 92 39  call  $3992
397e: 6f        ret
397f: 3f 92 39  call  $3992
3982: 6f        ret
3983: 3f 9d 39  call  $399d
3986: 6f        ret
3987: e8 01     mov   a,#$01
3989: c5 41 04  mov   $0441,a
398c: e8 00     mov   a,#$00
398e: c5 bc 04  mov   $04bc,a
3991: 6f        ret
3992: e8 01     mov   a,#$01
3994: c5 41 04  mov   $0441,a
3997: e8 01     mov   a,#$01
3999: c5 bc 04  mov   $04bc,a
399c: 6f        ret
399d: e8 02     mov   a,#$02
399f: c5 41 04  mov   $0441,a
39a2: e8 00     mov   a,#$00
39a4: c5 bc 04  mov   $04bc,a
39a7: 6f        ret
39a8: e8 02     mov   a,#$02
39aa: c5 41 04  mov   $0441,a
39ad: e8 01     mov   a,#$01
39af: c5 bc 04  mov   $04bc,a
39b2: 6f        ret
39b3: b1        tcall 11
39b4: 3a c3     incw  $c3
39b6: 3a d5     incw  $d5
39b8: 3a f1     incw  $f1
39ba: 3a f3     incw  $f3
39bc: 3a f5     incw  $f5
39be: 3a 0c     incw  $0c
39c0: 3b 28     rol   $28+x
39c2: 3b 2a     rol   $2a+x
39c4: 3b 3a     rol   $3a+x
39c6: 3b 42     rol   $42+x
39c8: 3b 5e     rol   $5e+x
39ca: 3b 73     rol   $73+x
39cc: 3b 85     rol   $85+x
39ce: 3b 92     rol   $92+x
39d0: 3b a9     rol   $a9+x
39d2: 3b b4     rol   $b4+x
39d4: 3b c1     rol   $c1+x
39d6: 3b e7     rol   $e7+x
39d8: 3b 08     rol   $08+x
39da: 3c        rol   a
39db: 33 3c 3b  bbc1  $3c,$3a18
39de: 3c        rol   a
39df: 43 3c 56  bbs2  $3c,$3a37
39e2: 3c        rol   a
39e3: 90 3c     bcc   $3a21
39e5: ff        stop
39e6: 3c        rol   a
39e7: 46        eor   a,(x)
39e8: 3d        inc   x
39e9: 4e 3d 65  tclr1 $653d
39ec: 3d        inc   x
39ed: 81        tcall 8
39ee: 3d        inc   x
39ef: 9b 3d     dec   $3d+x
39f1: a8 3d     sbc   a,#$3d
39f3: bf        mov   a,(x)+
39f4: 3d        inc   x
39f5: d6 3d ed  mov   $ed3d+y,a
39f8: 3d        inc   x
39f9: 04 3e     or    a,$3e
39fb: 20        clrp
39fc: 3e 41     cmp   x,$41
39fe: 3e 66     cmp   x,$66
3a00: 3e 94     cmp   x,$94
3a02: 3e b0     cmp   x,$b0
3a04: 3e cc     cmp   x,$cc
3a06: 3e ce     cmp   x,$ce
3a08: 3e 03     cmp   x,$03
3a0a: 3f 18 3f  call  $3f18
3a0d: 20        clrp
3a0e: 3f 44 3f  call  $3f44
3a11: 5e 3f 75  cmp   y,$753f
3a14: 3f 82 3f  call  $3f82
3a17: 8a 3f 97  eor1  c,$12e7,7
3a1a: 3f 9f 3f  call  $3f9f
3a1d: 1f 40 36  jmp   ($3640+x)
3a20: 40        setp
3a21: 66        cmp   a,(x)
3a22: 40        setp
3a23: 7c        ror   a
3a24: 40        setp
3a25: 7e 40     cmp   y,$40
3a27: 86        adc   a,(x)
3a28: 40        setp
3a29: 88 40     adc   a,#$40
3a2b: 8a 40 8c  eor1  c,$1188,0
3a2e: 40        setp
3a2f: 9e        div   ya,x
3a30: 40        setp
3a31: a6        sbc   a,(x)
3a32: 40        setp
3a33: b1        tcall 11
3a34: 40        setp
3a35: b4 40     sbc   a,$40+x
3a37: bc        inc   a
3a38: 40        setp
3a39: ce        pop   x
3a3a: 40        setp
3a3b: d1        tcall 13
3a3c: 40        setp
3a3d: de 40 f5  cbne  $40+x,$3a34
3a40: 40        setp
3a41: 0c 41 2c  asl   $2c41
3a44: 41        tcall 4
3a45: 43 41 5a  bbs2  $41,$3aa1
3a48: 41        tcall 4
3a49: 62 41     set3  $41
3a4b: 6f        ret
3a4c: 41        tcall 4
3a4d: a9 41 c7  sbc   ($c7),($41)
3a50: 41        tcall 4
3a51: d9 41     mov   $41+y,x
3a53: ee        pop   y
3a54: 41        tcall 4
3a55: 1c        asl   a
3a56: 42 24     set2  $24
3a58: 42 36     set2  $36
3a5a: 42 4d     set2  $4d
3a5c: 42 68     set2  $68
3a5e: 42 88     set2  $88
3a60: 42 9a     set2  $9a
3a62: 42 af     set2  $af
3a64: 42 bf     set2  $bf
3a66: 42 d4     set2  $d4
3a68: 42 d6     set2  $d6
3a6a: 42 fe     set2  $fe
3a6c: 42 10     set2  $10
3a6e: 43 22 43  bbs2  $22,$3ab3
3a71: 34 43     and   a,$43+x
3a73: 3c        rol   a
3a74: 43 47 43  bbs2  $47,$3ab9
3a77: 52 43     clr2  $43
3a79: c1        tcall 12
3a7a: 43 cc 43  bbs2  $cc,$3abf
3a7d: e8 43     mov   a,#$43
3a7f: fa 43 22  mov   ($22),($43)
3a82: 44 2f     eor   a,$2f
3a84: 44 41     eor   a,$41
3a86: 44 43     eor   a,$43
3a88: 44 46     eor   a,$46
3a8a: 44 4e     eor   a,$4e
3a8c: 44 6f     eor   a,$6f
3a8e: 44 7f     eor   a,$7f
3a90: 44 8f     eor   a,$8f
3a92: 44 9c     eor   a,$9c
3a94: 44 a4     eor   a,$a4
3a96: 44 b9     eor   a,$b9
3a98: 44 ce     eor   a,$ce
3a9a: 44 ed     eor   a,$ed
3a9c: 44 98     eor   a,$98
3a9e: 45 9a 45  eor   a,$459a
3aa1: 18 46 2d  or    $2d,#$46
3aa4: 46        eor   a,(x)
3aa5: 42 46     set2  $46
3aa7: 57 46     eor   a,($46)+y
3aa9: 6c 46 79  ror   $7946
3aac: 46        eor   a,(x)
3aad: 86        adc   a,(x)
3aae: 46        eor   a,(x)
3aaf: 8e        pop   psw
3ab0: 46        eor   a,(x)
3ab1: b3 3a 15  bbc5  $3a,$3ac8
3ab4: 80        setc
3ab5: 0a c7 0a  or1   c,$0158,7
3ab8: 15 50 0a  or    a,$0a50+x
3abb: c7 0a     mov   ($0a+x),a
3abd: 15 20 0a  or    a,$0a20+x
3ac0: c7 0a     mov   ($0a+x),a
3ac2: ff        stop
3ac3: c5 3a 15  mov   $153a,a
3ac6: e0        clrv
3ac7: 0a c7 0a  or1   c,$0158,7
3aca: 15 60 0a  or    a,$0a60+x
3acd: c7 0a     mov   ($0a+x),a
3acf: 15 30 0a  or    a,$0a30+x
3ad2: c7 0a     mov   ($0a+x),a
3ad4: ff        stop
3ad5: d7 3a     mov   ($3a)+y,a
3ad7: 0c 60 0a  asl   $0a60
3ada: af        mov   (x)+,a
3adb: 02 0c     set0  $0c
3add: 00        nop
3ade: 0a af 01  or1   c,$0035,7
3ae1: 0c 60 0a  asl   $0a60
3ae4: af        mov   (x)+,a
3ae5: 02 0c     set0  $0c
3ae7: 00        nop
3ae8: 0a af 01  or1   c,$0035,7
3aeb: 0c 60 0a  asl   $0a60
3aee: af        mov   (x)+,a
3aef: 02 ff     set0  $ff
3af1: d7 3a     mov   ($3a)+y,a
3af3: d7 3a     mov   ($3a)+y,a
3af5: f7 3a     mov   a,($3a)+y
3af7: 08 d0     or    a,#$d0
3af9: 0a 98 03  or1   c,$0073,0
3afc: 08 d0     or    a,#$d0
3afe: 0a 95 03  or1   c,$0072,5
3b01: 08 d0     or    a,#$d0
3b03: 0a 9a 03  or1   c,$0073,2
3b06: 08 d0     or    a,#$d0
3b08: 0a 8c 03  or1   c,$0071,4
3b0b: ff        stop
3b0c: 0e 3b 08  tset1 $083b
3b0f: e0        clrv
3b10: 0a 98 03  or1   c,$0073,0
3b13: 08 e0     or    a,#$e0
3b15: 0a 95 03  or1   c,$0072,5
3b18: 08 e0     or    a,#$e0
3b1a: 0a 9a 03  or1   c,$0073,2
3b1d: 08 e0     or    a,#$e0
3b1f: 0a 8c 03  or1   c,$0071,4
3b22: 08 e0     or    a,#$e0
3b24: 0a 8c 20  or1   c,$0411,4
3b27: ff        stop
3b28: 0e 3b 2c  tset1 $2c3b
3b2b: 3b 08     rol   $08+x
3b2d: d0 0a     bne   $3b39
3b2f: 8b 08     dec   $08
3b31: f5 d0 bc  mov   a,$bcd0+x
3b34: 09 d0 0a  or    ($0a),($d0)
3b37: 98 10 ff  adc   $ff,#$10
3b3a: 3c        rol   a
3b3b: 3b 08     rol   $08+x
3b3d: 70 0a     bvs   $3b49
3b3f: 9d        mov   x,sp
3b40: 07 ff     or    a,($ff+x)
3b42: 44 3b     eor   a,$3b
3b44: 08 d0     or    a,#$d0
3b46: 0a 99 02  or1   c,$0053,1
3b49: 08 d0     or    a,#$d0
3b4b: 0a 9c 03  or1   c,$0073,4
3b4e: 0f        brk
3b4f: d0 0a     bne   $3b5b
3b51: 8b 03     dec   $03
3b53: 0f        brk
3b54: e0        clrv
3b55: 0a 8c 03  or1   c,$0071,4
3b58: 0f        brk
3b59: d0 0a     bne   $3b65
3b5b: 8e        pop   psw
3b5c: 0e ff 60  tset1 $60ff
3b5f: 3b 08     rol   $08+x
3b61: 70 0a     bvs   $3b6d
3b63: 98 03 08  adc   $08,#$03
3b66: 70 0a     bvs   $3b72
3b68: 95 03 f5  adc   a,$f503+x
3b6b: f0 bc     beq   $3b29
3b6d: 09 70 0a  or    ($0a),($70)
3b70: 98 06 ff  adc   $ff,#$06
3b73: 75 3b 0f  cmp   a,$0f3b+x
3b76: 70 0a     bvs   $3b82
3b78: 93 03 0f  bbc4  $03,$3b89
3b7b: e0        clrv
3b7c: 0a 90 08  or1   c,$0112,0
3b7f: 0f        brk
3b80: 70 0a     bvs   $3b8c
3b82: 84 15     adc   a,$15
3b84: ff        stop
3b85: 87 3b     adc   a,($3b+x)
3b87: 0f        brk
3b88: 60        clrc
3b89: 0a 90 03  or1   c,$0072,0
3b8c: 0f        brk
3b8d: 60        clrc
3b8e: 0a 84 15  or1   c,$02b0,4
3b91: ff        stop
3b92: 94 3b     adc   a,$3b+x
3b94: 0e 60 0a  tset1 $0a60
3b97: 80        setc
3b98: 05 0e 60  or    a,$600e
3b9b: 0a 85 05  or1   c,$00b0,5
3b9e: 0e 60 0a  tset1 $0a60
3ba1: 91        tcall 9
3ba2: 05 0e 60  or    a,$600e
3ba5: 0a 89 05  or1   c,$00b1,1
3ba8: ff        stop
3ba9: ab 3b     inc   $3b
3bab: f5 30 bb  mov   a,$bb30+x
3bae: 12 10     clr0  $10
3bb0: 0a 95 15  or1   c,$02b2,5
3bb3: ff        stop
3bb4: b6 3b 0e  sbc   a,$0e3b+y
3bb7: 60        clrc
3bb8: 0a 8c 05  or1   c,$00b1,4
3bbb: 0e 60 0a  tset1 $0a60
3bbe: 91        tcall 9
3bbf: 05 ff c3  or    a,$c3ff
3bc2: 3b 22     rol   $22+x
3bc4: 60        clrc
3bc5: 0a 84 1c  or1   c,$0390,4
3bc8: 22 60     set1  $60
3bca: 0a 90 19  or1   c,$0332,0
3bcd: 0e 60 0a  tset1 $0a60
3bd0: 80        setc
3bd1: 10 22     bpl   $3bf5
3bd3: 60        clrc
3bd4: 0a 89 19  or1   c,$0331,1
3bd7: 0e 60 0a  tset1 $0a60
3bda: 80        setc
3bdb: 07 0e     or    a,($0e+x)
3bdd: 60        clrc
3bde: 0a 84 10  or1   c,$0210,4
3be1: 22 60     set1  $60
3be3: 0a 8b 1b  or1   c,$0371,3
3be6: ff        stop
3be7: e9 3b 0e  mov   x,$0e3b
3bea: 60        clrc
3beb: 0a 80 0a  or1   c,$0150,0
3bee: 0e 60 0a  tset1 $0a60
3bf1: 84 07     adc   a,$07
3bf3: 22 60     set1  $60
3bf5: 0a 8b 1f  or1   c,$03f1,3
3bf8: 22 60     set1  $60
3bfa: 0a 89 16  or1   c,$02d1,1
3bfd: 0e 60 0a  tset1 $0a60
3c00: 80        setc
3c01: 0a 0e 60  or1   c,$0c01,6
3c04: 0a 87 10  or1   c,$0210,7
3c07: ff        stop
3c08: 0a 3c 0e  or1   c,$01c7,4
3c0b: 60        clrc
3c0c: 0a 80 0a  or1   c,$0150,0
3c0f: 0e 60 0a  tset1 $0a60
3c12: 87 10     adc   a,($10+x)
3c14: 22 60     set1  $60
3c16: 0a 84 1a  or1   c,$0350,4
3c19: 0e 60 0a  tset1 $0a60
3c1c: 80        setc
3c1d: 0a 0e 60  or1   c,$0c01,6
3c20: 0a 84 07  or1   c,$00f0,4
3c23: 22 60     set1  $60
3c25: 0a 91 16  or1   c,$02d2,1
3c28: 0e 60 0a  tset1 $0a60
3c2b: 80        setc
3c2c: 0a 0e 60  or1   c,$0c01,6
3c2f: 0a 87 10  or1   c,$0210,7
3c32: ff        stop
3c33: 35 3c 25  and   a,$253c+x
3c36: 00        nop
3c37: 0a ab 03  or1   c,$0075,3
3c3a: ff        stop
3c3b: 3d        inc   x
3c3c: 3c        rol   a
3c3d: 25 60 0a  and   a,$0a60
3c40: a8 10     sbc   a,#$10
3c42: ff        stop
3c43: 45 3c f5  eor   a,$f53c
3c46: 70 aa     bvs   $3bf2
3c48: 06        or    a,(x)
3c49: 40        setp
3c4a: 0a a1 40  or1   c,$0814,1
3c4d: fe 00     dbnz  y,$3c4f
3c4f: 06        or    a,(x)
3c50: 40        setp
3c51: 0a aa f0  or1   c,$1e15,2
3c54: fb ff     mov   y,$ff+x
3c56: 58 3c 0b  eor   $0b,#$3c
3c59: 20        clrp
3c5a: 0a 8c 03  or1   c,$0071,4
3c5d: 0b 30     asl   $30
3c5f: 0a 8c 03  or1   c,$0071,4
3c62: 0b 40     asl   $40
3c64: 0a 8c 03  or1   c,$0071,4
3c67: 0b 50     asl   $50
3c69: 0a 8c 03  or1   c,$0071,4
3c6c: 0b 60     asl   $60
3c6e: 0a 8c 03  or1   c,$0071,4
3c71: 0b 70     asl   $70
3c73: 0a 8c 03  or1   c,$0071,4
3c76: 0b 80     asl   $80
3c78: 0a 8c 03  or1   c,$0071,4
3c7b: 0b 60     asl   $60
3c7d: 0a 8c 03  or1   c,$0071,4
3c80: 0b 50     asl   $50
3c82: 0a 8c 03  or1   c,$0071,4
3c85: 0b 40     asl   $40
3c87: 0a 8c 03  or1   c,$0071,4
3c8a: 0b 30     asl   $30
3c8c: 0a 8c 03  or1   c,$0071,4
3c8f: ff        stop
3c90: 94 3c     adc   a,$3c+x
3c92: e5 3c 10  mov   a,$103c
3c95: 50 0a     bvc   $3ca1
3c97: c1        tcall 12
3c98: 03 10 40  bbs0  $10,$3cda
3c9b: 0a c2 03  or1   c,$0078,2
3c9e: 10 30     bpl   $3cd0
3ca0: 0a c3 03  or1   c,$0078,3
3ca3: 10 20     bpl   $3cc5
3ca5: 0a c4 03  or1   c,$0078,4
3ca8: 10 10     bpl   $3cba
3caa: 0a c5 03  or1   c,$0078,5
3cad: 10 10     bpl   $3cbf
3caf: 0a c6 03  or1   c,$0078,6
3cb2: 10 10     bpl   $3cc4
3cb4: 0a c7 03  or1   c,$0078,7
3cb7: 10 00     bpl   $3cb9
3cb9: 0a c7 30  or1   c,$0618,7
3cbc: 10 60     bpl   $3d1e
3cbe: 0a c7 03  or1   c,$0078,7
3cc1: 10 50     bpl   $3d13
3cc3: 0a c6 03  or1   c,$0078,6
3cc6: 10 30     bpl   $3cf8
3cc8: 0a c5 03  or1   c,$0078,5
3ccb: 10 30     bpl   $3cfd
3ccd: 0a c4 03  or1   c,$0078,4
3cd0: 10 20     bpl   $3cf2
3cd2: 0a c3 03  or1   c,$0078,3
3cd5: 10 20     bpl   $3cf7
3cd7: 0a c2 03  or1   c,$0078,2
3cda: 10 10     bpl   $3cec
3cdc: 0a c1 03  or1   c,$0078,1
3cdf: 10 10     bpl   $3cf1
3ce1: 0a c0 03  or1   c,$0078,0
3ce4: ff        stop
3ce5: 08 d0     or    a,#$d0
3ce7: 0a 99 03  or1   c,$0073,1
3cea: 08 d0     or    a,#$d0
3cec: 0a 9c 04  or1   c,$0093,4
3cef: 0f        brk
3cf0: 30 0a     bmi   $3cfc
3cf2: 8b 03     dec   $03
3cf4: 0f        brk
3cf5: 40        setp
3cf6: 0a 8c 03  or1   c,$0071,4
3cf9: 0f        brk
3cfa: 50 0a     bvc   $3d06
3cfc: 8e        pop   psw
3cfd: 0e ff 03  tset1 $03ff
3d00: 3d        inc   x
3d01: 36 3d 08  and   a,$083d+y
3d04: d0 0a     bne   $3d10
3d06: 94 03     adc   a,$03+x
3d08: 08 d0     or    a,#$d0
3d0a: 0a 97 02  or1   c,$0052,7
3d0d: 08 d0     or    a,#$d0
3d0f: 0a 98 03  or1   c,$0073,0
3d12: 08 d0     or    a,#$d0
3d14: 0a 9a 04  or1   c,$0093,2
3d17: 08 d0     or    a,#$d0
3d19: 0a 97 03  or1   c,$0072,7
3d1c: 08 d0     or    a,#$d0
3d1e: 0a 9a 04  or1   c,$0093,2
3d21: 08 d0     or    a,#$d0
3d23: 0a 9d 03  or1   c,$0073,5
3d26: 08 d0     or    a,#$d0
3d28: 0a 9f 03  or1   c,$0073,7
3d2b: 08 d0     or    a,#$d0
3d2d: 0a 94 1a  or1   c,$0352,4
3d30: 25 40 0a  and   a,$0a40
3d33: 8c 26 ff  dec   $ff26
3d36: 25 d0 0a  and   a,$0ad0
3d39: 98 10 25  adc   $25,#$10
3d3c: d0 0a     bne   $3d48
3d3e: 93 16 25  bbc4  $16,$3d65
3d41: 90 0a     bcc   $3d4d
3d43: 8f 15 ff  mov   $ff,#$15
3d46: 48 3d     eor   a,#$3d
3d48: 08 d0     or    a,#$d0
3d4a: 0a 94 19  or1   c,$0332,4
3d4d: ff        stop
3d4e: 50 3d     bvc   $3d8d
3d50: 0d        push  psw
3d51: 40        setp
3d52: 0c 8b 02  asl   $028b
3d55: 0d        push  psw
3d56: 50 0c     bvc   $3d64
3d58: 89 02 0d  adc   ($0d),($02)
3d5b: 60        clrc
3d5c: 0c 87 03  asl   $0387
3d5f: 0d        push  psw
3d60: 50 0c     bvc   $3d6e
3d62: 85 03 ff  adc   a,$ff03
3d65: 67 3d     cmp   a,($3d+x)
3d67: 14 d0     or    a,$d0+x
3d69: 0a 9f 03  or1   c,$0073,7
3d6c: 14 d0     or    a,$d0+x
3d6e: 0a a4 03  or1   c,$0074,4
3d71: 14 90     or    a,$90+x
3d73: 0a a4 03  or1   c,$0074,4
3d76: 14 40     or    a,$40+x
3d78: 0a a3 03  or1   c,$0074,3
3d7b: 14 30     or    a,$30+x
3d7d: 0a a2 03  or1   c,$0074,2
3d80: ff        stop
3d81: 85 3d 8b  adc   a,$8b3d
3d84: 3d        inc   x
3d85: 08 d0     or    a,#$d0
3d87: 0a 94 59  or1   c,$0b32,4
3d8a: ff        stop
3d8b: 25 d0 0a  and   a,$0ad0
3d8e: 98 10 25  adc   $25,#$10
3d91: d0 0a     bne   $3d9d
3d93: 93 16 25  bbc4  $16,$3dba
3d96: 90 0a     bcc   $3da2
3d98: 8f 15 ff  mov   $ff,#$15
3d9b: 9d        mov   x,sp
3d9c: 3d        inc   x
3d9d: 25 d0 0a  and   a,$0ad0
3da0: 90 09     bcc   $3dab
3da2: 00        nop
3da3: d8 0a     mov   $0a,x
3da5: 97 07     adc   a,($07)+y
3da7: ff        stop
3da8: aa 3d 14  mov1  c,$0287,5
3dab: 80        setc
3dac: 0a 9f 03  or1   c,$0073,7
3daf: 14 80     or    a,$80+x
3db1: 0a 98 0a  or1   c,$0153,0
3db4: 14 40     or    a,$40+x
3db6: 0a 98 03  or1   c,$0073,0
3db9: 14 30     or    a,$30+x
3dbb: 0a 98 03  or1   c,$0073,0
3dbe: ff        stop
3dbf: c1        tcall 12
3dc0: 3d        inc   x
3dc1: 14 80     or    a,$80+x
3dc3: 0a 98 03  or1   c,$0073,0
3dc6: 14 a0     or    a,$a0+x
3dc8: 0a 9d 07  or1   c,$00f3,5
3dcb: 14 50     or    a,$50+x
3dcd: 0a 98 03  or1   c,$0073,0
3dd0: 14 30     or    a,$30+x
3dd2: 0a 9d 06  or1   c,$00d3,5
3dd5: ff        stop
3dd6: d8 3d     mov   $3d,x
3dd8: 14 d0     or    a,$d0+x
3dda: 0a 90 03  or1   c,$0072,0
3ddd: 14 e0     or    a,$e0+x
3ddf: 0a 93 03  or1   c,$0072,3
3de2: 14 d0     or    a,$d0+x
3de4: 0a 95 03  or1   c,$0072,5
3de7: 14 50     or    a,$50+x
3de9: 0a 95 03  or1   c,$0072,5
3dec: ff        stop
3ded: ef        sleep
3dee: 3d        inc   x
3def: 14 e0     or    a,$e0+x
3df1: 0c 84 03  asl   $0384
3df4: 14 d0     or    a,$d0+x
3df6: 0c 89 03  asl   $0389
3df9: 14 e0     or    a,$e0+x
3dfb: 0c 84 03  asl   $0384
3dfe: 14 d0     or    a,$d0+x
3e00: 0c 89 03  asl   $0389
3e03: ff        stop
3e04: 06        or    a,(x)
3e05: 3e 08     cmp   x,$08
3e07: d0 0a     bne   $3e13
3e09: 98 03 08  adc   $08,#$03
3e0c: d0 0a     bne   $3e18
3e0e: 95 03 08  adc   a,$0803+x
3e11: d0 0a     bne   $3e1d
3e13: 9a 03     subw  ya,$03
3e15: 08 d0     or    a,#$d0
3e17: 0a 8c 03  or1   c,$0071,4
3e1a: 08 d0     or    a,#$d0
3e1c: 0a 8c 25  or1   c,$04b1,4
3e1f: ff        stop
3e20: 22 3e     set1  $3e
3e22: 00        nop
3e23: e0        clrv
3e24: 0a 91 08  or1   c,$0112,1
3e27: 08 d0     or    a,#$d0
3e29: 0a a1 03  or1   c,$0074,1
3e2c: 08 d0     or    a,#$d0
3e2e: 0a 9e 03  or1   c,$0073,6
3e31: 08 d0     or    a,#$d0
3e33: 0a a3 03  or1   c,$0074,3
3e36: 08 d0     or    a,#$d0
3e38: 0a 8e 03  or1   c,$0071,6
3e3b: 08 d0     or    a,#$d0
3e3d: 0a 8e 25  or1   c,$04b1,6
3e40: ff        stop
3e41: 43 3e 00  bbs2  $3e,$3e43
3e44: d8 0a     mov   $0a,x
3e46: 95 05 01  adc   a,$0105+x
3e49: 90 0a     bcc   $3e55
3e4b: a4 08     sbc   a,$08
3e4d: f5 f0 80  mov   a,$80f0+x
3e50: 0b a0     asl   $a0
3e52: 0a b0 0e  or1   c,$01d6,0
3e55: f5 f0 80  mov   a,$80f0+x
3e58: 0b 70     asl   $70
3e5a: 0a b0 0e  or1   c,$01d6,0
3e5d: f5 f0 80  mov   a,$80f0+x
3e60: 0b 30     asl   $30
3e62: 0a b0 0e  or1   c,$01d6,0
3e65: ff        stop
3e66: 6a 3e 7f  and1  c,!($0fe7,6)
3e69: 3e 14     cmp   x,$14
3e6b: d0 0a     bne   $3e77
3e6d: 8b 11     dec   $11
3e6f: 14 d0     or    a,$d0+x
3e71: 0a 89 20  or1   c,$0411,1
3e74: 14 80     or    a,$80+x
3e76: 0a 89 05  or1   c,$00b1,1
3e79: 14 30     or    a,$30+x
3e7b: 0a 89 05  or1   c,$00b1,1
3e7e: ff        stop
3e7f: 14 d0     or    a,$d0+x
3e81: 0a 80 09  or1   c,$0130,0
3e84: 14 d0     or    a,$d0+x
3e86: 0a 82 20  or1   c,$0410,2
3e89: 14 80     or    a,$80+x
3e8b: 0a 82 05  or1   c,$00b0,2
3e8e: 14 30     or    a,$30+x
3e90: 0a 82 05  or1   c,$00b0,2
3e93: ff        stop
3e94: 96 3e 08  adc   a,$083e+y
3e97: d0 0a     bne   $3ea3
3e99: 98 03 08  adc   $08,#$03
3e9c: d0 0a     bne   $3ea8
3e9e: 95 03 08  adc   a,$0803+x
3ea1: d0 0a     bne   $3ead
3ea3: 9a 03     subw  ya,$03
3ea5: 08 d0     or    a,#$d0
3ea7: 0a 8c 03  or1   c,$0071,4
3eaa: 08 d0     or    a,#$d0
3eac: 0a 8c 25  or1   c,$04b1,4
3eaf: ff        stop
3eb0: b2 3e     clr5  $3e
3eb2: 08 40     or    a,#$40
3eb4: 0a 9f 04  or1   c,$0093,7
3eb7: 08 40     or    a,#$40
3eb9: 0a 9c 03  or1   c,$0073,4
3ebc: 08 40     or    a,#$40
3ebe: 0a a1 03  or1   c,$0074,1
3ec1: 08 40     or    a,#$40
3ec3: 0a 93 04  or1   c,$0092,3
3ec6: 08 40     or    a,#$40
3ec8: 0a 93 25  or1   c,$04b2,3
3ecb: ff        stop
3ecc: 96 3e d0  adc   a,$d03e+y
3ecf: 3e 08     cmp   x,$08
3ed1: d0 0a     bne   $3edd
3ed3: 98 03 08  adc   $08,#$03
3ed6: d0 0a     bne   $3ee2
3ed8: 95 03 08  adc   a,$0803+x
3edb: d0 0a     bne   $3ee7
3edd: 9a 03     subw  ya,$03
3edf: 08 d0     or    a,#$d0
3ee1: 0a 98 03  or1   c,$0073,0
3ee4: 08 d0     or    a,#$d0
3ee6: 0a 95 03  or1   c,$0072,5
3ee9: 08 d0     or    a,#$d0
3eeb: 0a 9a 03  or1   c,$0073,2
3eee: 08 d0     or    a,#$d0
3ef0: 0a 98 03  or1   c,$0073,0
3ef3: 08 d0     or    a,#$d0
3ef5: 0a 95 03  or1   c,$0072,5
3ef8: 08 d0     or    a,#$d0
3efa: 0a 9a 03  or1   c,$0073,2
3efd: 08 d0     or    a,#$d0
3eff: 0a 8c 20  or1   c,$0411,4
3f02: ff        stop
3f03: 07 3f     or    a,($3f+x)
3f05: 0d        push  psw
3f06: 3f 25 d0  call  $d025
3f09: 0a 8e 40  or1   c,$0811,6
3f0c: ff        stop
3f0d: 25 00 0a  and   a,$0a00
3f10: 87 15     adc   a,($15+x)
3f12: 25 d0 0a  and   a,$0ad0
3f15: 87 40     adc   a,($40+x)
3f17: ff        stop
3f18: 1a 3f     decw  $3f
3f1a: 25 d0 0a  and   a,$0ad0
3f1d: 95 45 ff  adc   a,$ff45+x
3f20: 24 3f     and   a,$3f
3f22: 34 3f     and   a,$3f+x
3f24: 25 d0 0a  and   a,$0ad0
3f27: 9f        xcn   a
3f28: 60        clrc
3f29: 25 d0 0a  and   a,$0ad0
3f2c: 9a 30     subw  ya,$30
3f2e: 25 d0 0a  and   a,$0ad0
3f31: 98 30 ff  adc   $ff,#$30
3f34: 25 00 0a  and   a,$0a00
3f37: 9a 45     subw  ya,$45
3f39: 25 d0 0a  and   a,$0ad0
3f3c: 9c        dec   a
3f3d: 60        clrc
3f3e: 25 d0 0a  and   a,$0ad0
3f41: 97 50     adc   a,($50)+y
3f43: ff        stop
3f44: 46        eor   a,(x)
3f45: 3f 08 50  call  $5008
3f48: 0a ad 03  or1   c,$0075,5
3f4b: 08 50     or    a,#$50
3f4d: 0a ad 04  or1   c,$0095,5
3f50: f5 90 c7  mov   a,$c790+x
3f53: 10 40     bpl   $3f95
3f55: 0a bc 07  or1   c,$00f7,4
3f58: 10 20     bpl   $3f7a
3f5a: 0a c3 03  or1   c,$0078,3
3f5d: ff        stop
3f5e: 60        clrc
3f5f: 3f 25 90  call  $9025
3f62: 0a 93 06  or1   c,$00d2,3
3f65: 25 b0 0a  and   a,$0ab0
3f68: 98 10 25  adc   $25,#$10
3f6b: 40        setp
3f6c: 0a 98 03  or1   c,$0073,0
3f6f: 25 30 0a  and   a,$0a30
3f72: 98 03 ff  adc   $ff,#$03
3f75: 77 3f     cmp   a,($3f)+y
3f77: 0f        brk
3f78: 70 0a     bvs   $3f84
3f7a: 8b 0d     dec   $0d
3f7c: 0f        brk
3f7d: 80        setc
3f7e: 0a 92 0d  or1   c,$01b2,2
3f81: ff        stop
3f82: 84 3f     adc   a,$3f
3f84: 1d        dec   x
3f85: 70 0a     bvs   $3f91
3f87: ac 0b ff  inc   $ff0b
3f8a: 8c 3f 1d  dec   $1d3f
3f8d: 70 0a     bvs   $3f99
3f8f: b4 04     sbc   a,$04+x
3f91: 1d        dec   x
3f92: 70 0a     bvs   $3f9e
3f94: b0 04     bcs   $3f9a
3f96: ff        stop
3f97: 99        adc   (x),(y)
3f98: 3f 00 d8  call  $d800
3f9b: 0a 90 16  or1   c,$02d2,0
3f9e: ff        stop
3f9f: a1        tcall 10
3fa0: 3f 1d 70  call  $701d
3fa3: 0a a9 07  or1   c,$00f5,1
3fa6: 1d        dec   x
3fa7: 20        clrp
3fa8: 0a a9 07  or1   c,$00f5,1
3fab: 1d        dec   x
3fac: 70 0a     bvs   $3fb8
3fae: ae        pop   a
3faf: 07 1d     or    a,($1d+x)
3fb1: 20        clrp
3fb2: 0a ae 07  or1   c,$00f5,6
3fb5: 1d        dec   x
3fb6: 70 0a     bvs   $3fc2
3fb8: b0 07     bcs   $3fc1
3fba: 1d        dec   x
3fbb: 20        clrp
3fbc: 0a b0 07  or1   c,$00f6,0
3fbf: 1d        dec   x
3fc0: 70 0a     bvs   $3fcc
3fc2: b2 07     clr5  $07
3fc4: 1d        dec   x
3fc5: 20        clrp
3fc6: 0a b2 07  or1   c,$00f6,2
3fc9: 1d        dec   x
3fca: 70 0a     bvs   $3fd6
3fcc: b4 07     sbc   a,$07+x
3fce: 1d        dec   x
3fcf: 20        clrp
3fd0: 0a b4 07  or1   c,$00f6,4
3fd3: 1d        dec   x
3fd4: 70 0a     bvs   $3fe0
3fd6: b0 07     bcs   $3fdf
3fd8: 1d        dec   x
3fd9: 20        clrp
3fda: 0a b0 07  or1   c,$00f6,0
3fdd: 1d        dec   x
3fde: 70 0a     bvs   $3fea
3fe0: ab 07     inc   $07
3fe2: 1d        dec   x
3fe3: 20        clrp
3fe4: 0a ab 07  or1   c,$00f5,3
3fe7: 1d        dec   x
3fe8: 70 0a     bvs   $3ff4
3fea: b0 07     bcs   $3ff3
3fec: 1d        dec   x
3fed: 20        clrp
3fee: 0a b0 07  or1   c,$00f6,0
3ff1: 1d        dec   x
3ff2: 70 0a     bvs   $3ffe
3ff4: b5 07 1d  sbc   a,$1d07+x
3ff7: 20        clrp
3ff8: 0a b5 07  or1   c,$00f6,5
3ffb: 1d        dec   x
3ffc: 70 0a     bvs   $4008
3ffe: b2 07     clr5  $07
4000: 1d        dec   x
4001: 20        clrp
4002: 0a b2 07  or1   c,$00f6,2
4005: 1d        dec   x
4006: 70 0a     bvs   $4012
4008: ae        pop   a
4009: 07 1d     or    a,($1d+x)
400b: 20        clrp
400c: 0a ae 07  or1   c,$00f5,6
400f: 1d        dec   x
4010: 70 0a     bvs   $401c
4012: ab 07     inc   $07
4014: 1d        dec   x
4015: 20        clrp
4016: 0a ab 07  or1   c,$00f5,3
4019: 1d        dec   x
401a: 70 0a     bvs   $4026
401c: ad 20     cmp   y,#$20
401e: ff        stop
401f: 21        tcall 2
4020: 40        setp
4021: 14 80     or    a,$80+x
4023: 0a 8c 03  or1   c,$0071,4
4026: 14 a0     or    a,$a0+x
4028: 0a 91 05  or1   c,$00b2,1
402b: 14 50     or    a,$50+x
402d: 0a 8c 03  or1   c,$0071,4
4030: 14 30     or    a,$30+x
4032: 0a 91 06  or1   c,$00d2,1
4035: ff        stop
4036: 3a 40     incw  $40
4038: 50 40     bvc   $407a
403a: 03 90 0a  bbs0  $90,$4046
403d: 89 05 f5  adc   ($f5),($05)
4040: f0 bb     beq   $3ffd
4042: 07 40     or    a,($40+x)
4044: 0a b0 20  or1   c,$0416,0
4047: fe 00     dbnz  y,$4049
4049: 07 40     or    a,($40+x)
404b: 0a bb 0a  or1   c,$0157,3
404e: fb ff     mov   y,$ff+x
4050: 03 90 0a  bbs0  $90,$405c
4053: 87 05     adc   a,($05+x)
4055: f5 f0 c7  mov   a,$c7f0+x
4058: 07 40     or    a,($40+x)
405a: 0a bc 20  or1   c,$0417,4
405d: fe 00     dbnz  y,$405f
405f: 0b 10     asl   $10
4061: 0a b9 07  or1   c,$00f7,1
4064: fb ff     mov   y,$ff+x
4066: 6a 40 73  and1  c,!($0e68,0)
4069: 40        setp
406a: f5 f0 b0  mov   a,$b0f0+x
406d: 07 90     or    a,($90+x)
406f: 0a bb 08  or1   c,$0117,3
4072: ff        stop
4073: f5 f0 80  mov   a,$80f0+x
4076: 0b 10     asl   $10
4078: 0a b9 08  or1   c,$0117,1
407b: ff        stop
407c: 02 4f     set0  $4f
407e: 80        setc
407f: 40        setp
4080: 07 60     or    a,($60+x)
4082: 0a c7 10  or1   c,$0218,7
4085: ff        stop
4086: 4b 50     lsr   $50
4088: aa 50 f9  mov1  c,$1f2a,0
408b: 4f 8e     pcall $8e
408d: 40        setp
408e: 13 60 0a  bbc0  $60,$409a
4091: 95 05 13  adc   a,$1305+x
4094: 40        setp
4095: 0a 95 03  or1   c,$0072,5
4098: 13 10 0a  bbc0  $10,$40a4
409b: 95 03 ff  adc   a,$ff03+x
409e: a0        ei
409f: 40        setp
40a0: 00        nop
40a1: 70 0a     bvs   $40ad
40a3: 95 0c ff  adc   a,$ff0c+x
40a6: a8 40     sbc   a,#$40
40a8: f5 f0 80  mov   a,$80f0+x
40ab: 0b 30     asl   $30
40ad: 0a c7 08  or1   c,$0118,7
40b0: ff        stop
40b1: b3 40 ff  bbc5  $40,$40b2
40b4: b6 40 08  sbc   a,$0840+y
40b7: d0 0a     bne   $40c3
40b9: 94 20     adc   a,$20+x
40bb: ff        stop
40bc: be        das   a
40bd: 40        setp
40be: 08 d0     or    a,#$d0
40c0: 0a 94 03  or1   c,$0072,4
40c3: 08 d0     or    a,#$d0
40c5: 0a 97 03  or1   c,$0072,7
40c8: 08 d0     or    a,#$d0
40ca: 0a 99 20  or1   c,$0413,1
40cd: ff        stop
40ce: d0 40     bne   $4110
40d0: ff        stop
40d1: d3 40 03  bbc6  $40,$40d6
40d4: 50 0a     bvc   $40e0
40d6: 98 02 03  adc   $03,#$02
40d9: 50 0a     bvc   $40e5
40db: 98 02 ff  adc   $ff,#$02
40de: e0        clrv
40df: 40        setp
40e0: 08 d0     or    a,#$d0
40e2: 0a 8e 07  or1   c,$00f1,6
40e5: 08 d0     or    a,#$d0
40e7: 0a 8e 10  or1   c,$0211,6
40ea: 08 d0     or    a,#$d0
40ec: 0a 8e 09  or1   c,$0131,6
40ef: 08 d0     or    a,#$d0
40f1: 0a 8e 0e  or1   c,$01d1,6
40f4: ff        stop
40f5: f7 40     mov   a,($40)+y
40f7: 14 d0     or    a,$d0+x
40f9: 0a 98 03  or1   c,$0073,0
40fc: 14 e0     or    a,$e0+x
40fe: 0a 97 03  or1   c,$0072,7
4101: 14 d0     or    a,$d0+x
4103: 0a 95 03  or1   c,$0072,5
4106: 14 50     or    a,$50+x
4108: 0a 95 03  or1   c,$0072,5
410b: ff        stop
410c: 0e 41 00  tset1 $0041
410f: d8 0a     mov   $0a,x
4111: 95 08 f5  adc   a,$f508+x
4114: f0 8c     beq   $40a2
4116: 0b d0     asl   $d0
4118: 0a a3 06  or1   c,$00d4,3
411b: f5 f0 8c  mov   a,$8cf0+x
411e: 0b b0     asl   $b0
4120: 0a a3 06  or1   c,$00d4,3
4123: f5 f0 8c  mov   a,$8cf0+x
4126: 0b 70     asl   $70
4128: 0a a3 06  or1   c,$00d4,3
412b: ff        stop
412c: 2e 41 14  cbne  $41,$4142
412f: 80        setc
4130: 0a ab 04  or1   c,$0095,3
4133: 14 50     or    a,$50+x
4135: 0a ab 04  or1   c,$0095,3
4138: 14 30     or    a,$30+x
413a: 0a ab 04  or1   c,$0095,3
413d: 14 20     or    a,$20+x
413f: 0a ab 04  or1   c,$0095,3
4142: ff        stop
4143: 45 41 24  eor   a,$2441
4146: 70 0a     bvs   $4152
4148: 9c        dec   a
4149: 03 24 50  bbs0  $24,$419b
414c: 0a 9a 04  or1   c,$0093,2
414f: 24 40     and   a,$40
4151: 0a 9a 06  or1   c,$00d3,2
4154: 24 10     and   a,$10
4156: 0a 9a 06  or1   c,$00d3,2
4159: ff        stop
415a: 5c        lsr   a
415b: 41        tcall 4
415c: 08 a0     or    a,#$a0
415e: 0c 98 08  asl   $0898
4161: ff        stop
4162: 64 41     cmp   a,$41
4164: 00        nop
4165: 40        setp
4166: 0a 9c 08  or1   c,$0113,4
4169: 0f        brk
416a: 80        setc
416b: 0a 93 13  or1   c,$0272,3
416e: ff        stop
416f: 71        tcall 7
4170: 41        tcall 4
4171: 0b 20     asl   $20
4173: 0a 89 03  or1   c,$0071,1
4176: 0b 30     asl   $30
4178: 0a 89 03  or1   c,$0071,1
417b: 0b 40     asl   $40
417d: 0a 89 03  or1   c,$0071,1
4180: 0b 50     asl   $50
4182: 0a 89 03  or1   c,$0071,1
4185: 0b 60     asl   $60
4187: 0a 89 03  or1   c,$0071,1
418a: 0b 70     asl   $70
418c: 0a 89 03  or1   c,$0071,1
418f: 0b 80     asl   $80
4191: 0a 89 03  or1   c,$0071,1
4194: 0b 60     asl   $60
4196: 0a 89 03  or1   c,$0071,1
4199: 0b 50     asl   $50
419b: 0a 89 03  or1   c,$0071,1
419e: 0b 40     asl   $40
41a0: 0a 89 03  or1   c,$0071,1
41a3: 0b 30     asl   $30
41a5: 0a 89 03  or1   c,$0071,1
41a8: ff        stop
41a9: ad 41     cmp   y,#$41
41ab: b6 41 f5  sbc   a,$f541+y
41ae: b0 c7     bcs   $4177
41b0: 05 d0 0a  or    a,$0ad0
41b3: 98 46 ff  adc   $ff,#$46
41b6: f5 a0 c7  mov   a,$c7a0+x
41b9: 09 d0 0f  or    ($0f),($d0)
41bc: 80        setc
41bd: 50 f5     bvc   $41b4
41bf: 50 80     bvc   $4141
41c1: 09 d0 0a  or    ($0a),($d0)
41c4: ab 46     inc   $46
41c6: ff        stop
41c7: c9 41 0f  mov   $0f41,x
41ca: b0 0a     bcs   $41d6
41cc: 93 10 0f  bbc4  $10,$41dd
41cf: 40        setp
41d0: 0a 93 03  or1   c,$0072,3
41d3: 0f        brk
41d4: 30 0a     bmi   $41e0
41d6: 93 03 ff  bbc4  $03,$41d7
41d9: dd        mov   a,y
41da: 41        tcall 4
41db: e3 41 24  bbs7  $41,$4201
41de: a0        ei
41df: 0a 9a 0e  or1   c,$01d3,2
41e2: ff        stop
41e3: 24 00     and   a,$00
41e5: 0a 8c 03  or1   c,$0071,4
41e8: 24 90     and   a,$90
41ea: 0a 98 14  or1   c,$0293,0
41ed: ff        stop
41ee: f2 41     clr7  $41
41f0: 07 42     or    a,($42+x)
41f2: 19        or    (x),(y)
41f3: 60        clrc
41f4: 0a a4 13  or1   c,$0274,4
41f7: 19        or    (x),(y)
41f8: 50 0a     bvc   $4204
41fa: a4 13     sbc   a,$13
41fc: 19        or    (x),(y)
41fd: 30 0a     bmi   $4209
41ff: a4 13     sbc   a,$13
4201: 19        or    (x),(y)
4202: 10 0a     bpl   $420e
4204: a4 13     sbc   a,$13
4206: ff        stop
4207: 19        or    (x),(y)
4208: 60        clrc
4209: 0a 9f 16  or1   c,$02d3,7
420c: 19        or    (x),(y)
420d: 50 0a     bvc   $4219
420f: 9f        xcn   a
4210: 16 19 30  or    a,$3019+y
4213: 0a 9f 16  or1   c,$02d3,7
4216: 19        or    (x),(y)
4217: 10 0a     bpl   $4223
4219: 9f        xcn   a
421a: 16 ff 1e  or    a,$1eff+y
421d: 42 22     set2  $22
421f: d0 0a     bne   $422b
4221: 92 2b     clr4  $2b
4223: ff        stop
4224: 26        and   a,(x)
4225: 42 0f     set2  $0f
4227: b0 0a     bcs   $4233
4229: 93 10 0f  bbc4  $10,$423a
422c: 40        setp
422d: 0a 93 03  or1   c,$0072,3
4230: 0f        brk
4231: 30 0a     bmi   $423d
4233: 93 03 ff  bbc4  $03,$4234
4236: 38 42 14  and   $14,#$42
4239: b0 0a     bcs   $4245
423b: 93 05 14  bbc4  $05,$4251
423e: 80        setc
423f: 0a 9c 0a  or1   c,$0153,4
4242: 14 40     or    a,$40+x
4244: 0a 9c 03  or1   c,$0073,4
4247: 14 30     or    a,$30+x
4249: 0a 9c 03  or1   c,$0073,4
424c: ff        stop
424d: 4f 42     pcall $42
424f: f5 f0 80  mov   a,$80f0+x
4252: 0b 40     asl   $40
4254: 0a c5 04  or1   c,$0098,5
4257: f5 f0 80  mov   a,$80f0+x
425a: 0b 30     asl   $30
425c: 0a f6 03  or1   c,$007e,6
425f: f5 f0 80  mov   a,$80f0+x
4262: 0b 20     asl   $20
4264: 0a f6 03  or1   c,$007e,6
4267: ff        stop
4268: 6c 42 7a  ror   $7a42
426b: 42 09     set2  $09
426d: d0 0f     bne   $427e
426f: 87 10     adc   a,($10+x)
4271: f5 b0 c7  mov   a,$c7b0+x
4274: 05 d0 0f  or    a,$0fd0
4277: 80        setc
4278: 60        clrc
4279: ff        stop
427a: 09 d0 05  or    ($05),($d0)
427d: 82 30     set4  $30
427f: f5 a0 80  mov   a,$80a0+x
4282: 05 d0 05  or    a,$05d0
4285: c7 60     mov   ($60+x),a
4287: ff        stop
4288: 8a 42 08  eor1  c,$0108,2
428b: 70 0a     bvs   $4297
428d: 98 03 08  adc   $08,#$03
4290: 50 0a     bvc   $429c
4292: 95 03 08  adc   a,$0803+x
4295: 40        setp
4296: 0a 9a 03  or1   c,$0073,2
4299: ff        stop
429a: 9e        div   ya,x
429b: 42 a4     set2  $a4
429d: 42 24     set2  $24
429f: a0        ei
42a0: 0a 98 0d  or1   c,$01b3,0
42a3: ff        stop
42a4: 24 00     and   a,$00
42a6: 0a 94 03  or1   c,$0072,4
42a9: 24 80     and   a,$80
42ab: 0a 9a 15  or1   c,$02b3,2
42ae: ff        stop
42af: b3 42 b9  bbc5  $42,$426a
42b2: 42 25     set2  $25
42b4: d0 0a     bne   $42c0
42b6: 9d        mov   x,sp
42b7: 30 ff     bmi   $42b8
42b9: 25 d0 0a  and   a,$0ad0
42bc: a1        tcall 10
42bd: 30 ff     bmi   $42be
42bf: c3 42 c9  bbs6  $42,$428a
42c2: 42 24     set2  $24
42c4: a0        ei
42c5: 0a 98 15  or1   c,$02b3,0
42c8: ff        stop
42c9: 24 00     and   a,$00
42cb: 0a 96 03  or1   c,$0072,6
42ce: 24 80     and   a,$80
42d0: 0a 95 1d  or1   c,$03b2,5
42d3: ff        stop
42d4: c1        tcall 12
42d5: 3d        inc   x
42d6: d8 42     mov   $42,x
42d8: 0f        brk
42d9: b0 0a     bcs   $42e5
42db: 8b 08     dec   $08
42dd: f5 f0 bc  mov   a,$bcf0+x
42e0: 01        tcall 0
42e1: 70 0a     bvs   $42ed
42e3: 98 09 f5  adc   $f5,#$09
42e6: f0 bc     beq   $42a4
42e8: 01        tcall 0
42e9: 60        clrc
42ea: 0a 98 09  or1   c,$0133,0
42ed: f5 f0 bc  mov   a,$bcf0+x
42f0: 01        tcall 0
42f1: 50 0a     bvc   $42fd
42f3: 98 09 f5  adc   $f5,#$09
42f6: f0 bc     beq   $42b4
42f8: 01        tcall 0
42f9: 40        setp
42fa: 0a 98 09  or1   c,$0133,0
42fd: ff        stop
42fe: 00        nop
42ff: 43 01 b0  bbs2  $01,$42b1
4302: 0a 80 0f  or1   c,$01f0,0
4305: 01        tcall 0
4306: 60        clrc
4307: 0a 80 03  or1   c,$0070,0
430a: 01        tcall 0
430b: 40        setp
430c: 0a 80 03  or1   c,$0070,0
430f: ff        stop
4310: 12 43     clr0  $43
4312: 00        nop
4313: a0        ei
4314: 0a 84 0f  or1   c,$01f0,4
4317: 00        nop
4318: 60        clrc
4319: 0a 84 03  or1   c,$0070,4
431c: 00        nop
431d: 40        setp
431e: 0a 84 03  or1   c,$0070,4
4321: ff        stop
4322: 24 43     and   a,$43
4324: 14 90     or    a,$90+x
4326: 0a 82 0a  or1   c,$0150,2
4329: 14 80     or    a,$80+x
432b: 0a 82 03  or1   c,$0070,2
432e: 14 60     or    a,$60+x
4330: 0a 82 03  or1   c,$0070,2
4333: ff        stop
4334: 36 43 25  and   a,$2543+y
4337: 70 0a     bvs   $4343
4339: ab 20     inc   $20
433b: ff        stop
433c: 3e 43     cmp   x,$43
433e: f5 50 b0  mov   a,$b050+x
4341: 09 d0 0a  or    ($0a),($d0)
4344: 8c 20 ff  dec   $ff20
4347: 49 43 f5  eor   ($f5),($43)
434a: f0 b0     beq   $42fc
434c: 09 d0 0a  or    ($0a),($d0)
434f: 8c 10 ff  dec   $ff10
4352: 56 43 8e  eor   a,$8e43+y
4355: 43 00 e0  bbs2  $00,$4337
4358: 0a 95 05  or1   c,$00b2,5
435b: 01        tcall 0
435c: e0        clrv
435d: 0a a4 05  or1   c,$00b4,4
4360: 08 e0     or    a,#$e0
4362: 0a 9f 04  or1   c,$0093,7
4365: 08 e0     or    a,#$e0
4367: 0a 9c 03  or1   c,$0073,4
436a: 08 e0     or    a,#$e0
436c: 0a a1 03  or1   c,$0074,1
436f: 08 e0     or    a,#$e0
4371: 0a 93 04  or1   c,$0092,3
4374: 08 e0     or    a,#$e0
4376: 0a 93 08  or1   c,$0112,3
4379: 08 d0     or    a,#$d0
437b: 0a 8b 13  or1   c,$0271,3
437e: 08 d0     or    a,#$d0
4380: 0a 89 13  or1   c,$0271,1
4383: 08 d0     or    a,#$d0
4385: 0a 85 16  or1   c,$02d0,5
4388: 08 d0     or    a,#$d0
438a: 0a 82 18  or1   c,$0310,2
438d: ff        stop
438e: 00        nop
438f: e0        clrv
4390: 0a 95 05  or1   c,$00b2,5
4393: 18 e0 0a  or    $0a,#$e0
4396: a4 05     sbc   a,$05
4398: 18 e0 0a  or    $0a,#$e0
439b: 9f        xcn   a
439c: 04 18     or    a,$18
439e: e0        clrv
439f: 0a 9c 03  or1   c,$0073,4
43a2: 18 e0 0a  or    $0a,#$e0
43a5: a1        tcall 10
43a6: 03 18 e0  bbs0  $18,$4388
43a9: 0a 93 04  or1   c,$0092,3
43ac: 18 e0 0a  or    $0a,#$e0
43af: 93 08 18  bbc4  $08,$43c9
43b2: e0        clrv
43b3: 0a 8c 05  or1   c,$00b1,4
43b6: 18 e0 0a  or    $0a,#$e0
43b9: 87 04     adc   a,($04+x)
43bb: 18 e0 0a  or    $0a,#$e0
43be: 84 03     adc   a,$03
43c0: ff        stop
43c1: c3 43 f5  bbs6  $43,$43b8
43c4: 50 b0     bvc   $4376
43c6: 09 d0 0a  or    ($0a),($d0)
43c9: 8c 18 ff  dec   $ff18
43cc: ce        pop   x
43cd: 43 14 a0  bbs2  $14,$436f
43d0: 0a 97 03  or1   c,$0072,7
43d3: 14 a0     or    a,$a0+x
43d5: 0a 97 03  or1   c,$0072,7
43d8: 14 a0     or    a,$a0+x
43da: 0a 97 03  or1   c,$0072,7
43dd: 14 30     or    a,$30+x
43df: 0a 97 03  or1   c,$0072,7
43e2: 14 20     or    a,$20+x
43e4: 0a 97 03  or1   c,$0072,7
43e7: ff        stop
43e8: ea 43 14  not1  $0288,3
43eb: 80        setc
43ec: 0a 98 0a  or1   c,$0153,0
43ef: 14 40     or    a,$40+x
43f1: 0a 98 03  or1   c,$0073,0
43f4: 14 30     or    a,$30+x
43f6: 0a 98 03  or1   c,$0073,0
43f9: ff        stop
43fa: fc        inc   y
43fb: 43 00 d8  bbs2  $00,$43d5
43fe: 0a 98 05  or1   c,$00b3,0
4401: f5 f0 c7  mov   a,$c7f0+x
4404: 0b 50     asl   $50
4406: 0a b0 03  or1   c,$0076,0
4409: f5 f0 c7  mov   a,$c7f0+x
440c: 0b 50     asl   $50
440e: 0a b0 03  or1   c,$0076,0
4411: f5 f0 c7  mov   a,$c7f0+x
4414: 0b 50     asl   $50
4416: 0a b0 03  or1   c,$0076,0
4419: f5 f0 bc  mov   a,$bcf0+x
441c: 0b 50     asl   $50
441e: 0a b0 03  or1   c,$0076,0
4421: ff        stop
4422: 24 44     and   a,$44
4424: 1b a0     asl   $a0+x
4426: 0a 94 06  or1   c,$00d2,4
4429: 1b 90     asl   $90+x
442b: 0a 8c 20  or1   c,$0411,4
442e: ff        stop
442f: 31        tcall 3
4430: 44 02     eor   a,$02
4432: 80        setc
4433: 0a 89 05  or1   c,$00b1,1
4436: 02 40     set0  $40
4438: 0a 89 03  or1   c,$0071,1
443b: 02 10     set0  $10
443d: 0a 89 03  or1   c,$0071,1
4440: ff        stop
4441: 99        adc   (x),(y)
4442: 3f fc 43  call  $43fc
4445: ff        stop
4446: 48 44     eor   a,#$44
4448: 00        nop
4449: 40        setp
444a: 0a a8 08  or1   c,$0115,0
444d: ff        stop
444e: 50 44     bvc   $4494
4450: 00        nop
4451: e0        clrv
4452: 0a 91 08  or1   c,$0112,1
4455: 08 90     or    a,#$90
4457: 0a a1 03  or1   c,$0074,1
445a: 08 90     or    a,#$90
445c: 0a 9e 03  or1   c,$0073,6
445f: 08 90     or    a,#$90
4461: 0a a3 03  or1   c,$0074,3
4464: 08 90     or    a,#$90
4466: 0a 8e 03  or1   c,$0071,6
4469: 08 90     or    a,#$90
446b: 0a 8e 25  or1   c,$04b1,6
446e: ff        stop
446f: 73 44 79  bbc3  $44,$44ea
4472: 44 23     eor   a,$23
4474: d0 0a     bne   $4480
4476: 80        setc
4477: 20        clrp
4478: ff        stop
4479: 23 d0 0a  bbs1  $d0,$4485
447c: 87 20     adc   a,($20+x)
447e: ff        stop
447f: 83 44 89  bbs4  $44,$440a
4482: 44 25     eor   a,$25
4484: e0        clrv
4485: 0a 80 c0  or1   c,$1810,0
4488: ff        stop
4489: 24 e0     and   a,$e0
448b: 0a 8c c0  or1   c,$1811,4
448e: ff        stop
448f: 91        tcall 9
4490: 44 1a     eor   a,$1a
4492: 60        clrc
4493: 0a ab 06  or1   c,$00d5,3
4496: 1a 60     decw  $60
4498: 0a b0 09  or1   c,$0136,0
449b: ff        stop
449c: 9e        div   ya,x
449d: 44 09     eor   a,$09
449f: 00        nop
44a0: 0a 8c 03  or1   c,$0071,4
44a3: ff        stop
44a4: a8 44     sbc   a,#$44
44a6: ae        pop   a
44a7: 44 24     eor   a,$24
44a9: a0        ei
44aa: 0a 8c 30  or1   c,$0611,4
44ad: ff        stop
44ae: 24 00     and   a,$00
44b0: 0a 9d 03  or1   c,$0073,5
44b3: 24 80     and   a,$80
44b5: 0a 87 45  or1   c,$08b0,7
44b8: ff        stop
44b9: bd        mov   sp,x
44ba: 44 c3     eor   a,$c3
44bc: 44 25     eor   a,$25
44be: e0        clrv
44bf: 0a a3 40  or1   c,$0814,3
44c2: ff        stop
44c3: 25 00 0a  and   a,$0a00
44c6: a6        sbc   a,(x)
44c7: 0c 25 80  asl   $8025
44ca: 0a a3 40  or1   c,$0814,3
44cd: ff        stop
44ce: d2 44     clr6  $44
44d0: d8 44     mov   $44,x
44d2: 25 90 0a  and   a,$0a90
44d5: 92 53     clr4  $53
44d7: ff        stop
44d8: 26        and   a,(x)
44d9: e0        clrv
44da: 0a a6 09  or1   c,$0134,6
44dd: 26        and   a,(x)
44de: e0        clrv
44df: 0a a4 0d  or1   c,$01b4,4
44e2: 26        and   a,(x)
44e3: e0        clrv
44e4: 0a a2 0d  or1   c,$01b4,2
44e7: 26        and   a,(x)
44e8: e0        clrv
44e9: 0a a0 0d  or1   c,$01b4,0
44ec: ff        stop
44ed: f1        tcall 15
44ee: 44 47     eor   a,$47
44f0: 45 0d 00  eor   a,$000d
44f3: 0c a3 05  asl   $05a3
44f6: 0d        push  psw
44f7: a0        ei
44f8: 0c a3 02  asl   $02a3
44fb: 0d        push  psw
44fc: c0        di
44fd: 0c a1 02  asl   $02a1
4500: 0d        push  psw
4501: c0        di
4502: 0c 9f 03  asl   $039f
4505: 0d        push  psw
4506: c0        di
4507: 0c 9d 03  asl   $039d
450a: 0d        push  psw
450b: b0 0c     bcs   $4519
450d: 9c        dec   a
450e: 03 0d a0  bbs0  $0d,$44b0
4511: 0c 9a 02  asl   $029a
4514: 0d        push  psw
4515: 90 0c     bcc   $4523
4517: a3 02 0d  bbs5  $02,$4526
451a: 90 0c     bcc   $4528
451c: 98 04 0d  adc   $0d,#$04
451f: a0        ei
4520: 0c 97 02  asl   $0297
4523: 0d        push  psw
4524: c0        di
4525: 0c 95 02  asl   $0295
4528: 0d        push  psw
4529: c0        di
452a: 0c 93 03  asl   $0393
452d: 0d        push  psw
452e: c0        di
452f: 0c 91 03  asl   $0391
4532: 0d        push  psw
4533: b0 0c     bcs   $4541
4535: 90 03     bcc   $453a
4537: 0d        push  psw
4538: a0        ei
4539: 0c 8e 02  asl   $028e
453c: 0d        push  psw
453d: 90 0c     bcc   $454b
453f: 97 02     adc   a,($02)+y
4541: 0d        push  psw
4542: 90 0c     bcc   $4550
4544: 8c 04 ff  dec   $ff04
4547: 0d        push  psw
4548: a0        ei
4549: 0c 97 02  asl   $0297
454c: 0d        push  psw
454d: b0 0c     bcs   $455b
454f: 90 03     bcc   $4554
4551: 0d        push  psw
4552: c0        di
4553: 0c 91 03  asl   $0391
4556: 0d        push  psw
4557: c0        di
4558: 0c 91 03  asl   $0391
455b: 0d        push  psw
455c: b0 0c     bcs   $456a
455e: 90 03     bcc   $4563
4560: 0d        push  psw
4561: 90 0c     bcc   $456f
4563: 97 02     adc   a,($02)+y
4565: 0d        push  psw
4566: 90 0c     bcc   $4574
4568: 97 02     adc   a,($02)+y
456a: 0d        push  psw
456b: 90 0c     bcc   $4579
456d: 8c 04 0d  dec   $0d04
4570: a0        ei
4571: 0c 8b 02  asl   $028b
4574: 0d        push  psw
4575: 90 0c     bcc   $4583
4577: 8b 02     dec   $02
4579: 0d        push  psw
457a: c0        di
457b: 0c 87 03  asl   $0387
457e: 0d        push  psw
457f: c0        di
4580: 0c 85 03  asl   $0385
4583: 0d        push  psw
4584: c0        di
4585: 0c 89 02  asl   $0289
4588: 0d        push  psw
4589: b0 0c     bcs   $4597
458b: 84 03     adc   a,$03
458d: 0d        push  psw
458e: c0        di
458f: 0c 89 02  asl   $0289
4592: 0d        push  psw
4593: 90 0c     bcc   $45a1
4595: 80        setc
4596: 04 ff     or    a,$ff
4598: 22 3e     set1  $3e
459a: 9e        div   ya,x
459b: 45 d1 45  eor   a,$45d1
459e: 25 d0 0a  and   a,$0ad0
45a1: a7 15     sbc   a,($15+x)
45a3: 25 d0 0a  and   a,$0ad0
45a6: a3 20 25  bbs5  $20,$45cd
45a9: d0 0a     bne   $45b5
45ab: a2 63     set5  $63
45ad: 25 00 0a  and   a,$0a00
45b0: a2 09     set5  $09
45b2: 25 d0 0a  and   a,$0ad0
45b5: a2 60     set5  $60
45b7: 25 00 0a  and   a,$0a00
45ba: a2 09     set5  $09
45bc: 25 d0 0a  and   a,$0ad0
45bf: a2 60     set5  $60
45c1: 25 00 0a  and   a,$0a00
45c4: a2 09     set5  $09
45c6: 25 d0 0a  and   a,$0ad0
45c9: a3 20 25  bbs5  $20,$45f0
45cc: d0 0a     bne   $45d8
45ce: a2 33     set5  $33
45d0: ff        stop
45d1: 26        and   a,(x)
45d2: d0 0a     bne   $45de
45d4: a6        sbc   a,(x)
45d5: 0d        push  psw
45d6: 26        and   a,(x)
45d7: d0 0a     bne   $45e3
45d9: a6        sbc   a,(x)
45da: 0d        push  psw
45db: 26        and   a,(x)
45dc: d0 0a     bne   $45e8
45de: a5 0d 26  sbc   a,$260d
45e1: d0 0a     bne   $45ed
45e3: a4 0d     sbc   a,$0d
45e5: 26        and   a,(x)
45e6: d0 0a     bne   $45f2
45e8: a7 0d     sbc   a,($0d+x)
45ea: 26        and   a,(x)
45eb: d0 0a     bne   $45f7
45ed: a2 0d     set5  $0d
45ef: 26        and   a,(x)
45f0: 00        nop
45f1: 0a aa 7b  or1   c,$0f75,2
45f4: 26        and   a,(x)
45f5: 00        nop
45f6: 0a aa 90  or1   c,$1215,2
45f9: 26        and   a,(x)
45fa: d0 0a     bne   $4606
45fc: a7 0d     sbc   a,($0d+x)
45fe: 26        and   a,(x)
45ff: d0 0a     bne   $460b
4601: a6        sbc   a,(x)
4602: 0d        push  psw
4603: 26        and   a,(x)
4604: d0 0a     bne   $4610
4606: a5 0d 26  sbc   a,$260d
4609: d0 0a     bne   $4615
460b: a4 0d     sbc   a,$0d
460d: 26        and   a,(x)
460e: d0 0a     bne   $461a
4610: a3 0d 26  bbs5  $0d,$4638
4613: d0 0a     bne   $461f
4615: a2 0d     set5  $0d
4617: ff        stop
4618: 1c        asl   a
4619: 46        eor   a,(x)
461a: 22 46     set1  $46
461c: 24 a0     and   a,$a0
461e: 0a 9c 20  or1   c,$0413,4
4621: ff        stop
4622: 24 00     and   a,$00
4624: 0a 9d 05  or1   c,$00b3,5
4627: 24 80     and   a,$80
4629: 0a 95 40  or1   c,$0812,5
462c: ff        stop
462d: 31        tcall 3
462e: 46        eor   a,(x)
462f: 37 46     and   a,($46)+y
4631: 26        and   a,(x)
4632: d0 0a     bne   $463e
4634: 95 38 ff  adc   a,$ff38+x
4637: 26        and   a,(x)
4638: 00        nop
4639: 0a 95 0a  or1   c,$0152,5
463c: 26        and   a,(x)
463d: d0 0a     bne   $4649
463f: 9c        dec   a
4640: 38 ff 46  and   $46,#$ff
4643: 46        eor   a,(x)
4644: 4c 46 26  lsr   $2646
4647: d0 0a     bne   $4653
4649: 8e        pop   psw
464a: 40        setp
464b: ff        stop
464c: 26        and   a,(x)
464d: 00        nop
464e: 0a 8e 0a  or1   c,$0151,6
4651: 26        and   a,(x)
4652: d0 0a     bne   $465e
4654: 99        adc   (x),(y)
4655: 40        setp
4656: ff        stop
4657: 5b 46     lsr   $46+x
4659: 61        tcall 6
465a: 46        eor   a,(x)
465b: 26        and   a,(x)
465c: d0 0a     bne   $4668
465e: 9e        div   ya,x
465f: 3d        inc   x
4660: ff        stop
4661: 26        and   a,(x)
4662: 00        nop
4663: 0a 9e 0a  or1   c,$0153,6
4666: 26        and   a,(x)
4667: d0 0a     bne   $4673
4669: 9d        mov   x,sp
466a: 3d        inc   x
466b: ff        stop
466c: 6e 46 24  dbnz  $46,$4692
466f: 90 0a     bcc   $467b
4671: 94 1a     adc   a,$1a+x
4673: 24 30     and   a,$30
4675: 0a 94 10  or1   c,$0212,4
4678: ff        stop
4679: 7b 46     ror   $46+x
467b: 22 d0     set1  $d0
467d: 0a 88 90  or1   c,$1211,0
4680: 22 d0     set1  $d0
4682: 0a 8e 37  or1   c,$06f1,6
4685: ff        stop
4686: 88 46     adc   a,#$46
4688: 25 d0 0a  and   a,$0ad0
468b: 87 c0     adc   a,($c0+x)
468d: ff        stop
468e: 92 46     clr4  $46
4690: c8 46     cmp   x,#$46
4692: fe 00     dbnz  y,$4694
4694: 24 d0     and   a,$d0
4696: 0a 84 0d  or1   c,$01b0,4
4699: 24 d0     and   a,$d0
469b: 0a 85 0d  or1   c,$01b0,5
469e: 24 d0     and   a,$d0
46a0: 0a 87 0d  or1   c,$01b0,7
46a3: 24 d0     and   a,$d0
46a5: 0a 89 0d  or1   c,$01b1,1
46a8: 24 d0     and   a,$d0
46aa: 0a 8b 0d  or1   c,$01b1,3
46ad: 24 d0     and   a,$d0
46af: 0a 8c 0d  or1   c,$01b1,4
46b2: 24 d0     and   a,$d0
46b4: 0a 8e 0d  or1   c,$01b1,6
46b7: 24 d0     and   a,$d0
46b9: 0a 90 0d  or1   c,$01b2,0
46bc: 24 d0     and   a,$d0
46be: 0a 91 0d  or1   c,$01b2,1
46c1: 24 d0     and   a,$d0
46c3: 0a 93 0d  or1   c,$01b2,3
46c6: fb ff     mov   y,$ff+x
46c8: 24 00     and   a,$00
46ca: 0a 80 04  or1   c,$0090,0
46cd: fe 00     dbnz  y,$46cf
46cf: 24 d0     and   a,$d0
46d1: 0a 84 0d  or1   c,$01b0,4
46d4: 24 d0     and   a,$d0
46d6: 0a 85 0d  or1   c,$01b0,5
46d9: 24 d0     and   a,$d0
46db: 0a 87 0d  or1   c,$01b0,7
46de: 24 d0     and   a,$d0
46e0: 0a 89 0d  or1   c,$01b1,1
46e3: 24 d0     and   a,$d0
46e5: 0a 8b 0d  or1   c,$01b1,3
46e8: 24 d0     and   a,$d0
46ea: 0a 8c 0d  or1   c,$01b1,4
46ed: 24 d0     and   a,$d0
46ef: 0a 8e 0d  or1   c,$01b1,6
46f2: 24 d0     and   a,$d0
46f4: 0a 90 0d  or1   c,$01b2,0
46f7: 24 d0     and   a,$d0
46f9: 0a 91 0d  or1   c,$01b2,1
46fc: 24 d0     and   a,$d0
46fe: 0a 93 0d  or1   c,$01b2,3
4701: fb ff     mov   y,$ff+x

4703: 5f d4 47  jmp   $47d4
4706: e5 a9 04  mov   a,$04a9       ;Subroutine 4706: Looks like the same as 1EE7 for byte 3
4709: f0 00     beq   $470b
470b: eb 0b     mov   y,$0b
470d: e4 03     mov   a,$03
470f: c4 0b     mov   $0b,a
4711: c4 07     mov   $07,a
4713: 7e 03     cmp   y,$03
4715: d0 06     bne   $471d
4717: e5 70 04  mov   a,$0470
471a: d0 e7     bne   $4703
471c: 6f        ret
471d: 68 00     cmp   a,#$00
471f: f0 f6     beq   $4717
4721: e4 03     mov   a,$03
4723: 68 01     cmp   a,#$01
4725: f0 12     beq   $4739
4727: e5 ba 04  mov   a,$04ba
472a: 68 02     cmp   a,#$02
472c: f0 e9     beq   $4717
472e: e4 03     mov   a,$03
4730: 68 02     cmp   a,#$02
4732: f0 05     beq   $4739
4734: e5 bd 04  mov   a,$04bd
4737: d0 de     bne   $4717
4739: e5 70 04  mov   a,$0470
473c: f0 0b     beq   $4749
473e: e8 00     mov   a,#$00
4740: c5 85 04  mov   $0485,a
4743: 3f 86 4b  call  $4b86
4746: 3f c9 4b  call  $4bc9
4749: e8 00     mov   a,#$00
474b: c5 9f 04  mov   $049f,a
474e: c5 a6 04  mov   $04a6,a
4751: e4 07     mov   a,$07
4753: 9c        dec   a
4754: 1c        asl   a
4755: c5 71 04  mov   $0471,a
4758: e9 71 04  mov   x,$0471
475b: f5 8f 4e  mov   a,$4e8f+x
475e: c4 e0     mov   $e0,a
4760: 3d        inc   x
4761: f5 8f 4e  mov   a,$4e8f+x
4764: c4 e1     mov   $e1,a
4766: e4 07     mov   a,$07
4768: c5 70 04  mov   $0470,a
476b: 68 fe     cmp   a,#$fe
476d: f0 65     beq   $47d4
476f: 68 ff     cmp   a,#$ff
4771: f0 61     beq   $47d4
4773: 3f 75 28  call  $2875
4776: d0 4d     bne   $47c5
4778: e0        clrv
4779: 4d        push  x
477a: eb 4d     mov   y,$4d
477c: ef        sleep
477d: 4d        push  x
477e: ef        sleep
477f: 4d        push  x
4780: f3 4d f7  bbc7  $4d,$4779
4783: 4d        push  x
4784: f7 4d     mov   a,($4d)+y
4786: fb 4d     mov   y,$4d+x
4788: ff        stop
4789: 4d        push  x
478a: 03 4e 07  bbs0  $4e,$4793
478d: 4e 07 4e  tclr1 $4e07
4790: 0b 4e     asl   $4e
4792: 0f        brk
4793: 4e 13 4e  tclr1 $4e13
4796: 17 4e     or    a,($4e)+y
4798: 1b 4e     asl   $4e+x
479a: 1f 4e 23  jmp   ($234e+x)
479d: 4e 23 4e  tclr1 $4e23
47a0: 27 4e     and   a,($4e+x)
47a2: 2b 4e     rol   $4e
47a4: 2f 4e     bra   $47f4
47a6: 33 4e 37  bbc1  $4e,$47df
47a9: 4e 3b 4e  tclr1 $4e3b
47ac: 3f 4e 3f  call  $3f4e
47af: 4e 3f 4e  tclr1 $4e3f
47b2: 3f 4e 43  call  $434e
47b5: 4e 43 4e  tclr1 $4e43
47b8: 47 4e     eor   a,($4e+x)
47ba: 47 4e     eor   a,($4e+x)
47bc: 4b 4e     lsr   $4e
47be: 4f 4e     pcall $4e
47c0: 4f 4e     pcall $4e
47c2: 4f 4e     pcall $4e
47c4: 4f 4e     pcall $4e
47c6: 4f 4e     pcall $4e
47c8: 4f 4e     pcall $4e
47ca: 4f 4e     pcall $4e
47cc: 53 4e 57  bbc2  $4e,$4825
47cf: 4e 5b 4e  tclr1 $4e5b
47d2: 5f 4e e8  jmp   $e84e
47d5: ff        stop
47d6: 65 7c 04  cmp   a,$047c
47d9: f0 3a     beq   $4815
47db: 3f 3b 4c  call  $4c3b
47de: 8d 00     mov   y,#$00
47e0: f7 e0     mov   a,($e0)+y
47e2: c4 e8     mov   $e8,a
47e4: 3f c8 4d  call  $4dc8
47e7: c4 e9     mov   $e9,a
47e9: 3f c8 4d  call  $4dc8
47ec: c4 ea     mov   $ea,a
47ee: 3f c8 4d  call  $4dc8
47f1: c4 eb     mov   $eb,a
47f3: e5 83 04  mov   a,$0483
47f6: 3f cc 4d  call  $4dcc
47f9: c5 86 04  mov   $0486,a
47fc: e5 84 04  mov   a,$0484
47ff: 3f cc 4d  call  $4dcc
4802: c5 87 04  mov   $0487,a
4805: 8d 00     mov   y,#$00
4807: cc 72 04  mov   $0472,y
480a: cc 73 04  mov   $0473,y
480d: 8d 01     mov   y,#$01
480f: cc 74 04  mov   $0474,y
4812: cc 75 04  mov   $0475,y
4815: e8 ff     mov   a,#$ff
4817: 65 76 04  cmp   a,$0476
481a: d0 03     bne   $481f
481c: 5f cf 49  jmp   $49cf
481f: 8c 74 04  dec   $0474
4822: f0 03     beq   $4827
4824: 5f 68 49  jmp   $4968
4827: e5 9f 04  mov   a,$049f
482a: f0 02     beq   $482e
482c: 2f 43     bra   $4871
482e: e8 00     mov   a,#$00
4830: c5 9e 04  mov   $049e,a
4833: c5 9c 04  mov   $049c,a
4836: c5 9d 04  mov   $049d,a
4839: e8 ff     mov   a,#$ff
483b: 65 8c 04  cmp   a,$048c
483e: f0 16     beq   $4856
4840: e5 7e 04  mov   a,$047e
4843: 04 46     or    a,$46
4845: c4 46     mov   $46,a
4847: e8 02     mov   a,#$02
4849: c5 8d 04  mov   $048d,a
484c: e8 01     mov   a,#$01
484e: c5 74 04  mov   $0474,a
4851: e8 ff     mov   a,#$ff
4853: c5 8c 04  mov   $048c,a
4856: 8c 8d 04  dec   $048d
4859: f0 03     beq   $485e
485b: 5f cf 49  jmp   $49cf
485e: e8 00     mov   a,#$00
4860: c5 8c 04  mov   $048c,a
4863: e5 80 04  mov   a,$0480
4866: 24 47     and   a,$47
4868: c4 47     mov   $47,a
486a: e5 80 04  mov   a,$0480
486d: 24 49     and   a,$49
486f: c4 49     mov   $49,a
4871: 3f 1d 4c  call  $4c1d
4874: 68 fa     cmp   a,#$fa
4876: d0 00     bne   $4878
4878: 68 f9     cmp   a,#$f9
487a: d0 14     bne   $4890
487c: 3f 1d 4c  call  $4c1d
487f: c5 94 04  mov   $0494,a
4882: 3f 1d 4c  call  $4c1d
4885: c5 95 04  mov   $0495,a
4888: e8 ff     mov   a,#$ff
488a: c5 98 04  mov   $0498,a
488d: 5f 71 48  jmp   $4871
4890: 68 f5     cmp   a,#$f5
4892: d0 05     bne   $4899
4894: c5 a0 04  mov   $04a0,a
4897: 2f 09     bra   $48a2
4899: 68 f8     cmp   a,#$f8
489b: d0 19     bne   $48b6
489d: e8 00     mov   a,#$00
489f: c5 a0 04  mov   $04a0,a
48a2: 3f 1d 4c  call  $4c1d
48a5: c5 9c 04  mov   $049c,a
48a8: 3f 1d 4c  call  $4c1d
48ab: c5 9d 04  mov   $049d,a
48ae: e8 ff     mov   a,#$ff
48b0: c5 9e 04  mov   $049e,a
48b3: 3f 1d 4c  call  $4c1d
48b6: 68 ff     cmp   a,#$ff
48b8: d0 06     bne   $48c0
48ba: 3f 86 4b  call  $4b86
48bd: 5f cf 49  jmp   $49cf
48c0: 68 fe     cmp   a,#$fe
48c2: d0 0f     bne   $48d3
48c4: 3f 1d 4c  call  $4c1d
48c7: c5 90 04  mov   $0490,a
48ca: e5 72 04  mov   a,$0472
48cd: c5 92 04  mov   $0492,a
48d0: 3f 1d 4c  call  $4c1d
48d3: 68 fd     cmp   a,#$fd
48d5: d0 11     bne   $48e8
48d7: 8c 90 04  dec   $0490
48da: d0 03     bne   $48df
48dc: 5f 71 48  jmp   $4871
48df: e5 92 04  mov   a,$0492
48e2: c5 72 04  mov   $0472,a
48e5: 3f 1d 4c  call  $4c1d
48e8: 68 fb     cmp   a,#$fb
48ea: d0 03     bne   $48ef
48ec: 5f df 48  jmp   $48df
48ef: 68 fc     cmp   a,#$fc
48f1: d0 0a     bne   $48fd
48f3: e5 7e 04  mov   a,$047e
48f6: 04 49     or    a,$49
48f8: c4 49     mov   $49,a
48fa: 5f 71 48  jmp   $4871
48fd: e9 83 04  mov   x,$0483
4900: 3f fc 18  call  $18fc
4903: 3f 1d 4c  call  $4c1d
4906: e9 83 04  mov   x,$0483
4909: d5 21 03  mov   $0321+x,a
490c: e8 00     mov   a,#$00
490e: d5 51 03  mov   $0351+x,a
4911: 3f 1d 4c  call  $4c1d
4914: c4 11     mov   $11,a
4916: 8f 00 10  mov   $10,#$00
4919: 3f 4a 1c  call  $1c4a
491c: 3f 1d 4c  call  $4c1d
491f: 68 f6     cmp   a,#$f6
4921: f0 08     beq   $492b
4923: c5 9a 04  mov   $049a,a
4926: e8 00     mov   a,#$00
4928: c5 9b 04  mov   $049b,a
492b: ec 9a 04  mov   y,$049a
492e: e5 9b 04  mov   a,$049b
4931: da 10     movw  $10,ya
4933: e9 83 04  mov   x,$0483
4936: 3f b1 16  call  $16b1
4939: 3f 1d 4c  call  $4c1d
493c: c5 74 04  mov   $0474,a
493f: e5 98 04  mov   a,$0498
4942: f0 18     beq   $495c
4944: e5 86 04  mov   a,$0486
4947: 08 05     or    a,#$05
4949: fd        mov   y,a
494a: e5 94 04  mov   a,$0494
494d: 3f 26 17  call  $1726
4950: e5 86 04  mov   a,$0486
4953: 08 06     or    a,#$06
4955: fd        mov   y,a
4956: e5 95 04  mov   a,$0495
4959: 3f 26 17  call  $1726
495c: e5 9f 04  mov   a,$049f
495f: d0 07     bne   $4968
4961: e5 7e 04  mov   a,$047e
4964: 04 45     or    a,$45
4966: c4 45     mov   $45,a
4968: e5 9e 04  mov   a,$049e
496b: 68 ff     cmp   a,#$ff
496d: d0 60     bne   $49cf
496f: e5 a0 04  mov   a,$04a0
4972: f0 05     beq   $4979
4974: e8 ff     mov   a,#$ff
4976: c5 9f 04  mov   $049f,a
4979: e5 9a 04  mov   a,$049a
497c: 65 9d 04  cmp   a,$049d
497f: 90 21     bcc   $49a2
4981: e5 9b 04  mov   a,$049b
4984: 80        setc
4985: a5 9c 04  sbc   a,$049c
4988: c5 9b 04  mov   $049b,a
498b: b0 34     bcs   $49c1
498d: 8c 9a 04  dec   $049a
4990: e5 9d 04  mov   a,$049d
4993: 65 9a 04  cmp   a,$049a
4996: d0 29     bne   $49c1
4998: e8 00     mov   a,#$00
499a: c5 9e 04  mov   $049e,a
499d: c5 9f 04  mov   $049f,a
49a0: 2f 1f     bra   $49c1
49a2: e5 9c 04  mov   a,$049c
49a5: 60        clrc
49a6: 85 9b 04  adc   a,$049b
49a9: c5 9b 04  mov   $049b,a
49ac: 90 13     bcc   $49c1
49ae: ac 9a 04  inc   $049a
49b1: e5 9d 04  mov   a,$049d
49b4: 65 9a 04  cmp   a,$049a
49b7: d0 08     bne   $49c1
49b9: e8 00     mov   a,#$00
49bb: c5 9e 04  mov   $049e,a
49be: c5 9f 04  mov   $049f,a
49c1: e5 9b 04  mov   a,$049b
49c4: ec 9a 04  mov   y,$049a
49c7: da 10     movw  $10,ya
49c9: e9 83 04  mov   x,$0483
49cc: 3f b1 16  call  $16b1
49cf: e8 ff     mov   a,#$ff
49d1: 65 77 04  cmp   a,$0477
49d4: d0 03     bne   $49d9
49d6: 5f 85 4b  jmp   $4b85
49d9: 8c 75 04  dec   $0475
49dc: f0 03     beq   $49e1
49de: 5f 1e 4b  jmp   $4b1e
49e1: e5 a6 04  mov   a,$04a6
49e4: f0 02     beq   $49e8
49e6: 2f 43     bra   $4a2b
49e8: e8 00     mov   a,#$00
49ea: c5 a5 04  mov   $04a5,a
49ed: c5 a3 04  mov   $04a3,a
49f0: c5 a4 04  mov   $04a4,a
49f3: e8 ff     mov   a,#$ff
49f5: 65 8e 04  cmp   a,$048e
49f8: f0 16     beq   $4a10
49fa: e5 7f 04  mov   a,$047f
49fd: 04 46     or    a,$46
49ff: c4 46     mov   $46,a
4a01: e8 02     mov   a,#$02
4a03: c5 8f 04  mov   $048f,a
4a06: e8 01     mov   a,#$01
4a08: c5 75 04  mov   $0475,a
4a0b: e8 ff     mov   a,#$ff
4a0d: c5 8e 04  mov   $048e,a
4a10: 8c 8f 04  dec   $048f
4a13: f0 03     beq   $4a18
4a15: 5f 85 4b  jmp   $4b85
4a18: e8 00     mov   a,#$00
4a1a: c5 8e 04  mov   $048e,a
4a1d: e5 81 04  mov   a,$0481
4a20: 24 47     and   a,$47
4a22: c4 47     mov   $47,a
4a24: e5 81 04  mov   a,$0481
4a27: 24 49     and   a,$49
4a29: c4 49     mov   $49,a
4a2b: 3f 26 4c  call  $4c26
4a2e: 68 f9     cmp   a,#$f9
4a30: d0 14     bne   $4a46
4a32: 3f 26 4c  call  $4c26
4a35: c5 96 04  mov   $0496,a
4a38: 3f 26 4c  call  $4c26
4a3b: c5 97 04  mov   $0497,a
4a3e: e8 ff     mov   a,#$ff
4a40: c5 99 04  mov   $0499,a
4a43: 5f 2b 4a  jmp   $4a2b
4a46: 68 f5     cmp   a,#$f5
4a48: d0 05     bne   $4a4f
4a4a: c5 a7 04  mov   $04a7,a
4a4d: 2f 09     bra   $4a58
4a4f: 68 f8     cmp   a,#$f8
4a51: d0 19     bne   $4a6c
4a53: e8 00     mov   a,#$00
4a55: c5 a7 04  mov   $04a7,a
4a58: 3f 26 4c  call  $4c26
4a5b: c5 a3 04  mov   $04a3,a
4a5e: 3f 26 4c  call  $4c26
4a61: c5 a4 04  mov   $04a4,a
4a64: e8 ff     mov   a,#$ff
4a66: c5 a5 04  mov   $04a5,a
4a69: 3f 26 4c  call  $4c26
4a6c: 68 ff     cmp   a,#$ff
4a6e: d0 06     bne   $4a76
4a70: 3f c9 4b  call  $4bc9
4a73: 5f 85 4b  jmp   $4b85
4a76: 68 fe     cmp   a,#$fe
4a78: d0 0f     bne   $4a89
4a7a: 3f 26 4c  call  $4c26
4a7d: c5 91 04  mov   $0491,a
4a80: e5 73 04  mov   a,$0473
4a83: c5 93 04  mov   $0493,a
4a86: 3f 26 4c  call  $4c26
4a89: 68 fd     cmp   a,#$fd
4a8b: d0 11     bne   $4a9e
4a8d: 8c 91 04  dec   $0491
4a90: d0 03     bne   $4a95
4a92: 5f 2b 4a  jmp   $4a2b
4a95: e5 93 04  mov   a,$0493
4a98: c5 73 04  mov   $0473,a
4a9b: 3f 26 4c  call  $4c26
4a9e: 68 fb     cmp   a,#$fb
4aa0: d0 03     bne   $4aa5
4aa2: 5f 95 4a  jmp   $4a95
4aa5: 68 fc     cmp   a,#$fc
4aa7: d0 0a     bne   $4ab3
4aa9: e5 7f 04  mov   a,$047f
4aac: 04 49     or    a,$49
4aae: c4 49     mov   $49,a
4ab0: 5f 2b 4a  jmp   $4a2b
4ab3: e9 84 04  mov   x,$0484
4ab6: 3f fc 18  call  $18fc
4ab9: 3f 26 4c  call  $4c26
4abc: e9 84 04  mov   x,$0484
4abf: d5 21 03  mov   $0321+x,a
4ac2: e8 00     mov   a,#$00
4ac4: d5 51 03  mov   $0351+x,a
4ac7: 3f 26 4c  call  $4c26
4aca: c4 11     mov   $11,a
4acc: 8f 00 10  mov   $10,#$00
4acf: 3f 4a 1c  call  $1c4a
4ad2: 3f 26 4c  call  $4c26
4ad5: 68 f6     cmp   a,#$f6
4ad7: f0 08     beq   $4ae1
4ad9: c5 a1 04  mov   $04a1,a
4adc: e8 00     mov   a,#$00
4ade: c5 a2 04  mov   $04a2,a
4ae1: ec a1 04  mov   y,$04a1
4ae4: e5 a2 04  mov   a,$04a2
4ae7: da 10     movw  $10,ya
4ae9: e9 84 04  mov   x,$0484
4aec: 3f b1 16  call  $16b1
4aef: 3f 26 4c  call  $4c26
4af2: c5 75 04  mov   $0475,a
4af5: e5 99 04  mov   a,$0499
4af8: f0 18     beq   $4b12
4afa: e5 87 04  mov   a,$0487
4afd: 08 05     or    a,#$05
4aff: fd        mov   y,a
4b00: e5 96 04  mov   a,$0496
4b03: 3f 26 17  call  $1726
4b06: e5 87 04  mov   a,$0487
4b09: 08 06     or    a,#$06
4b0b: fd        mov   y,a
4b0c: e5 97 04  mov   a,$0497
4b0f: 3f 26 17  call  $1726
4b12: e5 a6 04  mov   a,$04a6
4b15: d0 07     bne   $4b1e
4b17: e5 7f 04  mov   a,$047f
4b1a: 04 45     or    a,$45
4b1c: c4 45     mov   $45,a
4b1e: e5 a5 04  mov   a,$04a5
4b21: 68 ff     cmp   a,#$ff
4b23: d0 60     bne   $4b85
4b25: e5 a7 04  mov   a,$04a7
4b28: f0 05     beq   $4b2f
4b2a: e8 ff     mov   a,#$ff
4b2c: c5 a6 04  mov   $04a6,a
4b2f: e5 a1 04  mov   a,$04a1
4b32: 65 a4 04  cmp   a,$04a4
4b35: 90 21     bcc   $4b58
4b37: e5 a2 04  mov   a,$04a2
4b3a: 80        setc
4b3b: a5 a3 04  sbc   a,$04a3
4b3e: c5 a2 04  mov   $04a2,a
4b41: b0 34     bcs   $4b77
4b43: 8c a1 04  dec   $04a1
4b46: e5 a4 04  mov   a,$04a4
4b49: 65 a1 04  cmp   a,$04a1
4b4c: d0 29     bne   $4b77
4b4e: e8 00     mov   a,#$00
4b50: c5 a5 04  mov   $04a5,a
4b53: c5 a6 04  mov   $04a6,a
4b56: 2f 1f     bra   $4b77
4b58: e5 a3 04  mov   a,$04a3
4b5b: 60        clrc
4b5c: 85 a2 04  adc   a,$04a2
4b5f: c5 a2 04  mov   $04a2,a
4b62: 90 13     bcc   $4b77
4b64: ac a1 04  inc   $04a1
4b67: e5 a4 04  mov   a,$04a4
4b6a: 65 a1 04  cmp   a,$04a1
4b6d: d0 08     bne   $4b77
4b6f: e8 00     mov   a,#$00
4b71: c5 a5 04  mov   $04a5,a
4b74: c5 a6 04  mov   $04a6,a
4b77: e5 a2 04  mov   a,$04a2
4b7a: ec a1 04  mov   y,$04a1
4b7d: da 10     movw  $10,ya
4b7f: e9 84 04  mov   x,$0484
4b82: 3f b1 16  call  $16b1
4b85: 6f        ret
4b86: e8 ff     mov   a,#$ff
4b88: c5 76 04  mov   $0476,a
4b8b: e8 00     mov   a,#$00
4b8d: c5 98 04  mov   $0498,a
4b90: e5 85 04  mov   a,$0485
4b93: 25 80 04  and   a,$0480
4b96: c5 85 04  mov   $0485,a
4b99: e4 1a     mov   a,$1a
4b9b: 25 80 04  and   a,$0480
4b9e: c4 1a     mov   $1a,a
4ba0: e4 47     mov   a,$47
4ba2: 05 7e 04  or    a,$047e
4ba5: c4 47     mov   $47,a
4ba7: e4 46     mov   a,$46
4ba9: 05 7e 04  or    a,$047e
4bac: c4 46     mov   $46,a
4bae: e9 83 04  mov   x,$0483
4bb1: f5 11 02  mov   a,$0211+x
4bb4: 3f fc 18  call  $18fc
4bb7: e9 83 04  mov   x,$0483
4bba: e5 88 04  mov   a,$0488
4bbd: d5 21 03  mov   $0321+x,a
4bc0: e5 89 04  mov   a,$0489
4bc3: d5 51 03  mov   $0351+x,a
4bc6: 5f 0c 4c  jmp   $4c0c
4bc9: e8 ff     mov   a,#$ff
4bcb: c5 77 04  mov   $0477,a
4bce: e8 00     mov   a,#$00
4bd0: c5 99 04  mov   $0499,a
4bd3: e5 85 04  mov   a,$0485
4bd6: 25 81 04  and   a,$0481
4bd9: c5 85 04  mov   $0485,a
4bdc: e4 1a     mov   a,$1a
4bde: 25 81 04  and   a,$0481
4be1: c4 1a     mov   $1a,a
4be3: e4 47     mov   a,$47
4be5: 05 7f 04  or    a,$047f
4be8: c4 47     mov   $47,a
4bea: e4 46     mov   a,$46
4bec: 05 7f 04  or    a,$047f
4bef: c4 46     mov   $46,a
4bf1: e9 84 04  mov   x,$0484
4bf4: f5 11 02  mov   a,$0211+x
4bf7: 3f fc 18  call  $18fc
4bfa: e9 84 04  mov   x,$0484
4bfd: e5 8a 04  mov   a,$048a
4c00: d5 21 03  mov   $0321+x,a
4c03: e5 8b 04  mov   a,$048b
4c06: d5 51 03  mov   $0351+x,a
4c09: 5f 0c 4c  jmp   $4c0c
4c0c: e5 85 04  mov   a,$0485
4c0f: d0 0b     bne   $4c1c
4c11: e8 00     mov   a,#$00
4c13: c5 70 04  mov   $0470,a
4c16: c5 bd 04  mov   $04bd,a
4c19: c5 7c 04  mov   $047c,a
4c1c: 6f        ret
4c1d: ec 72 04  mov   y,$0472
4c20: f7 e8     mov   a,($e8)+y
4c22: ac 72 04  inc   $0472
4c25: 6f        ret
4c26: ec 73 04  mov   y,$0473
4c29: f7 ea     mov   a,($ea)+y
4c2b: ac 73 04  inc   $0473
4c2e: 6f        ret
4c2f: 7e 04     cmp   y,$04
4c31: 7f        reti
4c32: 04 80     or    a,$80
4c34: 04 81     or    a,$81
4c36: 04 83     or    a,$83
4c38: 04 84     or    a,$84
4c3a: 04 e8     or    a,$e8
4c3c: 09 c5 7d  or    ($7d),($c5)
4c3f: 04 e4     or    a,$e4
4c41: 1a c5     decw  $c5
4c43: 7b 04     ror   $04+x
4c45: e8 ff     mov   a,#$ff
4c47: c5 7c 04  mov   $047c,a
4c4a: e8 00     mov   a,#$00
4c4c: c5 82 04  mov   $0482,a
4c4f: c5 78 04  mov   $0478,a
4c52: c5 7e 04  mov   $047e,a
4c55: c5 7f 04  mov   $047f,a
4c58: c5 83 04  mov   $0483,a
4c5b: c5 84 04  mov   $0484,a
4c5e: e8 ff     mov   a,#$ff
4c60: c5 80 04  mov   $0480,a
4c63: c5 81 04  mov   $0481,a
4c66: c5 76 04  mov   $0476,a
4c69: c5 77 04  mov   $0477,a
4c6c: 8c 7d 04  dec   $047d
4c6f: f0 7e     beq   $4cef
4c71: 0c 7b 04  asl   $047b
4c74: b0 f6     bcs   $4c6c
4c76: e8 00     mov   a,#$00
4c78: 65 79 04  cmp   a,$0479
4c7b: f0 72     beq   $4cef
4c7d: 8c 79 04  dec   $0479
4c80: e8 00     mov   a,#$00
4c82: e9 78 04  mov   x,$0478
4c85: d5 76 04  mov   $0476+x,a
4c88: ac 78 04  inc   $0478
4c8b: e5 82 04  mov   a,$0482
4c8e: 5d        mov   x,a
4c8f: fd        mov   y,a
4c90: f5 2f 4c  mov   a,$4c2f+x
4c93: c4 e2     mov   $e2,a
4c95: f5 33 4c  mov   a,$4c33+x
4c98: c4 e4     mov   $e4,a
4c9a: f5 37 4c  mov   a,$4c37+x
4c9d: c4 e6     mov   $e6,a
4c9f: 3d        inc   x
4ca0: f5 2f 4c  mov   a,$4c2f+x
4ca3: c4 e3     mov   $e3,a
4ca5: f5 33 4c  mov   a,$4c33+x
4ca8: c4 e5     mov   $e5,a
4caa: f5 37 4c  mov   a,$4c37+x
4cad: c4 e7     mov   $e7,a
4caf: ac 82 04  inc   $0482
4cb2: ac 82 04  inc   $0482
4cb5: e5 7d 04  mov   a,$047d
4cb8: c5 7a 04  mov   $047a,a
4cbb: 8c 7a 04  dec   $047a
4cbe: 60        clrc
4cbf: 0c 7a 04  asl   $047a
4cc2: e9 7a 04  mov   x,$047a
4cc5: f5 21 03  mov   a,$0321+x
4cc8: d6 88 04  mov   $0488+y,a
4ccb: fc        inc   y
4ccc: f5 51 03  mov   a,$0351+x
4ccf: d6 88 04  mov   $0488+y,a
4cd2: 8d 00     mov   y,#$00
4cd4: e5 7a 04  mov   a,$047a
4cd7: d7 e6     mov   ($e6)+y,a
4cd9: e5 7d 04  mov   a,$047d
4cdc: 3f 75 28  call  $2875
4cdf: ad 4d     cmp   y,#$4d
4ce1: 92 4d     clr4  $4d
4ce3: 77 4d     cmp   a,($4d)+y
4ce5: 5c        lsr   a
4ce6: 4d        push  x
4ce7: 41        tcall 4
4ce8: 4d        push  x
4ce9: 26        and   a,(x)
4cea: 4d        push  x
4ceb: 0b 4d     asl   $4d
4ced: f0 4c     beq   $4d3b
4cef: 6f        ret
4cf0: e2 1a     set7  $1a
4cf2: f2 47     clr7  $47
4cf4: f2 4a     clr7  $4a
4cf6: e8 80     mov   a,#$80
4cf8: 05 85 04  or    a,$0485
4cfb: c5 85 04  mov   $0485,a
4cfe: 8d 00     mov   y,#$00
4d00: e8 80     mov   a,#$80
4d02: d7 e2     mov   ($e2)+y,a
4d04: e8 7f     mov   a,#$7f
4d06: d7 e4     mov   ($e4)+y,a
4d08: 5f 6c 4c  jmp   $4c6c
4d0b: c2 1a     set6  $1a
4d0d: d2 47     clr6  $47
4d0f: d2 4a     clr6  $4a
4d11: e8 40     mov   a,#$40
4d13: 05 85 04  or    a,$0485
4d16: c5 85 04  mov   $0485,a
4d19: 8d 00     mov   y,#$00
4d1b: e8 40     mov   a,#$40
4d1d: d7 e2     mov   ($e2)+y,a
4d1f: e8 bf     mov   a,#$bf
4d21: d7 e4     mov   ($e4)+y,a
4d23: 5f 6c 4c  jmp   $4c6c
4d26: a2 1a     set5  $1a
4d28: b2 47     clr5  $47
4d2a: b2 4a     clr5  $4a
4d2c: e8 20     mov   a,#$20
4d2e: 05 85 04  or    a,$0485
4d31: c5 85 04  mov   $0485,a
4d34: 8d 00     mov   y,#$00
4d36: e8 20     mov   a,#$20
4d38: d7 e2     mov   ($e2)+y,a
4d3a: e8 df     mov   a,#$df
4d3c: d7 e4     mov   ($e4)+y,a
4d3e: 5f 6c 4c  jmp   $4c6c
4d41: 82 1a     set4  $1a
4d43: 92 47     clr4  $47
4d45: 92 4a     clr4  $4a
4d47: e8 10     mov   a,#$10
4d49: 05 85 04  or    a,$0485
4d4c: c5 85 04  mov   $0485,a
4d4f: 8d 00     mov   y,#$00
4d51: e8 10     mov   a,#$10
4d53: d7 e2     mov   ($e2)+y,a
4d55: e8 ef     mov   a,#$ef
4d57: d7 e4     mov   ($e4)+y,a
4d59: 5f 6c 4c  jmp   $4c6c
4d5c: 62 1a     set3  $1a
4d5e: 72 47     clr3  $47
4d60: 72 4a     clr3  $4a
4d62: e8 08     mov   a,#$08
4d64: 05 85 04  or    a,$0485
4d67: c5 85 04  mov   $0485,a
4d6a: 8d 00     mov   y,#$00
4d6c: e8 08     mov   a,#$08
4d6e: d7 e2     mov   ($e2)+y,a
4d70: e8 f7     mov   a,#$f7
4d72: d7 e4     mov   ($e4)+y,a
4d74: 5f 6c 4c  jmp   $4c6c
4d77: 42 1a     set2  $1a
4d79: 52 47     clr2  $47
4d7b: 52 4a     clr2  $4a
4d7d: e8 04     mov   a,#$04
4d7f: 05 85 04  or    a,$0485
4d82: c5 85 04  mov   $0485,a
4d85: 8d 00     mov   y,#$00
4d87: e8 04     mov   a,#$04
4d89: d7 e2     mov   ($e2)+y,a
4d8b: e8 fb     mov   a,#$fb
4d8d: d7 e4     mov   ($e4)+y,a
4d8f: 5f 6c 4c  jmp   $4c6c
4d92: 22 1a     set1  $1a
4d94: 32 47     clr1  $47
4d96: 32 4a     clr1  $4a
4d98: e8 02     mov   a,#$02
4d9a: 05 85 04  or    a,$0485
4d9d: c5 85 04  mov   $0485,a
4da0: 8d 00     mov   y,#$00
4da2: e8 02     mov   a,#$02
4da4: d7 e2     mov   ($e2)+y,a
4da6: e8 fd     mov   a,#$fd
4da8: d7 e4     mov   ($e4)+y,a
4daa: 5f 6c 4c  jmp   $4c6c
4dad: 02 1a     set0  $1a
4daf: 12 47     clr0  $47
4db1: 12 4a     clr0  $4a
4db3: e8 01     mov   a,#$01
4db5: 05 85 04  or    a,$0485
4db8: c5 85 04  mov   $0485,a
4dbb: 8d 00     mov   y,#$00
4dbd: e8 01     mov   a,#$01
4dbf: d7 e2     mov   ($e2)+y,a
4dc1: e8 fe     mov   a,#$fe
4dc3: d7 e4     mov   ($e4)+y,a
4dc5: 5f 6c 4c  jmp   $4c6c
4dc8: fc        inc   y
4dc9: f7 e0     mov   a,($e0)+y
4dcb: 6f        ret
4dcc: 1c        asl   a
4dcd: 1c        asl   a
4dce: 1c        asl   a
4dcf: 6f        ret
4dd0: e8 01     mov   a,#$01
4dd2: c5 79 04  mov   $0479,a
4dd5: e8 00     mov   a,#$00
4dd7: c5 ba 04  mov   $04ba,a
4dda: e8 01     mov   a,#$01
4ddc: c5 bd 04  mov   $04bd,a
4ddf: 6f        ret
4de0: e8 01     mov   a,#$01
4de2: c5 79 04  mov   $0479,a
4de5: e8 02     mov   a,#$02
4de7: c5 ba 04  mov   $04ba,a
4dea: 6f        ret
4deb: 3f 63 4e  call  $4e63
4dee: 6f        ret
4def: 3f 6e 4e  call  $4e6e
4df2: 6f        ret
4df3: 3f 63 4e  call  $4e63
4df6: 6f        ret
4df7: 3f 79 4e  call  $4e79
4dfa: 6f        ret
4dfb: 3f 63 4e  call  $4e63
4dfe: 6f        ret
4dff: 3f 84 4e  call  $4e84
4e02: 6f        ret
4e03: 3f 6e 4e  call  $4e6e
4e06: 6f        ret
4e07: 3f 63 4e  call  $4e63
4e0a: 6f        ret
4e0b: 3f 79 4e  call  $4e79
4e0e: 6f        ret
4e0f: 3f 6e 4e  call  $4e6e
4e12: 6f        ret
4e13: 3f 63 4e  call  $4e63
4e16: 6f        ret
4e17: 3f 63 4e  call  $4e63
4e1a: 6f        ret
4e1b: 3f 84 4e  call  $4e84
4e1e: 6f        ret
4e1f: 3f 63 4e  call  $4e63
4e22: 6f        ret
4e23: 3f 79 4e  call  $4e79
4e26: 6f        ret
4e27: 3f 63 4e  call  $4e63
4e2a: 6f        ret
4e2b: 3f 63 4e  call  $4e63
4e2e: 6f        ret
4e2f: 3f 63 4e  call  $4e63
4e32: 6f        ret
4e33: 3f 79 4e  call  $4e79
4e36: 6f        ret
4e37: 3f 63 4e  call  $4e63
4e3a: 6f        ret
4e3b: 3f 79 4e  call  $4e79
4e3e: 6f        ret
4e3f: 3f 63 4e  call  $4e63
4e42: 6f        ret
4e43: 3f 84 4e  call  $4e84
4e46: 6f        ret
4e47: 3f 63 4e  call  $4e63
4e4a: 6f        ret
4e4b: 3f 84 4e  call  $4e84
4e4e: 6f        ret
4e4f: 3f 63 4e  call  $4e63
4e52: 6f        ret
4e53: 3f 79 4e  call  $4e79
4e56: 6f        ret
4e57: 3f 63 4e  call  $4e63
4e5a: 6f        ret
4e5b: 3f 79 4e  call  $4e79
4e5e: 6f        ret
4e5f: 3f 63 4e  call  $4e63
4e62: 6f        ret
4e63: e8 01     mov   a,#$01
4e65: c5 79 04  mov   $0479,a
4e68: e8 00     mov   a,#$00
4e6a: c5 bd 04  mov   $04bd,a
4e6d: 6f        ret
4e6e: e8 02     mov   a,#$02
4e70: c5 79 04  mov   $0479,a
4e73: e8 00     mov   a,#$00
4e75: c5 bd 04  mov   $04bd,a
4e78: 6f        ret
4e79: e8 02     mov   a,#$02
4e7b: c5 79 04  mov   $0479,a
4e7e: e8 01     mov   a,#$01
4e80: c5 bd 04  mov   $04bd,a
4e83: 6f        ret
4e84: e8 01     mov   a,#$01
4e86: c5 79 04  mov   $0479,a
4e89: e8 01     mov   a,#$01
4e8b: c5 bd 04  mov   $04bd,a
4e8e: 6f        ret
4e8f: ed        notc
4e90: 4e f5 4e  tclr1 $4ef5
4e93: 00        nop
4e94: 4f 4b     pcall $4b
4e96: 4f 5b     pcall $5b
4e98: 4f 6b     pcall $6b
4e9a: 4f 73     pcall $73
4e9c: 4f 89     pcall $89
4e9e: 4f 9f     pcall $9f
4ea0: 4f b6     pcall $b6
4ea2: 4f e1     pcall $e1
4ea4: 4f f7     pcall $f7
4ea6: 4f ff     pcall $ff
4ea8: 4f 0c     pcall $0c
4eaa: 50 47     bvc   $4ef3
4eac: 50 a8     bvc   $4e56
4eae: 50 c4     bvc   $4e74
4eb0: 50 d1     bvc   $4e83
4eb2: 50 d4     bvc   $4e88
4eb4: 50 f0     bvc   $4ea6
4eb6: 50 1a     bvc   $4ed2
4eb8: 51        tcall 5
4eb9: 30 51     bmi   $4f0c
4ebb: 42 51     set2  $51
4ebd: 75 51 78  cmp   a,$7851+x
4ec0: 51        tcall 5
4ec1: 88 51     adc   a,#$51
4ec3: 8b 51     dec   $51
4ec5: b9        sbc   (x),(y)
4ec6: 51        tcall 5
4ec7: c1        tcall 12
4ec8: 51        tcall 5
4ec9: d4 51     mov   $51+x,a
4ecb: f0 51     beq   $4f1e
4ecd: fd        mov   y,a
4ece: 51        tcall 5
4ecf: 00        nop
4ed0: 52 08     clr2  $08
4ed2: 52 29     clr2  $29
4ed4: 52 31     clr2  $31
4ed6: 52 39     clr2  $39
4ed8: 52 41     clr2  $41
4eda: 52 4e     clr2  $4e
4edc: 52 56     clr2  $56
4ede: 52 77     clr2  $77
4ee0: 52 93     clr2  $93
4ee2: 52 a5     clr2  $a5
4ee4: 52 b0     clr2  $b0
4ee6: 52 c6     clr2  $c6
4ee8: 52 f1     clr2  $f1
4eea: 52 0b     clr2  $0b
4eec: 53 ef 4e  bbc2  $ef,$4f3c
4eef: 11        tcall 1
4ef0: 00        nop
4ef1: 0a bc 03  or1   c,$0077,4
4ef4: ff        stop
4ef5: f7 4e     mov   a,($4e)+y
4ef7: fe 00     dbnz  y,$4ef9
4ef9: 15 90 0a  or    a,$0a90+x
4efc: bc        inc   a
4efd: f0 fb     beq   $4efa
4eff: ff        stop
4f00: 02 4f     set0  $4f
4f02: f5 e0 c7  mov   a,$c7e0+x
4f05: 05 60 0a  or    a,$0a60
4f08: 98 12 f5  adc   $f5,#$12
4f0b: e0        clrv
4f0c: c7 05     mov   ($05+x),a
4f0e: 70 0a     bvs   $4f1a
4f10: a4 11     sbc   a,$11
4f12: f5 e0 c7  mov   a,$c7e0+x
4f15: 05 80 0a  or    a,$0a80
4f18: b0 10     bcs   $4f2a
4f1a: f5 e0 c7  mov   a,$c7e0+x
4f1d: 05 80 0a  or    a,$0a80
4f20: b4 08     sbc   a,$08+x
4f22: f5 e0 c7  mov   a,$c7e0+x
4f25: 05 80 0a  or    a,$0a80
4f28: b9        sbc   (x),(y)
4f29: 07 f5     or    a,($f5+x)
4f2b: e0        clrv
4f2c: c7 05     mov   ($05+x),a
4f2e: 80        setc
4f2f: 0a bc 06  or1   c,$00d7,4
4f32: f5 e0 c1  mov   a,$c1e0+x
4f35: 05 80 0a  or    a,$0a80
4f38: bc        inc   a
4f39: 06        or    a,(x)
4f3a: f5 e0 c7  mov   a,$c7e0+x
4f3d: 05 80 0a  or    a,$0a80
4f40: c5 06 fe  mov   $fe06,a
4f43: 00        nop
4f44: 05 60 0a  or    a,$0a60
4f47: c7 10     mov   ($10+x),a
4f49: fb ff     mov   y,$ff+x
4f4b: 4f 4f     pcall $4f
4f4d: 55 4f 03  eor   a,$034f+x
4f50: 90 0a     bcc   $4f5c
4f52: 80        setc
4f53: 03 ff 03  bbs0  $ff,$4f58
4f56: a0        ei
4f57: 0a 84 05  or1   c,$00b0,4
4f5a: ff        stop
4f5b: 5f 4f 65  jmp   $654f
4f5e: 4f 03     pcall $03
4f60: 40        setp
4f61: 0a 80 03  or1   c,$0070,0
4f64: ff        stop
4f65: 03 50 0a  bbs0  $50,$4f71
4f68: 84 05     adc   a,$05
4f6a: ff        stop
4f6b: 6d        push  y
4f6c: 4f 09     pcall $09
4f6e: 80        setc
4f6f: 0a 82 03  or1   c,$0070,2
4f72: ff        stop
4f73: 77 4f     cmp   a,($4f)+y
4f75: 80        setc
4f76: 4f f5     pcall $f5
4f78: f0 a9     beq   $4f23
4f7a: 06        or    a,(x)
4f7b: 80        setc
4f7c: 0a 91 18  or1   c,$0312,1
4f7f: ff        stop
4f80: f5 f0 a8  mov   a,$a8f0+x
4f83: 02 80     set0  $80
4f85: 0a 90 18  or1   c,$0312,0
4f88: ff        stop
4f89: 8d 4f     mov   y,#$4f
4f8b: 96 4f f5  adc   a,$f54f+y
4f8e: f0 89     beq   $4f19
4f90: 06        or    a,(x)
4f91: 80        setc
4f92: 0a a1 15  or1   c,$02b4,1
4f95: ff        stop
4f96: f5 f0 87  mov   a,$87f0+x
4f99: 02 80     set0  $80
4f9b: 0a 9f 15  or1   c,$02b3,7
4f9e: ff        stop
4f9f: a1        tcall 10
4fa0: 4f 02     pcall $02
4fa2: b0 0a     bcs   $4fae
4fa4: 8c 03 02  dec   $0203
4fa7: d0 0a     bne   $4fb3
4fa9: 90 03     bcc   $4fae
4fab: 02 d0     set0  $d0
4fad: 0a 8c 03  or1   c,$0071,4
4fb0: 02 d0     set0  $d0
4fb2: 0a 90 03  or1   c,$0072,0
4fb5: ff        stop
4fb6: b8 4f 0d  sbc   $0d,#$4f
4fb9: 70 0c     bvs   $4fc7
4fbb: a3 01 0d  bbs5  $01,$4fca
4fbe: 80        setc
4fbf: 0c a1 01  asl   $01a1
4fc2: 0d        push  psw
4fc3: 80        setc
4fc4: 0c 9f 02  asl   $029f
4fc7: 0d        push  psw
4fc8: 80        setc
4fc9: 0c 9d 02  asl   $029d
4fcc: 0d        push  psw
4fcd: 70 0c     bvs   $4fdb
4fcf: 9c        dec   a
4fd0: 02 0d     set0  $0d
4fd2: 50 0c     bvc   $4fe0
4fd4: 9a 01     subw  ya,$01
4fd6: 0d        push  psw
4fd7: 60        clrc
4fd8: 0c 97 01  asl   $0197
4fdb: 0d        push  psw
4fdc: 60        clrc
4fdd: 0c 98 03  asl   $0398
4fe0: ff        stop
4fe1: e5 4f ee  mov   a,$ee4f
4fe4: 4f fe     pcall $fe
4fe6: 00        nop
4fe7: 0b 90     asl   $90
4fe9: 0a 80 70  or1   c,$0e10,0
4fec: fb ff     mov   y,$ff+x
4fee: fe 00     dbnz  y,$4ff0
4ff0: 06        or    a,(x)
4ff1: 40        setp
4ff2: 0a 98 13  or1   c,$0273,0
4ff5: fb ff     mov   y,$ff+x
4ff7: f9 4f     mov   x,$4f+y
4ff9: 05 a0 0a  or    a,$0aa0
4ffc: c7 b0     mov   ($b0+x),a
4ffe: ff        stop
4fff: 01        tcall 0
5000: 50 03     bvc   $5005
5002: 50 0a     bvc   $500e
5004: 98 02 03  adc   $03,#$02
5007: 50 0a     bvc   $5013
5009: 98 02 ff  adc   $ff,#$02
500c: 10 50     bpl   $505e
500e: 3e 50     cmp   x,$50
5010: 03 50 0c  bbs0  $50,$501e
5013: 85 05 03  adc   a,$0305
5016: 50 0c     bvc   $5024
5018: 85 05 03  adc   a,$0305
501b: 50 0c     bvc   $5029
501d: 85 05 03  adc   a,$0305
5020: 50 0c     bvc   $502e
5022: 85 05 03  adc   a,$0305
5025: 50 0c     bvc   $5033
5027: 85 05 03  adc   a,$0305
502a: 50 0c     bvc   $5038
502c: 85 05 03  adc   a,$0305
502f: 50 0c     bvc   $503d
5031: 85 05 03  adc   a,$0305
5034: 50 0c     bvc   $5042
5036: 85 05 03  adc   a,$0305
5039: 50 0c     bvc   $5047
503b: 85 05 ff  adc   a,$ff05
503e: f5 60 a9  mov   a,$a960+x
5041: 06        or    a,(x)
5042: 90 0a     bcc   $504e
5044: 91        tcall 9
5045: 20        clrp
5046: ff        stop
5047: 4b 50     lsr   $50
5049: 83 50 01  bbs4  $50,$504c
504c: 00        nop
504d: 0a 90 0c  or1   c,$0192,0
5050: 01        tcall 0
5051: d0 0a     bne   $505d
5053: 91        tcall 9
5054: 0c 01 d0  asl   $d001
5057: 0a 93 0c  or1   c,$0192,3
505a: 01        tcall 0
505b: d0 0a     bne   $5067
505d: 95 0a 01  adc   a,$010a+x
5060: d0 0a     bne   $506c
5062: 95 0a 01  adc   a,$010a+x
5065: d0 0a     bne   $5071
5067: 97 08     adc   a,($08)+y
5069: 01        tcall 0
506a: d0 0a     bne   $5076
506c: 97 08     adc   a,($08)+y
506e: 01        tcall 0
506f: d0 0a     bne   $507b
5071: 98 06 01  adc   $01,#$06
5074: d0 0a     bne   $5080
5076: 98 06 01  adc   $01,#$06
5079: d0 0a     bne   $5085
507b: 9a 04     subw  ya,$04
507d: 01        tcall 0
507e: d0 0a     bne   $508a
5080: 9a 04     subw  ya,$04
5082: ff        stop
5083: f5 90 c7  mov   a,$c790+x
5086: 05 c0 0a  or    a,$0ac0
5089: 98 10 f5  adc   $f5,#$10
508c: f0 c7     beq   $5055
508e: 05 c0 0a  or    a,$0ac0
5091: f6 30 05  mov   a,$0530+y
5094: c0        di
5095: 0a c1 03  or1   c,$0078,1
5098: 05 c0 0a  or    a,$0ac0
509b: c3 03 05  bbs6  $03,$50a2
509e: c0        di
509f: 0a c5 03  or1   c,$0078,5
50a2: 05 c0 0a  or    a,$0ac0
50a5: c7 03     mov   ($03+x),a
50a7: ff        stop
50a8: aa 50 08  mov1  c,$010a,0
50ab: d0 0a     bne   $50b7
50ad: 98 03 08  adc   $08,#$03
50b0: d0 0a     bne   $50bc
50b2: 95 03 08  adc   a,$0803+x
50b5: d0 0a     bne   $50c1
50b7: 9a 03     subw  ya,$03
50b9: 08 d0     or    a,#$d0
50bb: 0a 8c 03  or1   c,$0071,4
50be: 08 d0     or    a,#$d0
50c0: 0a 8c 15  or1   c,$02b1,4
50c3: ff        stop
50c4: c6        mov   (x),a
50c5: 50 08     bvc   $50cf
50c7: d0 0a     bne   $50d3
50c9: 8c 03 08  dec   $0803
50cc: d0 0a     bne   $50d8
50ce: 8c 15 ff  dec   $ff15
50d1: d3 50 ff  bbc6  $50,$50d2
50d4: d6 50 08  mov   $0850+y,a
50d7: d0 0a     bne   $50e3
50d9: 98 03 08  adc   $08,#$03
50dc: d0 0a     bne   $50e8
50de: 95 03 08  adc   a,$0803+x
50e1: d0 0a     bne   $50ed
50e3: 9a 03     subw  ya,$03
50e5: 08 d0     or    a,#$d0
50e7: 0a 8c 03  or1   c,$0071,4
50ea: 08 d0     or    a,#$d0
50ec: 0a 8c 25  or1   c,$04b1,4
50ef: ff        stop
50f0: f4 50     mov   a,$50+x
50f2: 07 51     or    a,($51+x)
50f4: 06        or    a,(x)
50f5: 00        nop
50f6: 0a 91 23  or1   c,$0472,1
50f9: 06        or    a,(x)
50fa: a0        ei
50fb: 0a 91 18  or1   c,$0312,1
50fe: f5 f0 a9  mov   a,$a9f0+x
5101: 06        or    a,(x)
5102: a0        ei
5103: 0a 91 18  or1   c,$0312,1
5106: ff        stop
5107: 02 00     set0  $00
5109: 0a 90 23  or1   c,$0472,0
510c: 02 20     set0  $20
510e: 0a 90 18  or1   c,$0312,0
5111: f5 f0 a8  mov   a,$a8f0+x
5114: 02 20     set0  $20
5116: 0a 90 18  or1   c,$0312,0
5119: ff        stop
511a: 1e 51 27  cmp   x,$2751
511d: 51        tcall 5
511e: f5 f0 89  mov   a,$89f0+x
5121: 06        or    a,(x)
5122: 80        setc
5123: 0a a1 15  or1   c,$02b4,1
5126: ff        stop
5127: f5 f0 87  mov   a,$87f0+x
512a: 02 10     set0  $10
512c: 0a 9f 15  or1   c,$02b3,7
512f: ff        stop
5130: 32 51     clr1  $51
5132: 08 d0     or    a,#$d0
5134: 0a a3 03  or1   c,$0074,3
5137: 08 d0     or    a,#$d0
5139: 0a 8e 03  or1   c,$0071,6
513c: 08 d0     or    a,#$d0
513e: 0a 8e 25  or1   c,$04b1,6
5141: ff        stop
5142: 44 51     eor   a,$51
5144: f5 f0 c3  mov   a,$c3f0+x
5147: 0b 90     asl   $90
5149: 0a a6 03  or1   c,$0074,6
514c: f5 f0 c3  mov   a,$c3f0+x
514f: 0b 90     asl   $90
5151: 0a a6 03  or1   c,$0074,6
5154: f5 f0 c3  mov   a,$c3f0+x
5157: 0b 90     asl   $90
5159: 0a a6 03  or1   c,$0074,6
515c: f5 f0 c3  mov   a,$c3f0+x
515f: 0b 90     asl   $90
5161: 0a a6 03  or1   c,$0074,6
5164: f5 f0 c3  mov   a,$c3f0+x
5167: 0b 90     asl   $90
5169: 0a a6 03  or1   c,$0074,6
516c: f5 f0 c3  mov   a,$c3f0+x
516f: 0b 90     asl   $90
5171: 0a a6 03  or1   c,$0074,6
5174: ff        stop
5175: 77 51     cmp   a,($51)+y
5177: ff        stop
5178: 7c        ror   a
5179: 51        tcall 5
517a: 82 51     set4  $51
517c: 25 d0 0a  and   a,$0ad0
517f: 93 26 ff  bbc4  $26,$5180
5182: 25 a0 0a  and   a,$0aa0
5185: 8c 3b ff  dec   $ff3b
5188: 8a 51 ff  eor1  c,$1fea,1
518b: 8f 51 9f  mov   $9f,#$51
518e: 51        tcall 5
518f: 25 d0 0a  and   a,$0ad0
5192: 8e        pop   psw
5193: 30 25     bmi   $51ba
5195: d0 0a     bne   $51a1
5197: 8e        pop   psw
5198: 30 25     bmi   $51bf
519a: d0 0a     bne   $51a6
519c: 8e        pop   psw
519d: 40        setp
519e: ff        stop
519f: 25 00 0a  and   a,$0a00
51a2: a6        sbc   a,(x)
51a3: 0c 25 80  asl   $8025
51a6: 0a 98 30  or1   c,$0613,0
51a9: 25 80 0a  and   a,$0a80
51ac: 98 30 25  adc   $25,#$30
51af: 80        setc
51b0: 0a 9a 10  or1   c,$0213,2
51b3: 25 80 0a  and   a,$0a80
51b6: 98 40 ff  adc   $ff,#$40
51b9: bb 51     inc   $51+x
51bb: 00        nop
51bc: d0 0a     bne   $51c8
51be: 9c        dec   a
51bf: 20        clrp
51c0: ff        stop
51c1: c3 51 f5  bbs6  $51,$51b8
51c4: f0 b5     beq   $517b
51c6: 09 d0 0a  or    ($0a),($d0)
51c9: 93 08 f5  bbc4  $08,$51c0
51cc: f0 b5     beq   $5183
51ce: 09 d0 0a  or    ($0a),($d0)
51d1: 93 08 ff  bbc4  $08,$51d2
51d4: d6 51 08  mov   $0851+y,a
51d7: d0 0a     bne   $51e3
51d9: 98 03 08  adc   $08,#$03
51dc: d0 0a     bne   $51e8
51de: 95 03 08  adc   a,$0803+x
51e1: d0 0a     bne   $51ed
51e3: 9a 03     subw  ya,$03
51e5: 08 d0     or    a,#$d0
51e7: 0a 8c 03  or1   c,$0071,4
51ea: 08 d0     or    a,#$d0
51ec: 0a 8c 25  or1   c,$04b1,4
51ef: ff        stop
51f0: f2 51     clr7  $51
51f2: 00        nop
51f3: d0 0a     bne   $51ff
51f5: 90 08     bcc   $51ff
51f7: 01        tcall 0
51f8: d0 0a     bne   $5204
51fa: 8c 20 ff  dec   $ff20
51fd: ff        stop
51fe: 51        tcall 5
51ff: ff        stop
5200: 02 52     set0  $52
5202: 07 d0     or    a,($d0+x)
5204: 0a c7 10  or1   c,$0218,7
5207: ff        stop
5208: 0a 52 09  or1   c,$012a,2
520b: b0 0a     bcs   $5217
520d: 8c 05 0e  dec   $0e05
5210: b0 0a     bcs   $521c
5212: 91        tcall 9
5213: 05 09 b0  or    a,$b009
5216: 0a 8c 05  or1   c,$00b1,4
5219: 0e b0 0a  tset1 $0ab0
521c: 91        tcall 9
521d: 05 09 b0  or    a,$b009
5220: 0a 8c 05  or1   c,$00b1,4
5223: 0e b0 0a  tset1 $0ab0
5226: 91        tcall 9
5227: 05 ff 2b  or    a,$2bff
522a: 52 25     clr2  $25
522c: 20        clrp
522d: 0a 95 40  or1   c,$0812,5
5230: ff        stop
5231: 33 52 24  bbc1  $52,$5257
5234: 20        clrp
5235: 0a 95 40  or1   c,$0812,5
5238: ff        stop
5239: 3b 52     rol   $52+x
523b: 07 00     or    a,($00+x)
523d: 0a c7 03  or1   c,$0078,7
5240: ff        stop
5241: 43 52 25  bbs2  $52,$5268
5244: 20        clrp
5245: 0a 92 09  or1   c,$0132,2
5248: 25 30 0a  and   a,$0a30
524b: 92 40     clr4  $40
524d: ff        stop
524e: 50 52     bvc   $52a2
5250: 25 30 0a  and   a,$0a30
5253: 91        tcall 9
5254: 40        setp
5255: ff        stop
5256: 58 52 00  eor   $00,#$52
5259: d0 0a     bne   $5265
525b: 91        tcall 9
525c: 08 00     or    a,#$00
525e: d0 0a     bne   $526a
5260: 91        tcall 9
5261: 08 00     or    a,#$00
5263: d0 0a     bne   $526f
5265: 91        tcall 9
5266: 08 00     or    a,#$00
5268: d0 0a     bne   $5274
526a: 91        tcall 9
526b: 08 00     or    a,#$00
526d: d0 0a     bne   $5279
526f: 91        tcall 9
5270: 08 00     or    a,#$00
5272: d0 0a     bne   $527e
5274: 91        tcall 9
5275: 08 ff     or    a,#$ff
5277: 79        cmp   (x),(y)
5278: 52 00     clr2  $00
527a: d0 0a     bne   $5286
527c: 91        tcall 9
527d: 06        or    a,(x)
527e: 00        nop
527f: d0 0a     bne   $528b
5281: 91        tcall 9
5282: 06        or    a,(x)
5283: 00        nop
5284: d0 0a     bne   $5290
5286: 91        tcall 9
5287: 06        or    a,(x)
5288: 00        nop
5289: d0 0a     bne   $5295
528b: 91        tcall 9
528c: 06        or    a,(x)
528d: 00        nop
528e: d0 0a     bne   $529a
5290: 91        tcall 9
5291: 06        or    a,(x)
5292: ff        stop
5293: 95 52 0b  adc   a,$0b52+x
5296: 20        clrp
5297: 0a c7 03  or1   c,$0078,7
529a: 0b 20     asl   $20
529c: 0a c7 03  or1   c,$0078,7
529f: 0b 10     asl   $10
52a1: 0a c7 03  or1   c,$0078,7
52a4: ff        stop
52a5: a7 52     sbc   a,($52+x)
52a7: fe 00     dbnz  y,$52a9
52a9: 05 60 0a  or    a,$0a60
52ac: c7 10     mov   ($10+x),a
52ae: fb ff     mov   y,$ff+x
52b0: b4 52     sbc   a,$52+x
52b2: bd        mov   sp,x
52b3: 52 f5     clr2  $f5
52b5: f0 a9     beq   $5260
52b7: 06        or    a,(x)
52b8: 70 0a     bvs   $52c4
52ba: 91        tcall 9
52bb: 18 ff f5  or    $f5,#$ff
52be: f0 a4     beq   $5264
52c0: 06        or    a,(x)
52c1: 70 0a     bvs   $52cd
52c3: 8c 18 ff  dec   $ff18
52c6: c8 52     cmp   x,#$52
52c8: 06        or    a,(x)
52c9: 70 0a     bvs   $52d5
52cb: a8 01     sbc   a,#$01
52cd: 06        or    a,(x)
52ce: 00        nop
52cf: 0a a8 01  or1   c,$0035,0
52d2: 06        or    a,(x)
52d3: 70 0a     bvs   $52df
52d5: a8 01     sbc   a,#$01
52d7: 06        or    a,(x)
52d8: 00        nop
52d9: 0a a8 01  or1   c,$0035,0
52dc: 06        or    a,(x)
52dd: 70 0a     bvs   $52e9
52df: a8 01     sbc   a,#$01
52e1: 06        or    a,(x)
52e2: 00        nop
52e3: 0a a8 01  or1   c,$0035,0
52e6: 06        or    a,(x)
52e7: 70 0a     bvs   $52f3
52e9: a8 01     sbc   a,#$01
52eb: 06        or    a,(x)
52ec: 00        nop
52ed: 0a a8 01  or1   c,$0035,0
52f0: ff        stop
52f1: f5 52 fb  mov   a,$fb52+x
52f4: 52 08     clr2  $08
52f6: d0 0a     bne   $5302
52f8: 94 59     adc   a,$59+x
52fa: ff        stop
52fb: 25 d0 0a  and   a,$0ad0
52fe: 98 10 25  adc   $25,#$10
5301: d0 0a     bne   $530d
5303: 93 16 25  bbc4  $16,$532a
5306: 90 0a     bcc   $5312
5308: 8f 15 ff  mov   $ff,#$15
530b: 0d        push  psw
530c: 53 ff 12  bbc2  $ff,$5320
530f: 53 00 00  bbc2  $00,$5311
5312: 22 53     set1  $53
5314: 5d        mov   x,a
5315: 53 af 53  bbc2  $af,$536a
5318: c6        mov   (x),a
5319: 53 e0 53  bbc2  $e0,$536e
531c: f5 53 31  mov   a,$3153+x
531f: 54 00     eor   a,$00+x
5321: 00        nop
5322: fa 26 e7  mov   ($e7),($26)
5325: 12 e5     clr0  $e5
5327: b4 f5     sbc   a,$f5+x
5329: 0f        brk
532a: 0a 0a f7  or1   c,$1ee1,2
532d: 02 0a     set0  $0a
532f: 00        nop
5330: e0        clrv
5331: 0b ea     asl   $ea
5333: f4 f4     mov   a,$f4+x
5335: 46        eor   a,(x)
5336: e1        tcall 14
5337: 0a ed aa  or1   c,$155d,5
533a: ee        pop   y
533b: 18 dc 18  or    $18,#$dc
533e: 7f        reti
533f: b2 ed     clr5  $ed
5341: aa ee 18  mov1  c,$031d,6
5344: dc        dec   y
5345: b5 ed aa  sbc   a,$aaed+x
5348: ee        pop   y
5349: 18 dc b2  or    $b2,#$dc
534c: ed        notc
534d: aa ee 18  mov1  c,$031d,6
5350: dc        dec   y
5351: b0 30     bcs   $5383
5353: ad ed     cmp   y,#$ed
5355: aa ee 30  mov1  c,$061d,6
5358: 82 ad     set4  $ad
535a: 0f        brk
535b: c9 00 e0  mov   $e000,x
535e: 0b ea     asl   $ea
5360: f4 f4     mov   a,$f4+x
5362: 46        eor   a,(x)
5363: e1        tcall 14
5364: 0a 03 c9  or1   c,$1920,3
5367: ed        notc
5368: 64 ee     cmp   a,$ee
536a: 28 fa     and   a,#$fa
536c: 04 7f     or    a,$7f
536e: a6        sbc   a,(x)
536f: a6        sbc   a,(x)
5370: a6        sbc   a,(x)
5371: a6        sbc   a,(x)
5372: a6        sbc   a,(x)
5373: a6        sbc   a,(x)
5374: a9 a9 a9  sbc   ($a9),($a9)
5377: a9 a9 a9  sbc   ($a9),($a9)
537a: ed        notc
537b: fa ee 28  mov   ($28),($ee)
537e: 64 a6     cmp   a,$a6
5380: a6        sbc   a,(x)
5381: a6        sbc   a,(x)
5382: a6        sbc   a,(x)
5383: a6        sbc   a,(x)
5384: a6        sbc   a,(x)
5385: a4 a4     sbc   a,$a4
5387: a4 a4     sbc   a,$a4
5389: a4 a4     sbc   a,$a4
538b: ed        notc
538c: 3c        rol   a
538d: ee        pop   y
538e: 0a e6 ad  or1   c,$15bc,6
5391: ad ad     cmp   y,#$ad
5393: ad ad     cmp   y,#$ad
5395: ad ad     cmp   y,#$ad
5397: ad ad     cmp   y,#$ad
5399: ad ad     cmp   y,#$ad
539b: ad ad     cmp   y,#$ad
539d: ad ad     cmp   y,#$ad
539f: ad ed     cmp   y,#$ed
53a1: e6        mov   a,(x)
53a2: ee        pop   y
53a3: 1e 3c ad  cmp   x,$ad3c
53a6: ad ad     cmp   y,#$ad
53a8: ad ad     cmp   y,#$ad
53aa: ad ad     cmp   y,#$ad
53ac: ad 0c     cmp   y,#$0c
53ae: c9 e0 0b  mov   $0be0,x
53b1: ea 00 f4  not1  $1e80,0
53b4: 46        eor   a,(x)
53b5: ed        notc
53b6: c8 e1     cmp   x,#$e1
53b8: 03 18 7f  bbs0  $18,$5439
53bb: 8f 8e ed  mov   $ed,#$8e
53be: b4 8c     sbc   a,$8c+x
53c0: 89 30 82  adc   ($82),($30)
53c3: 82 0f     set4  $0f
53c5: c9 e0 0b  mov   $0be0,x
53c8: ea 00 f4  not1  $1e80,0
53cb: 1e ed c8  cmp   x,$c8ed
53ce: e1        tcall 14
53cf: 11        tcall 1
53d0: 03 c9 18  bbs0  $c9,$53ea
53d3: 7f        reti
53d4: 8f 8e 8c  mov   $8c,#$8e
53d7: 89 f4 00  adc   ($00),($f4)
53da: 30 82     bmi   $535e
53dc: 2d        push  a
53dd: 82 0f     set4  $0f
53df: c9 e0 0b  mov   $0be0,x
53e2: ea f4 f4  not1  $1e9e,4
53e5: 46        eor   a,(x)
53e6: ed        notc
53e7: be        das   a
53e8: e1        tcall 14
53e9: 0a 18 7f  or1   c,$0fe3,0
53ec: a2 a1     set5  $a1
53ee: 9f        xcn   a
53ef: a1        tcall 10
53f0: 30 8e     bmi   $5380
53f2: 8e        pop   psw
53f3: 0f        brk
53f4: c9 e0 02  mov   $02e0,x
53f7: f4 00     mov   a,$00+x
53f9: e1        tcall 14
53fa: 06        or    a,(x)
53fb: ed        notc
53fc: 3c        rol   a
53fd: ee        pop   y
53fe: 32 82     clr1  $82
5400: 05 c9 05  or    a,$05c9
5403: 7f        reti
5404: 93 0a c9  bbc4  $0a,$53cf
5407: 0f        brk
5408: 97 14     adc   a,($14)+y
540a: c9 08 93  mov   $9308,x
540d: e1        tcall 14
540e: 08 04     or    a,#$04
5410: c9 95 c9  mov   $c995,x
5413: 97 0b     adc   a,($0b)+y
5415: c9 e1 03  mov   $03e1,x
5418: 05 c9 93  or    a,$93c9
541b: 0a c9 0f  or1   c,$01f9,1
541e: 93 1e c9  bbc4  $1e,$53e9
5421: 08 90     or    a,#$90
5423: e1        tcall 14
5424: 0d        push  psw
5425: 04 c9     or    a,$c9
5427: 93 c9 ed  bbc4  $c9,$5416
542a: aa ee 1e  mov1  c,$03dd,6
542d: 14 93     or    a,$93+x
542f: 1c        asl   a
5430: c9 e0 02  mov   $02e0,x
5433: f4 00     mov   a,$00+x
5435: e1        tcall 14
5436: 0e ed 3c  tset1 $3ced
5439: ee        pop   y
543a: 32 82     clr1  $82
543c: 05 7f 91  or    a,$917f
543f: 1e c9 06  cmp   x,$06c9
5442: c9 93 10  mov   $1093,x
5445: c9 e1 0c  mov   $0ce1,x
5448: 04 93     or    a,$93
544a: c9 90 c9  mov   $c990,x
544d: 09 93 e1  or    ($e1),($93)
5450: 11        tcall 1
5451: 05 91 24  or    a,$2491
5454: c9 06 93  mov   $9306,x
5457: 10 c9     bpl   $5422
5459: e1        tcall 14
545a: 07 04     or    a,($04+x)
545c: 93 0e c9  bbc4  $0e,$5427
545f: 04 97     or    a,$97
5461: c9 06 97  mov   $9706,x
5464: ed        notc
5465: aa ee 1e  mov1  c,$03dd,6
5468: 14 04     or    a,$04+x
546a: 93 14 c9  bbc4  $14,$5435
546d: 00        nop
546e: 72 54     clr3  $54
5470: 00        nop
5471: 00        nop
5472: 82 54     set4  $54
5474: aa 54 bd  mov1  c,$17aa,4
5477: 54 d8     eor   a,$d8+x
5479: 54 eb     eor   a,$eb+x
547b: 54 0b     eor   a,$0b+x
547d: 55 3b 55  eor   a,$553b+x
5480: 00        nop
5481: 00        nop
5482: fa 26 e7  mov   ($e7),($26)
5485: 2d        push  a
5486: e5 96 f5  mov   a,$f596
5489: 0f        brk
548a: 0a 0a f7  or1   c,$1ee1,2
548d: 02 0a     set0  $0a
548f: 00        nop
5490: e0        clrv
5491: 0b f4     asl   $f4
5493: 46        eor   a,(x)
5494: ea 00 ed  not1  $1da0,0
5497: e6        mov   a,(x)
5498: e1        tcall 14
5499: 03 60 7f  bbs0  $60,$551a
549c: 8a 89 87  eor1  c,$10f1,1
549f: 2a 82 e5  or1   c,!($1cb0,2)
54a2: aa e6 28  mov1  c,$051c,6
54a5: 3c        rol   a
54a6: c8 04     cmp   x,#$04
54a8: c9 00 e0  mov   $e000,x
54ab: 0b f4     asl   $f4
54ad: 46        eor   a,(x)
54ae: ea 00 ed  not1  $1da0,0
54b1: e6        mov   a,(x)
54b2: e1        tcall 14
54b3: 11        tcall 1
54b4: 60        clrc
54b5: 7f        reti
54b6: 8a 89 87  eor1  c,$10f1,1
54b9: 54 82     eor   a,$82+x
54bb: 04 c9     or    a,$c9
54bd: e0        clrv
54be: 0b f4     asl   $f4
54c0: 46        eor   a,(x)
54c1: ea 00 ed  not1  $1da0,0
54c4: dc        dec   y
54c5: e1        tcall 14
54c6: 06        or    a,(x)
54c7: 30 7f     bmi   $5548
54c9: 9a 18     subw  ya,$18
54cb: 9d        mov   x,sp
54cc: a2 30     set5  $30
54ce: a1        tcall 10
54cf: 9c        dec   a
54d0: a2 18     set5  $18
54d2: 9d        mov   x,sp
54d3: 9a 54     subw  ya,$54
54d5: 9a 04     subw  ya,$04
54d7: c9 e0 0b  mov   $0be0,x
54da: f4 46     mov   a,$46+x
54dc: ea 00 ed  not1  $1da0,0
54df: dc        dec   y
54e0: e1        tcall 14
54e1: 0e 60 7f  tset1 $7f60
54e4: 9d        mov   x,sp
54e5: 9c        dec   a
54e6: 9a 54     subw  ya,$54
54e8: 95 04 c9  adc   a,$c904+x
54eb: e0        clrv
54ec: 0b f4     asl   $f4
54ee: 46        eor   a,(x)
54ef: ea 00 ed  not1  $1da0,0
54f2: d2 e1     clr6  $e1
54f4: 0a 04 c9  or1   c,$1920,4
54f7: 18 7f 9d  or    $9d,#$7f
54fa: a2 a4     set5  $a4
54fc: a6        sbc   a,(x)
54fd: a8 a4     sbc   a,#$a4
54ff: 9f        xcn   a
5500: a4 ed     sbc   a,$ed
5502: a0        ei
5503: a9 ed bd  sbc   ($bd),($ed)
5506: a6        sbc   a,(x)
5507: a2 9f     set5  $9f
5509: 54 c9     eor   a,$c9+x
550b: e0        clrv
550c: 0b f4     asl   $f4
550e: 46        eor   a,(x)
550f: ea 00 ed  not1  $1da0,0
5512: dc        dec   y
5513: e1        tcall 14
5514: 08 1c     or    a,#$1c
5516: 7f        reti
5517: 9d        mov   x,sp
5518: 14 c9     or    a,$c9+x
551a: 1c        asl   a
551b: a4 14     sbc   a,$14
551d: c9 1c a8  mov   $a81c,x
5520: 14 c9     or    a,$c9+x
5522: 1c        asl   a
5523: 9f        xcn   a
5524: 14 c9     or    a,$c9+x
5526: ed        notc
5527: c8 1c     cmp   x,#$1c
5529: a9 e8 a0  sbc   ($a0),($e8)
552c: 0a ed e5  or1   c,$1cbd,5
552f: 14 c9     or    a,$c9+x
5531: 1c        asl   a
5532: a2 14     set5  $14
5534: c9 e1 0a  mov   $0ae1,x
5537: 54 a1     eor   a,$a1+x
5539: 04 c9     or    a,$c9
553b: e0        clrv
553c: 0b f4     asl   $f4
553e: 46        eor   a,(x)
553f: ea 00 ed  not1  $1da0,0
5542: aa e1 0c  mov1  c,$019c,1
5545: 18 c9 1c  or    $1c,#$c9
5548: 7f        reti
5549: a2 14     set5  $14
554b: c9 18 a6  mov   $a618,x
554e: 04 c8     or    a,$c8
5550: 14 c9     or    a,$c9+x
5552: 1c        asl   a
5553: a4 14     sbc   a,$14
5555: c9 18 a4  mov   $a418,x
5558: 04 c8     or    a,$c8
555a: 14 c9     or    a,$c9+x
555c: 1c        asl   a
555d: a6        sbc   a,(x)
555e: 14 c9     or    a,$c9+x
5560: 18 9f 04  or    $04,#$9f
5563: c8 50     cmp   x,#$50
5565: c9 04 c9  mov   $c904,x
5568: 00        nop
5569: 83 55 73  bbs4  $55,$55de
556c: 55 ff 00  eor   a,$00ff+x
556f: 6b 55     ror   $55
5571: 00        nop
5572: 00        nop
5573: 93 55 c8  bbc4  $55,$553d
5576: 55 ee 55  eor   a,$55ee+x
5579: 30 56     bmi   $55d1
557b: 00        nop
557c: 00        nop
557d: 00        nop
557e: 00        nop
557f: 00        nop
5580: 00        nop
5581: 00        nop
5582: 00        nop
5583: 49 56 65  eor   ($65),($56)
5586: 56 6d 56  eor   a,$566d+y
5589: 75 56 7d  cmp   a,$7d56+x
558c: 56 00 00  eor   a,$0000+y
558f: 00        nop
5590: 00        nop
5591: 00        nop
5592: 00        nop
5593: e5 dc e7  mov   a,$e7dc
5596: 10 e0     bpl   $5578
5598: 0c f4 28  asl   $28f4
559b: ed        notc
559c: 46        eor   a,(x)
559d: e1        tcall 14
559e: 07 f5     or    a,($f5+x)
55a0: 0f        brk
55a1: 0a 0a f7  or1   c,$1ee1,2
55a4: 02 0a     set0  $0a
55a6: 00        nop
55a7: 30 c9     bmi   $5572
55a9: 18 2f ba  or    $ba,#$2f
55ac: b5 b9 b1  sbc   a,$b1b9+x
55af: 48 c9     eor   a,#$c9
55b1: 18 b0 b6  or    $b6,#$b0
55b4: bb c9     inc   $c9+x
55b6: c9 18 1f  mov   $1f18,x
55b9: b5 0c c9  sbc   a,$c90c+x
55bc: 18 b2 0c  or    $0c,#$b2
55bf: c9 24 c9  mov   $c924,x
55c2: 60        clrc
55c3: c9 c9 0c  mov   $0cc9,x
55c6: c9 00 e0  mov   $e000,x
55c9: 0c f4 28  asl   $28f4
55cc: ed        notc
55cd: 32 e1     clr1  $e1
55cf: 0a 30 c9  or1   c,$1926,0
55d2: 18 2f a6  or    $a6,#$2f
55d5: a1        tcall 10
55d6: a5 9d 48  sbc   a,$489d
55d9: c9 18 9c  mov   $9c18,x
55dc: a2 a7     set5  $a7
55de: c9 c9 ad  mov   $adc9,x
55e1: 0c c9 18  asl   $18c9
55e4: aa 0c c9  mov1  c,$1921,4
55e7: 21        tcall 2
55e8: c9 60 c9  mov   $c960,x
55eb: c9 0f c9  mov   $c90f,x
55ee: e0        clrv
55ef: 0c f4 28  asl   $28f4
55f2: ed        notc
55f3: 3c        rol   a
55f4: e1        tcall 14
55f5: 0d        push  psw
55f6: 20        clrp
55f7: c9 06 0f  mov   $0f06,x
55fa: ba b5     movw  ya,$b5
55fc: b9        sbc   (x),(y)
55fd: b1        tcall 11
55fe: b0 b6     bcs   $55b6
5600: bb 2a     inc   $2a+x
5602: c9 06 ba  mov   $ba06,x
5605: b5 b9 b1  sbc   a,$b1b9+x
5608: b0 b6     bcs   $55c0
560a: bb 36     inc   $36+x
560c: c9 06 b9  mov   $b906,x
560f: b1        tcall 11
5610: ba b5     movw  ya,$b5
5612: b0 b6     bcs   $55ca
5614: bb 3e     inc   $3e+x
5616: c9 06 ba  mov   $ba06,x
5619: b5 b9 b1  sbc   a,$b1b9+x
561c: b0 b6     bcs   $55d4
561e: bb 20     inc   $20+x
5620: c9 06 b5  mov   $b506,x
5623: ba b9     movw  ya,$b9
5625: b1        tcall 11
5626: b0 b6     bcs   $55de
5628: bb 11     inc   $11+x
562a: c9 60 c9  mov   $c960,x
562d: c9 07 c9  mov   $c907,x
5630: e0        clrv
5631: 0b f4     asl   $f4
5633: 46        eor   a,(x)
5634: e1        tcall 14
5635: 0a ed 3c  or1   c,$079d,5
5638: ee        pop   y
5639: 3c        rol   a
563a: c8 3c     cmp   x,#$3c
563c: 7f        reti
563d: 80        setc
563e: ed        notc
563f: c8 ee     cmp   x,#$ee
5641: 30 3c     bmi   $567f
5643: 30 c8     bmi   $560d
5645: ef        sleep
5646: 88 56     adc   a,#$56
5648: 05 fa 26  or    a,$26fa
564b: e7 10     mov   a,($10+x)
564d: e5 c8 e0  mov   a,$e0c8
5650: 0c f4 28  asl   $28f4
5653: ed        notc
5654: 46        eor   a,(x)
5655: f5 0f 0a  mov   a,$0a0f+x
5658: 0a f7 02  or1   c,$005e,7
565b: 0a 00 e1  or1   c,$1c20,0
565e: 07 e2     or    a,($e2+x)
5660: c0        di
5661: 0d        push  psw
5662: 0c c9 00  asl   $00c9
5665: e0        clrv
5666: 0c f4 28  asl   $28f4
5669: ed        notc
566a: 32 0c     clr1  $0c
566c: c9 e0 0c  mov   $0ce0,x
566f: f4 28     mov   a,$28+x
5671: ed        notc
5672: 3c        rol   a
5673: 0c c9 e0  asl   $e0c9
5676: 0b f4     asl   $f4
5678: 46        eor   a,(x)
5679: e1        tcall 14
567a: 0a 0c c9  or1   c,$1921,4
567d: e0        clrv
567e: 0c f4 28  asl   $28f4
5681: ed        notc
5682: 28 e1     and   a,#$e1
5684: 0d        push  psw
5685: 0c c9 00  asl   $00c9
5688: ed        notc
5689: 3c        rol   a
568a: ee        pop   y
568b: 3c        rol   a
568c: c8 3c     cmp   x,#$3c
568e: 80        setc
568f: ed        notc
5690: c8 ee     cmp   x,#$ee
5692: 30 3c     bmi   $56d0
5694: 30 c8     bmi   $565e
5696: 00        nop
5697: 9f        xcn   a
5698: 56 ff 00  eor   a,$00ff+y
569b: 97 56     adc   a,($56)+y
569d: 00        nop
569e: 00        nop
569f: af        mov   (x)+,a
56a0: 56 00 00  eor   a,$0000+y
56a3: 00        nop
56a4: 00        nop
56a5: 00        nop
56a6: 00        nop
56a7: 00        nop
56a8: 00        nop
56a9: 00        nop
56aa: 00        nop
56ab: 00        nop
56ac: 00        nop
56ad: 00        nop
56ae: 00        nop
56af: fa 26 e7  mov   ($e7),($26)
56b2: 10 e5     bpl   $5699
56b4: e6        mov   a,(x)
56b5: f5 01 00  mov   a,$0001+x
56b8: 00        nop
56b9: f7 02     mov   a,($02)+y
56bb: 00        nop
56bc: 00        nop
56bd: e0        clrv
56be: 0b f4     asl   $f4
56c0: 46        eor   a,(x)
56c1: e1        tcall 14
56c2: 0a ed 32  or1   c,$065d,5
56c5: ee        pop   y
56c6: 3c        rol   a
56c7: b4 3c     sbc   a,$3c+x
56c9: 7f        reti
56ca: 80        setc
56cb: ed        notc
56cc: b4 ee     sbc   a,$ee+x
56ce: 30 32     bmi   $5702
56d0: 30 c8     bmi   $569a
56d2: ed        notc
56d3: 32 ee     clr1  $ee
56d5: 3c        rol   a
56d6: b4 3c     sbc   a,$3c+x
56d8: 80        setc
56d9: ed        notc
56da: b4 ee     sbc   a,$ee+x
56dc: 30 32     bmi   $5710
56de: 30 c8     bmi   $56a8
56e0: 00        nop
56e1: 00        nop
56e2: ff        stop
56e3: ff        stop
56e4: ff        stop
56e5: ff        stop
56e6: ff        stop
56e7: ff        stop
56e8: ff        stop
56e9: ff        stop
56ea: ff        stop
56eb: ff        stop
56ec: ff        stop
56ed: ff        stop
56ee: ff        stop
56ef: ff        stop
56f0: ff        stop
56f1: ff        stop
56f2: ff        stop
56f3: ff        stop
56f4: ff        stop
56f5: ff        stop
56f6: ff        stop
56f7: ff        stop
56f8: ff        stop
56f9: ff        stop
56fa: ff        stop
56fb: ff        stop
56fc: ff        stop
56fd: ff        stop
56fe: ff        stop
56ff: ff        stop
5700: ff        stop
5701: ff        stop
5702: ff        stop
5703: ff        stop
5704: ff        stop
5705: ff        stop
5706: ff        stop
5707: ff        stop
5708: ff        stop
5709: ff        stop
570a: ff        stop
570b: ff        stop
570c: ff        stop
570d: ff        stop
570e: ff        stop
570f: ff        stop
5710: ff        stop
5711: ff        stop
5712: ff        stop
5713: ff        stop
5714: ff        stop
5715: ff        stop
5716: ff        stop
5717: ff        stop
5718: ff        stop
5719: ff        stop
571a: ff        stop
571b: ff        stop
571c: ff        stop
571d: ff        stop
571e: ff        stop
571f: ff        stop
5720: ff        stop
5721: ff        stop
5722: ff        stop
5723: ff        stop
5724: ff        stop
5725: ff        stop
5726: ff        stop
5727: ff        stop
5728: ff        stop
5729: ff        stop
572a: ff        stop
572b: ff        stop
572c: ff        stop
572d: ff        stop
572e: ff        stop
572f: ff        stop
5730: ff        stop
5731: ff        stop
5732: ff        stop
5733: ff        stop
5734: ff        stop
5735: ff        stop
5736: ff        stop
5737: ff        stop
5738: ff        stop
5739: ff        stop
573a: ff        stop
573b: ff        stop
573c: ff        stop
573d: ff        stop
573e: ff        stop
573f: ff        stop
5740: ff        stop
5741: ff        stop
5742: ff        stop
5743: ff        stop
5744: ff        stop
5745: ff        stop
5746: ff        stop
5747: ff        stop
5748: ff        stop
5749: ff        stop
574a: ff        stop
574b: ff        stop
574c: ff        stop
574d: ff        stop
574e: ff        stop
574f: ff        stop
5750: ff        stop
5751: ff        stop
5752: ff        stop
5753: ff        stop
5754: ff        stop
5755: ff        stop
5756: ff        stop
5757: ff        stop
5758: ff        stop
5759: ff        stop
575a: ff        stop
575b: ff        stop
575c: ff        stop
575d: ff        stop
575e: ff        stop
575f: ff        stop
5760: ff        stop
5761: ff        stop
5762: ff        stop
5763: ff        stop
5764: ff        stop
5765: ff        stop
5766: ff        stop
5767: ff        stop
5768: ff        stop
5769: ff        stop
576a: ff        stop
576b: ff        stop
576c: ff        stop
576d: ff        stop
576e: ff        stop
576f: ff        stop
5770: ff        stop
5771: ff        stop
5772: ff        stop
5773: ff        stop
5774: ff        stop
5775: ff        stop
5776: ff        stop
5777: ff        stop
5778: ff        stop
5779: ff        stop
577a: ff        stop
577b: ff        stop
577c: ff        stop
577d: ff        stop
577e: ff        stop
577f: ff        stop
5780: ff        stop
5781: ff        stop
5782: ff        stop
5783: ff        stop
5784: ff        stop
5785: ff        stop
5786: ff        stop
5787: ff        stop
5788: ff        stop
5789: ff        stop
578a: ff        stop
578b: ff        stop
578c: ff        stop
578d: ff        stop
578e: ff        stop
578f: ff        stop
5790: ff        stop
5791: ff        stop
5792: ff        stop
5793: ff        stop
5794: ff        stop
5795: ff        stop
5796: ff        stop
5797: ff        stop
5798: ff        stop
5799: ff        stop
579a: ff        stop
579b: ff        stop
579c: ff        stop
579d: ff        stop
579e: ff        stop
579f: ff        stop
57a0: ff        stop
57a1: ff        stop
57a2: ff        stop
57a3: ff        stop
57a4: ff        stop
57a5: ff        stop
57a6: ff        stop
57a7: ff        stop
57a8: ff        stop
57a9: ff        stop
57aa: ff        stop
57ab: ff        stop
57ac: ff        stop
57ad: ff        stop
57ae: ff        stop
57af: ff        stop
57b0: ff        stop
57b1: ff        stop
57b2: ff        stop
57b3: ff        stop
57b4: ff        stop
57b5: ff        stop
57b6: ff        stop
57b7: ff        stop
57b8: ff        stop
57b9: ff        stop
57ba: ff        stop
57bb: ff        stop
57bc: ff        stop
57bd: ff        stop
57be: ff        stop
57bf: ff        stop
57c0: ff        stop
57c1: ff        stop
57c2: ff        stop
57c3: ff        stop
57c4: ff        stop
57c5: ff        stop
57c6: ff        stop
57c7: ff        stop
57c8: ff        stop
57c9: ff        stop
57ca: ff        stop
57cb: ff        stop
57cc: ff        stop
57cd: ff        stop
57ce: ff        stop
57cf: ff        stop
57d0: ff        stop
57d1: ff        stop
57d2: ff        stop
57d3: ff        stop
57d4: ff        stop
57d5: ff        stop
57d6: ff        stop
57d7: ff        stop
57d8: ff        stop
57d9: ff        stop
57da: ff        stop
57db: ff        stop
57dc: ff        stop
57dd: ff        stop
57de: ff        stop
57df: ff        stop
57e0: ff        stop
57e1: ff        stop
57e2: ff        stop
57e3: ff        stop
57e4: ff        stop
57e5: ff        stop
57e6: ff        stop
57e7: ff        stop
57e8: ff        stop
57e9: ff        stop
57ea: ff        stop
57eb: ff        stop
57ec: ff        stop
57ed: ff        stop
57ee: ff        stop
57ef: ff        stop
57f0: ff        stop
57f1: ff        stop
57f2: ff        stop
57f3: ff        stop
57f4: ff        stop
57f5: ff        stop
57f6: ff        stop
57f7: ff        stop
57f8: ff        stop
57f9: ff        stop
57fa: ff        stop
57fb: ff        stop
57fc: ff        stop
57fd: ff        stop
57fe: ff        stop
57ff: ff        stop

;5800: 32 65     clr1  $65
;5802: 7f        reti
;5803: 98 b2 cb  adc   $cb,#$b2
;5806: e5 fc 19  mov   a,$19fc
;5809: 32 4c     clr1  $4c
;580b: 65 72 7f  cmp   a,$7f72
;580e: 8c 98 a5  dec   $a598
;5811: b2 bf     clr5  $bf
;5813: cb d8     mov   $d8,y
;5815: e5 f2 fc  mov   a,$fcf2

5800: 32 65 7f 98 b2 cb e5 fc                         ;Data put into 0201+x
5808: 19 32 4c 65 72 7f 8c 98 a5 b2 bf cb d8 e5 f2 fc ;Data put into 0210+x


5818: ff        stop
5819: ff        stop
581a: ff        stop
581b: ff        stop
581c: ff        stop
581d: ff        stop
581e:                                    ffff ;Input for $40 when a new song is loaded, not sure how many are actually used.
5820: 530e 546e 5569 5697 582e 609e 61bb      ;I'm guessing it ends here. Max of $80 entries

;581e: ff        stop
;581f: ff        stop
;5820: 0e 53 6e  tset1 $6e53
;5823: 54 69     eor   a,$69+x
;5825: 55 97 56  eor   a,$5697+x
;5828: 2e 58 9e  cbne  $58,$57c8
;582b: 60        clrc
;582c: bb 61     inc   $61+x

582e: 80        setc
582f: 58 40 58  eor   $58,#$40
5832: 50 58     bvc   $588c
5834: 60        clrc
5835: 58 40 58  eor   $58,#$40
5838: 70 58     bvs   $5892
583a: ff        stop
583b: 00        nop
583c: 30 58     bmi   $5896
583e: 00        nop
583f: 00        nop
5840: 90 58     bcc   $589a
5842: d9 58     mov   $58+y,x
5844: 20        clrp
5845: 59        eor   (x),(y)
5846: 71        tcall 7
5847: 59        eor   (x),(y)
5848: bc        inc   a
5849: 59        eor   (x),(y)
584a: ff        stop
584b: 59        eor   (x),(y)
584c: 45 5a 00  eor   a,$005a
584f: 00        nop
5850: 94 5a     adc   a,$5a+x
5852: ca 5a e6  mov1  $1ccb,2,c
5855: 5a 07     cmpw  ya,$07
5857: 5b 23     lsr   $23+x
5859: 5b 68     lsr   $68+x
585b: 5b 9e     lsr   $9e+x
585d: 5b 00     lsr   $00+x
585f: 00        nop
5860: c0        di
5861: 5b 09     lsr   $09+x
5863: 5c        lsr   a
5864: 50 5c     bvc   $58c2
5866: 9c        dec   a
5867: 5c        lsr   a
5868: e2 5c     set7  $5c
586a: 25 5d 66  and   a,$665d
586d: 5d        mov   x,a
586e: 00        nop
586f: 00        nop
5870: ad 5d     cmp   y,#$5d
5872: 36 5e 92  and   a,$925e+y
5875: 5e 1a 5f  cmp   y,$5f1a
5878: 82 5f     set4  $5f
587a: cb 5f     mov   $5f,y
587c: 00        nop
587d: 00        nop
587e: 00        nop
587f: 00        nop
5880: 2e 60 47  cbne  $60,$58c9
5883: 60        clrc
5884: 51        tcall 5
5885: 60        clrc
5886: 5b 60     lsr   $60+x
5888: 65 60 6f  cmp   a,$6f60
588b: 60        clrc
588c: 79        cmp   (x),(y)
588d: 60        clrc
588e: 00        nop
588f: 00        nop
5890: ef        sleep
5891: 84 60     adc   a,$60
5893: 01        tcall 0
5894: e0        clrv
5895: 19        or    (x),(y)
5896: f4 1e     mov   a,$1e+x
5898: ea 00 ed  not1  $1da0,0
589b: d5 ee 72  mov   $72ee+x,a
589e: 95 e1 11  adc   a,$11e1+x
58a1: e2 f0     set7  $f0
58a3: 0a 0c 7f  or1   c,$0fe1,4
58a6: 98 8c 8c  adc   $8c,#$8c
58a9: 98 8c 8c  adc   $8c,#$8c
58ac: 99        adc   (x),(y)
58ad: 8d 96     mov   y,#$96
58af: 8a 98 8c  eor1  c,$1193,0
58b2: 8c 98 8c  dec   $8c98
58b5: 8c 99 8d  dec   $8d99
58b8: 96 8a ed  adc   a,$ed8a+y
58bb: 95 ee 72  adc   a,$72ee+x
58be: c8 e1     cmp   x,#$e1
58c0: 0a e2 f0  or1   c,$1e1c,2
58c3: 03 98 8c  bbs0  $98,$5851
58c6: 8c 98 8c  dec   $8c98
58c9: 8c 99 8d  dec   $8d99
58cc: 96 8a 98  adc   a,$988a+y
58cf: 8c 8c 98  dec   $988c
58d2: 8c 8c 99  dec   $998c
58d5: 8d 96     mov   y,#$96
58d7: 8a 00 e0  eor1  c,$1c00,0
58da: 19        or    (x),(y)
58db: f4 1e     mov   a,$1e+x
58dd: ea 00 ed  not1  $1da0,0
58e0: d5 ee 72  mov   $72ee+x,a
58e3: 95 e1 03  adc   a,$03e1+x
58e6: e2 f0     set7  $f0
58e8: 0a 06 c9  or1   c,$1920,6
58eb: 0c 7f 98  asl   $987f
58ee: 8c 8c 98  dec   $988c
58f1: 8c 8c 99  dec   $998c
58f4: 8d 96     mov   y,#$96
58f6: 8a 98 8c  eor1  c,$1193,0
58f9: 8c 98 8c  dec   $8c98
58fc: 8c 99 8d  dec   $8d99
58ff: 96 8a ed  adc   a,$ed8a+y
5902: 95 ee 72  adc   a,$72ee+x
5905: c8 e1     cmp   x,#$e1
5907: 0a e2 f0  or1   c,$1e1c,2
590a: 11        tcall 1
590b: 98 8c 8c  adc   $8c,#$8c
590e: 98 8c 8c  adc   $8c,#$8c
5911: 99        adc   (x),(y)
5912: 8d 96     mov   y,#$96
5914: 8a 98 8c  eor1  c,$1193,0
5917: 8c 98 8c  dec   $8c98
591a: 8c 99 8d  dec   $8d99
591d: 96 06 8a  adc   a,$8a06+y
5920: e0        clrv
5921: 1c        asl   a
5922: f4 3c     mov   a,$3c+x
5924: ed        notc
5925: 99        adc   (x),(y)
5926: e1        tcall 14
5927: 0a 18 5f  or1   c,$0be3,0
592a: a4 0c     sbc   a,$0c
592c: c9 18 59  mov   $5918,x
592f: a4 0c     sbc   a,$0c
5931: c9 18 5d  mov   $5d18,x
5934: a5 a2 ed  sbc   a,$eda2
5937: b3 18 5f  bbc5  $18,$5998
593a: a4 0c     sbc   a,$0c
593c: c9 18 59  mov   $5918,x
593f: a4 0c     sbc   a,$0c
5941: c9 18 5d  mov   $5d18,x
5944: a5 a2 ed  sbc   a,$eda2
5947: 88 ee     adc   a,#$ee
5949: 8e        pop   psw
594a: b3 e1 0a  bbc5  $e1,$5956
594d: e2 f0     set7  $f0
594f: 11        tcall 1
5950: 18 5f a4  or    $a4,#$5f
5953: 0c c9 18  asl   $18c9
5956: 59        eor   (x),(y)
5957: a4 0c     sbc   a,$0c
5959: c9 18 5d  mov   $5d18,x
595c: a5 a2 ed  sbc   a,$eda2
595f: b3 ee 39  bbc5  $ee,$599a
5962: cd 18     mov   x,#$18
5964: 5f a4 0c  jmp   $0ca4
5967: c9 18 59  mov   $5918,x
596a: a4 0c     sbc   a,$0c
596c: c9 18 5d  mov   $5d18,x
596f: a5 a2 e0  sbc   a,$e0a2
5972: 1a f4     decw  $f4
5974: 3c        rol   a
5975: ed        notc
5976: c4 e1     mov   $e1,a
5978: 0a 18 5f  or1   c,$0be3,0
597b: 85 0c c9  adc   a,$c90c
597e: 18 3d 85  or    $85,#$3d
5981: 0c c9 18  asl   $18c9
5984: 5f 86 83  jmp   $8386
5987: ed        notc
5988: 99        adc   (x),(y)
5989: 85 0c c9  adc   a,$c90c
598c: 18 3d 85  or    $85,#$3d
598f: 0c c9 18  asl   $18c9
5992: 5f 86 83  jmp   $8386
5995: ed        notc
5996: 99        adc   (x),(y)
5997: ee        pop   y
5998: 8e        pop   psw
5999: b3 e1 0a  bbc5  $e1,$59a5
599c: e2 f0     set7  $f0
599e: 03 85 0c  bbs0  $85,$59ac
59a1: c9 18 3d  mov   $3d18,x
59a4: 85 0c c9  adc   a,$c90c
59a7: 18 5f 86  or    $86,#$5f
59aa: 83 ed b3  bbs4  $ed,$595f
59ad: ee        pop   y
59ae: 3c        rol   a
59af: d5 85 0c  mov   $0c85+x,a
59b2: c9 18 3d  mov   $3d18,x
59b5: 85 0c c9  adc   a,$c90c
59b8: 18 5f 86  or    $86,#$5f
59bb: 83 e0 18  bbs4  $e0,$59d5
59be: f4 00     mov   a,$00+x
59c0: ed        notc
59c1: ff        stop
59c2: ee        pop   y
59c3: 3c        rol   a
59c4: 77 e1     cmp   a,($e1)+y
59c6: 0a 0c 7f  or1   c,$0fe1,4
59c9: a3 a3 a3  bbs5  $a3,$596e
59cc: a3 a3 ed  bbs5  $a3,$59bb
59cf: 77 a3     cmp   a,($a3)+y
59d1: 0c 4f a3  asl   $a34f
59d4: a3 a3 a3  bbs5  $a3,$5979
59d7: a3 a3 a3  bbs5  $a3,$597c
59da: a3 a3 a3  bbs5  $a3,$597f
59dd: a3 a3 a3  bbs5  $a3,$5982
59e0: a3 ed 8f  bbs5  $ed,$5971
59e3: ee        pop   y
59e4: 78 ab a3  cmp   $a3,#$ab
59e7: a3 a3 a3  bbs5  $a3,$598c
59ea: a3 a3 a3  bbs5  $a3,$598f
59ed: a3 a3 a3  bbs5  $a3,$5992
59f0: ed        notc
59f1: ab ee     inc   $ee
59f3: 64 d5     cmp   a,$d5
59f5: a3 a3 a3  bbs5  $a3,$599a
59f8: a3 a3 a3  bbs5  $a3,$599d
59fb: a3 a3 a3  bbs5  $a3,$59a0
59fe: a3 e0 1a  bbs5  $e0,$5a1a
5a01: f4 3c     mov   a,$3c+x
5a03: ed        notc
5a04: da e1     movw  $e1,ya
5a06: 0a 18 5f  or1   c,$0be3,0
5a09: 8a 0c c9  eor1  c,$1921,4
5a0c: 18 3d 8a  or    $8a,#$3d
5a0f: 0c c9 18  asl   $18c9
5a12: 5f 8b 8a  jmp   $8a8b
5a15: ed        notc
5a16: ab 8a     inc   $8a
5a18: 0c c9 18  asl   $18c9
5a1b: 3d        inc   x
5a1c: 8a 0c c9  eor1  c,$1921,4
5a1f: 18 5f 8b  or    $8b,#$5f
5a22: 8a ed ab  eor1  c,$157d,5
5a25: ee        pop   y
5a26: 96 be 8a  adc   a,$8abe+y
5a29: 0c c9 18  asl   $18c9
5a2c: 3d        inc   x
5a2d: 8a 0c c9  eor1  c,$1921,4
5a30: 18 5f 8b  or    $8b,#$5f
5a33: 8a ed be  eor1  c,$17dd,5
5a36: ee        pop   y
5a37: 3c        rol   a
5a38: ed        notc
5a39: 8a 0c c9  eor1  c,$1921,4
5a3c: 18 3d 8a  or    $8a,#$3d
5a3f: 0c c9 18  asl   $18c9
5a42: 5f 8b 8a  jmp   $8a8b
5a45: e0        clrv
5a46: 1b f4     asl   $f4+x
5a48: 3c        rol   a
5a49: ed        notc
5a4a: b4 e1     sbc   a,$e1+x
5a4c: 0a 04 c9  or1   c,$1920,4
5a4f: 18 5f 8c  or    $8c,#$5f
5a52: 0c c9 18  asl   $18c9
5a55: 59        eor   (x),(y)
5a56: 8c 0c c9  dec   $c90c
5a59: 18 5d 8d  or    $8d,#$5d
5a5c: 8a ed c7  eor1  c,$18fd,5
5a5f: 18 5f 8c  or    $8c,#$5f
5a62: 0c c9 18  asl   $18c9
5a65: 59        eor   (x),(y)
5a66: 8c 0c c9  dec   $c90c
5a69: 18 5d 8d  or    $8d,#$5d
5a6c: 8a ed 98  eor1  c,$131d,5
5a6f: ee        pop   y
5a70: 96 c7 18  adc   a,$18c7+y
5a73: 5f 8c 0c  jmp   $0c8c
5a76: c9 18 59  mov   $5918,x
5a79: 8c 0c c9  dec   $c90c
5a7c: 18 5d 8d  or    $8d,#$5d
5a7f: 8a ed c7  eor1  c,$18fd,5
5a82: ee        pop   y
5a83: 3c        rol   a
5a84: e4 18     mov   a,$18
5a86: 5f 8c 0c  jmp   $0c8c
5a89: c9 18 59  mov   $5918,x
5a8c: 8c 0c c9  dec   $c90c
5a8f: 18 5d 8d  or    $8d,#$5d
5a92: 14 8a     or    a,$8a+x
5a94: ef        sleep
5a95: 84 60     adc   a,$60
5a97: 01        tcall 0
5a98: e0        clrv
5a99: 19        or    (x),(y)
5a9a: f4 1e     mov   a,$1e+x
5a9c: ea 00 ed  not1  $1da0,0
5a9f: 98 e1 0a  adc   $0a,#$e1
5aa2: 0c 7f 93  asl   $937f
5aa5: 87 87     adc   a,($87+x)
5aa7: 87 87     adc   a,($87+x)
5aa9: 87 87     adc   a,($87+x)
5aab: 87 ed     adc   a,($ed+x)
5aad: 82 94     set4  $94
5aaf: 88 88     adc   a,#$88
5ab1: 88 88     adc   a,#$88
5ab3: 88 88     adc   a,#$88
5ab5: 88 89     adc   a,#$89
5ab7: 89 89 89  adc   ($89),($89)
5aba: 89 89 89  adc   ($89),($89)
5abd: 89 ed 90  adc   ($90),($ed)
5ac0: ee        pop   y
5ac1: 30 b4     bmi   $5a77
5ac3: 96 8a 8a  adc   a,$8a8a+y
5ac6: 97 8b     adc   a,($8b)+y
5ac8: 8b 00     dec   $00
5aca: e0        clrv
5acb: 1b f4     asl   $f4+x
5acd: 3c        rol   a
5ace: ed        notc
5acf: 8c e1 0a  dec   $0ae1
5ad2: 60        clrc
5ad3: 7f        reti
5ad4: 8c ed 6e  dec   $6eed
5ad7: 8d ed     mov   y,#$ed
5ad9: 7f        reti
5ada: ee        pop   y
5adb: 60        clrc
5adc: af        mov   (x)+,a
5add: e1        tcall 14
5ade: 0a e2 a8  or1   c,$151c,2
5ae1: 07 8e     or    a,($8e+x)
5ae3: 24 8f     and   a,$8f
5ae5: 90 e0     bcc   $5ac7
5ae7: 1c        asl   a
5ae8: f4 3c     mov   a,$3c+x
5aea: ed        notc
5aeb: b3 e1 0a  bbc5  $e1,$5af7
5aee: 0c 7f aa  asl   $aa7f
5af1: a4 a7     sbc   a,$a7
5af3: 3c        rol   a
5af4: 9f        xcn   a
5af5: ed        notc
5af6: a0        ei
5af7: 0c a0 a2  asl   $a2a0
5afa: a4 3c     sbc   a,$3c
5afc: ab 0c     inc   $0c
5afe: aa a6 48  mov1  c,$0914,6
5b01: ad ed     cmp   y,#$ed
5b03: c3 24 ae  bbs6  $24,$5ab3
5b06: af        mov   (x)+,a
5b07: e0        clrv
5b08: 1b f4     asl   $f4+x
5b0a: 3c        rol   a
5b0b: ed        notc
5b0c: 90 e1     bcc   $5aef
5b0e: 0a 60 7f  or1   c,$0fec,0
5b11: 92 ed     clr4  $ed
5b13: 7c        ror   a
5b14: 93 ed 90  bbc4  $ed,$5aa6
5b17: ee        pop   y
5b18: 60        clrc
5b19: af        mov   (x)+,a
5b1a: e1        tcall 14
5b1b: 0a e2 a8  or1   c,$151c,2
5b1e: 0d        push  psw
5b1f: 94 24     adc   a,$24+x
5b21: 95 96 e0  adc   a,$e096+x
5b24: 18 f4 00  or    $00,#$f4
5b27: ed        notc
5b28: 8f e1 0a  mov   $0a,#$e1
5b2b: 0c 47 a3  asl   $a347
5b2e: a3 a3 a3  bbs5  $a3,$5ad3
5b31: a3 a3 a3  bbs5  $a3,$5ad6
5b34: a3 ed 7b  bbs5  $ed,$5bb1
5b37: a3 a3 a3  bbs5  $a3,$5adc
5b3a: a3 a3 a3  bbs5  $a3,$5adf
5b3d: a3 a3 ed  bbs5  $a3,$5b2c
5b40: 99        adc   (x),(y)
5b41: ee        pop   y
5b42: 60        clrc
5b43: cd a3     mov   x,#$a3
5b45: a3 a3 a3  bbs5  $a3,$5aea
5b48: a3 a3 a3  bbs5  $a3,$5aed
5b4b: a3 ed cd  bbs5  $ed,$5b1a
5b4e: ee        pop   y
5b4f: 24 a0     and   a,$a0
5b51: 0c 7f a3  asl   $a37f
5b54: 0c 6f a3  asl   $a36f
5b57: 0c 5f a3  asl   $a35f
5b5a: ed        notc
5b5b: dc        dec   y
5b5c: ee        pop   y
5b5d: 24 af     and   a,$af
5b5f: 0c 7f a3  asl   $a37f
5b62: 0c 6f a3  asl   $a36f
5b65: 0c 5f a3  asl   $a35f
5b68: e0        clrv
5b69: 19        or    (x),(y)
5b6a: f4 1e     mov   a,$1e+x
5b6c: ea 00 ed  not1  $1da0,0
5b6f: be        das   a
5b70: e1        tcall 14
5b71: 0a 06 c9  or1   c,$1920,6
5b74: 0c 7f 93  asl   $937f
5b77: 87 87     adc   a,($87+x)
5b79: 87 87     adc   a,($87+x)
5b7b: 87 87     adc   a,($87+x)
5b7d: 87 ed     adc   a,($ed+x)
5b7f: aa 94 88  mov1  c,$1112,4
5b82: 88 88     adc   a,#$88
5b84: 88 88     adc   a,#$88
5b86: 88 88     adc   a,#$88
5b88: ed        notc
5b89: be        das   a
5b8a: ee        pop   y
5b8b: 60        clrc
5b8c: 8e        pop   psw
5b8d: 95 89 89  adc   a,$8989+x
5b90: 89 89 89  adc   ($89),($89)
5b93: 89 89 ed  adc   ($ed),($89)
5b96: b4 96     sbc   a,$96+x
5b98: 8a 8a 97  eor1  c,$12f1,2
5b9b: 8b 06     dec   $06
5b9d: 8b e0     dec   $e0
5b9f: 1b f4     asl   $f4+x
5ba1: 3c        rol   a
5ba2: ed        notc
5ba3: f0 e1     beq   $5b86
5ba5: 0a 04 c9  or1   c,$1920,4
5ba8: 0c 7f 92  asl   $927f
5bab: 8c 8f 3c  dec   $3c8f
5bae: 87 0c     adc   a,($0c+x)
5bb0: 88 8a     adc   a,#$8a
5bb2: 8c 3c 93  dec   $933c
5bb5: 0c 92 8e  asl   $8e92
5bb8: 48 95     eor   a,#$95
5bba: ed        notc
5bbb: d2 24     clr6  $24
5bbd: 96 20 97  adc   a,$9720+y
5bc0: ef        sleep
5bc1: 84 60     adc   a,$60
5bc3: 01        tcall 0
5bc4: e0        clrv
5bc5: 19        or    (x),(y)
5bc6: f4 1e     mov   a,$1e+x
5bc8: ea 00 ed  not1  $1da0,0
5bcb: e4 ee     mov   a,$ee
5bcd: 78 98 e1  cmp   $e1,#$98
5bd0: 03 e2 f0  bbs0  $e2,$5bc2
5bd3: 0a 0c 7f  or1   c,$0fe1,4
5bd6: 9b 8f     dec   $8f+x
5bd8: 8f 9b 8f  mov   $8f,#$9b
5bdb: 8f 9c 90  mov   $90,#$9c
5bde: 99        adc   (x),(y)
5bdf: 8d 9b     mov   y,#$9b
5be1: 8f 8f 9b  mov   $9b,#$8f
5be4: 8f 8f 9c  mov   $9c,#$8f
5be7: 90 99     bcc   $5b82
5be9: 8d ed     mov   y,#$ed
5beb: 98 ee 78  adc   $78,#$ee
5bee: e4 e1     mov   a,$e1
5bf0: 0a e2 f0  or1   c,$1e1c,2
5bf3: 11        tcall 1
5bf4: 9b 8f     dec   $8f+x
5bf6: 8f 9b 8f  mov   $8f,#$9b
5bf9: 8f 9c 90  mov   $90,#$9c
5bfc: 99        adc   (x),(y)
5bfd: 8d 9b     mov   y,#$9b
5bff: 8f 8f 9b  mov   $9b,#$8f
5c02: 8f 8f 9c  mov   $9c,#$8f
5c05: 90 99     bcc   $5ba0
5c07: 8d 00     mov   y,#$00
5c09: e0        clrv
5c0a: 19        or    (x),(y)
5c0b: f4 1e     mov   a,$1e+x
5c0d: ea 00 ed  not1  $1da0,0
5c10: e4 ee     mov   a,$ee
5c12: 78 98 e1  cmp   $e1,#$98
5c15: 11        tcall 1
5c16: e2 f0     set7  $f0
5c18: 0a 06 c9  or1   c,$1920,6
5c1b: 0c 7f 9b  asl   $9b7f
5c1e: 8f 8f 9b  mov   $9b,#$8f
5c21: 8f 8f 9c  mov   $9c,#$8f
5c24: 90 99     bcc   $5bbf
5c26: 8d 9b     mov   y,#$9b
5c28: 8f 8f 9b  mov   $9b,#$8f
5c2b: 8f 8f 9c  mov   $9c,#$8f
5c2e: 90 99     bcc   $5bc9
5c30: 8d ed     mov   y,#$ed
5c32: 98 ee 78  adc   $78,#$ee
5c35: e4 e1     mov   a,$e1
5c37: 0a e2 f0  or1   c,$1e1c,2
5c3a: 03 9b 8f  bbs0  $9b,$5bcb
5c3d: 8f 9b 8f  mov   $8f,#$9b
5c40: 8f 9c 90  mov   $90,#$9c
5c43: 99        adc   (x),(y)
5c44: 8d 9b     mov   y,#$9b
5c46: 8f 8f 9b  mov   $9b,#$8f
5c49: 8f 8f 9c  mov   $9c,#$8f
5c4c: 90 99     bcc   $5be7
5c4e: 06        or    a,(x)
5c4f: 8d e0     mov   y,#$e0
5c51: 1c        asl   a
5c52: f4 3c     mov   a,$3c+x
5c54: ed        notc
5c55: be        das   a
5c56: e1        tcall 14
5c57: 0a 18 5f  or1   c,$0be3,0
5c5a: a7 0c     sbc   a,($0c+x)
5c5c: c9 18 59  mov   $5918,x
5c5f: a7 0c     sbc   a,($0c+x)
5c61: c9 ed a0  mov   $a0ed,x
5c64: 18 5d a8  or    $a8,#$5d
5c67: a5 18 5f  sbc   a,$5f18
5c6a: a7 0c     sbc   a,($0c+x)
5c6c: c9 18 59  mov   $5918,x
5c6f: a7 0c     sbc   a,($0c+x)
5c71: c9 18 5d  mov   $5d18,x
5c74: a8 a5     sbc   a,#$a5
5c76: ed        notc
5c77: a0        ei
5c78: ee        pop   y
5c79: 80        setc
5c7a: d1        tcall 13
5c7b: e1        tcall 14
5c7c: 0a e2 f0  or1   c,$1e1c,2
5c7f: 11        tcall 1
5c80: 18 5f a7  or    $a7,#$5f
5c83: 0c c9 18  asl   $18c9
5c86: 59        eor   (x),(y)
5c87: a7 0c     sbc   a,($0c+x)
5c89: c9 18 5d  mov   $5d18,x
5c8c: a8 a5     sbc   a,#$a5
5c8e: 18 5f a7  or    $a7,#$5f
5c91: 0c c9 18  asl   $18c9
5c94: 59        eor   (x),(y)
5c95: a7 0c     sbc   a,($0c+x)
5c97: c9 18 5d  mov   $5d18,x
5c9a: a8 a5     sbc   a,#$a5
5c9c: e0        clrv
5c9d: 1a f4     decw  $f4
5c9f: 3c        rol   a
5ca0: ed        notc
5ca1: be        das   a
5ca2: e1        tcall 14
5ca3: 0a 18 5f  or1   c,$0be3,0
5ca6: 88 0c     adc   a,#$0c
5ca8: c9 18 3d  mov   $3d18,x
5cab: 88 0c     adc   a,#$0c
5cad: c9 ed a0  mov   $a0ed,x
5cb0: 18 5f 89  or    $89,#$5f
5cb3: 86        adc   a,(x)
5cb4: 88 0c     adc   a,#$0c
5cb6: c9 18 3d  mov   $3d18,x
5cb9: 88 0c     adc   a,#$0c
5cbb: c9 18 5f  mov   $5f18,x
5cbe: 89 86 ed  adc   ($ed),($86)
5cc1: a0        ei
5cc2: ee        pop   y
5cc3: 80        setc
5cc4: ed        notc
5cc5: e1        tcall 14
5cc6: 0a e2 f0  or1   c,$1e1c,2
5cc9: 03 88 0c  bbs0  $88,$5cd7
5ccc: c9 18 3d  mov   $3d18,x
5ccf: 88 0c     adc   a,#$0c
5cd1: c9 18 5f  mov   $5f18,x
5cd4: 89 86 88  adc   ($88),($86)
5cd7: 0c c9 18  asl   $18c9
5cda: 3d        inc   x
5cdb: 88 0c     adc   a,#$0c
5cdd: c9 18 5f  mov   $5f18,x
5ce0: 89 86 e0  adc   ($e0),($86)
5ce3: 18 f4 00  or    $00,#$f4
5ce6: ed        notc
5ce7: ff        stop
5ce8: ee        pop   y
5ce9: 3c        rol   a
5cea: 77 e1     cmp   a,($e1)+y
5cec: 0a 0c 7f  or1   c,$0fe1,4
5cef: a3 a3 a3  bbs5  $a3,$5c94
5cf2: a3 a3 ed  bbs5  $a3,$5ce1
5cf5: 85 0c 4f  adc   a,$4f0c
5cf8: a3 a3 a3  bbs5  $a3,$5c9d
5cfb: a3 a3 a3  bbs5  $a3,$5ca0
5cfe: a3 a3 a3  bbs5  $a3,$5ca3
5d01: a3 a3 a3  bbs5  $a3,$5ca6
5d04: a3 a3 a3  bbs5  $a3,$5ca9
5d07: ed        notc
5d08: 9f        xcn   a
5d09: ee        pop   y
5d0a: 78 be a3  cmp   $a3,#$be
5d0d: a3 a3 a3  bbs5  $a3,$5cb2
5d10: a3 a3 a3  bbs5  $a3,$5cb5
5d13: a3 a3 a3  bbs5  $a3,$5cb8
5d16: ed        notc
5d17: be        das   a
5d18: ee        pop   y
5d19: 64 ed     cmp   a,$ed
5d1b: a3 a3 a3  bbs5  $a3,$5cc0
5d1e: a3 a3 a3  bbs5  $a3,$5cc3
5d21: a3 a3 a3  bbs5  $a3,$5cc6
5d24: a3 e0 1a  bbs5  $e0,$5d40
5d27: f4 3c     mov   a,$3c+x
5d29: ed        notc
5d2a: be        das   a
5d2b: e1        tcall 14
5d2c: 0a 18 5f  or1   c,$0be3,0
5d2f: 8d 0c     mov   y,#$0c
5d31: c9 18 3d  mov   $3d18,x
5d34: 8d 0c     mov   y,#$0c
5d36: c9 ed a0  mov   $a0ed,x
5d39: 18 5f 8e  or    $8e,#$5f
5d3c: 8b 8d     dec   $8d
5d3e: 0c c9 18  asl   $18c9
5d41: 3d        inc   x
5d42: 8d 0c     mov   y,#$0c
5d44: c9 18 5f  mov   $5f18,x
5d47: 8e        pop   psw
5d48: 8b ed     dec   $ed
5d4a: 98 ee 80  adc   $80,#$ee
5d4d: ed        notc
5d4e: 8d 0c     mov   y,#$0c
5d50: c9 18 3d  mov   $3d18,x
5d53: 8d 0c     mov   y,#$0c
5d55: c9 18 5f  mov   $5f18,x
5d58: 8e        pop   psw
5d59: 8b 8d     dec   $8d
5d5b: 0c c9 18  asl   $18c9
5d5e: 3d        inc   x
5d5f: 8d 0c     mov   y,#$0c
5d61: c9 18 5f  mov   $5f18,x
5d64: 8e        pop   psw
5d65: 8b e0     dec   $e0
5d67: 1b f4     asl   $f4+x
5d69: 3c        rol   a
5d6a: ed        notc
5d6b: be        das   a
5d6c: e1        tcall 14
5d6d: 0a 18 5f  or1   c,$0be3,0
5d70: 8f 0c c9  mov   $c9,#$0c
5d73: 18 59 8f  or    $8f,#$59
5d76: 0c c9 ed  asl   $edc9
5d79: 98 18 5d  adc   $5d,#$18
5d7c: 90 8d     bcc   $5d0b
5d7e: 18 5f 8f  or    $8f,#$5f
5d81: 0c c9 18  asl   $18c9
5d84: 59        eor   (x),(y)
5d85: 8f 0c c9  mov   $c9,#$0c
5d88: 18 5d 90  or    $90,#$5d
5d8b: 8d ed     mov   y,#$ed
5d8d: b4 ee     sbc   a,$ee+x
5d8f: 80        setc
5d90: ed        notc
5d91: 18 5f 8f  or    $8f,#$5f
5d94: 0c c9 18  asl   $18c9
5d97: 59        eor   (x),(y)
5d98: 8f 0c c9  mov   $c9,#$0c
5d9b: 18 5d 90  or    $90,#$5d
5d9e: 8d 18     mov   y,#$18
5da0: 5f 8f 0c  jmp   $0c8f
5da3: c9 18 59  mov   $5918,x
5da6: 8f 0c c9  mov   $c9,#$0c
5da9: 18 5d 90  or    $90,#$5d
5dac: 8d ef     mov   y,#$ef
5dae: 84 60     adc   a,$60
5db0: 01        tcall 0
5db1: e0        clrv
5db2: 19        or    (x),(y)
5db3: f4 1e     mov   a,$1e+x
5db5: ea 00 ed  not1  $1da0,0
5db8: be        das   a
5db9: e1        tcall 14
5dba: 0a 0c 7f  or1   c,$0fe1,4
5dbd: 8f 8f 30  mov   $30,#$8f
5dc0: 8f 0c 8c  mov   $8c,#$0c
5dc3: 8c 30 8c  dec   $8c30
5dc6: 0c 8f 8f  asl   $8f8f
5dc9: 30 8f     bmi   $5d5a
5dcb: 0c 92 92  asl   $9292
5dce: 92 92     clr4  $92
5dd0: 92 92     clr4  $92
5dd2: 95 95 95  adc   a,$9595+x
5dd5: 95 95 95  adc   a,$9595+x
5dd8: 92 92     clr4  $92
5dda: 92 92     clr4  $92
5ddc: 92 92     clr4  $92
5dde: 95 95 95  adc   a,$9595+x
5de1: 95 95 95  adc   a,$9595+x
5de4: ed        notc
5de5: be        das   a
5de6: ee        pop   y
5de7: 48 ed     eor   a,#$ed
5de9: 98 98 98  adc   $98,#$98
5dec: 98 98 98  adc   $98,#$98
5def: ed        notc
5df0: be        das   a
5df1: e1        tcall 14
5df2: 0f        brk
5df3: 9b e1     dec   $e1+x
5df5: 05 8f e1  or    a,$e18f
5df8: 0f        brk
5df9: 8f e1 08  mov   $08,#$e1
5dfc: 9e        div   ya,x
5dfd: e1        tcall 14
5dfe: 0c 92 e1  asl   $e192
5e01: 04 a1     or    a,$a1
5e03: e1        tcall 14
5e04: 11        tcall 1
5e05: 95 e1 03  adc   a,$03e1+x
5e08: 95 ed f2  adc   a,$f2ed+x
5e0b: ee        pop   y
5e0c: 78 ab e1  cmp   $e1,#$ab
5e0f: 14 e2     or    a,$e2+x
5e11: f0 0a     beq   $5e1d
5e13: ef        sleep
5e14: 91        tcall 9
5e15: 60        clrc
5e16: 02 ed     set0  $ed
5e18: ab ee     inc   $ee
5e1a: 78 e4 e1  cmp   $e1,#$e4
5e1d: 0a e2 f0  or1   c,$1e1c,2
5e20: 00        nop
5e21: 98 8c 8c  adc   $8c,#$8c
5e24: 98 8c 8c  adc   $8c,#$8c
5e27: 99        adc   (x),(y)
5e28: 8d 96     mov   y,#$96
5e2a: 8a 98 8c  eor1  c,$1193,0
5e2d: 8c 98 8c  dec   $8c98
5e30: 8c 99 8d  dec   $8d99
5e33: 96 8a 00  adc   a,$008a+y
5e36: e0        clrv
5e37: 19        or    (x),(y)
5e38: f4 1e     mov   a,$1e+x
5e3a: ea 00 ed  not1  $1da0,0
5e3d: c7 e1     mov   ($e1+x),a
5e3f: 0a 48 7f  or1   c,$0fe9,0
5e42: 8f 8c 8f  mov   $8f,#$8c
5e45: 92 95     clr4  $95
5e47: 92 95     clr4  $95
5e49: 98 ed d1  adc   $d1,#$ed
5e4c: ee        pop   y
5e4d: 48 dc     eor   a,#$dc
5e4f: 24 8f     and   a,$8f
5e51: 18 92 24  or    $24,#$92
5e54: 95 ed f2  adc   a,$f2ed+x
5e57: ee        pop   y
5e58: 78 ab e1  cmp   $e1,#$ab
5e5b: 03 e2 f0  bbs0  $e2,$5e4d
5e5e: 0a 0c 98  or1   c,$1301,4
5e61: 8c 8c 98  dec   $988c
5e64: 8c 8c 99  dec   $998c
5e67: 8d 96     mov   y,#$96
5e69: 8a 98 8c  eor1  c,$1193,0
5e6c: 8c 98 8c  dec   $8c98
5e6f: 8c 99 8d  dec   $8d99
5e72: 96 8a ed  adc   a,$ed8a+y
5e75: ab ee     inc   $ee
5e77: 78 e4 e1  cmp   $e1,#$e4
5e7a: 0a e2 f0  or1   c,$1e1c,2
5e7d: 11        tcall 1
5e7e: 98 8c 8c  adc   $8c,#$8c
5e81: 98 8c 8c  adc   $8c,#$8c
5e84: 99        adc   (x),(y)
5e85: 8d 96     mov   y,#$96
5e87: 8a 98 8c  eor1  c,$1193,0
5e8a: 8c 98 8c  dec   $8c98
5e8d: 8c 99 8d  dec   $8d99
5e90: 96 8a e0  adc   a,$e08a+y
5e93: 1d        dec   x
5e94: f4 3c     mov   a,$3c+x
5e96: ed        notc
5e97: 7b e1     ror   $e1+x
5e99: 0a 30 7f  or1   c,$0fe6,0
5e9c: ae        pop   a
5e9d: 08 ad     or    a,#$ad
5e9f: ae        pop   a
5ea0: ad 30     cmp   y,#$30
5ea2: aa 18 ad  mov1  c,$15a3,0
5ea5: 30 ae     bmi   $5e55
5ea7: 08 ad     or    a,#$ad
5ea9: ae        pop   a
5eaa: ad 30     cmp   y,#$30
5eac: aa 18 ad  mov1  c,$15a3,0
5eaf: 30 b1     bmi   $5e62
5eb1: 08 b0     or    a,#$b0
5eb3: b1        tcall 11
5eb4: b0 ed     bcs   $5ea3
5eb6: 7b ee     ror   $ee+x
5eb8: d8 b4     mov   $b4,x
5eba: 30 ad     bmi   $5e69
5ebc: 18 b0 30  or    $30,#$b0
5ebf: b3 08 b2  bbc5  $08,$5e73
5ec2: b3 b2 30  bbc5  $b2,$5ef4
5ec5: b6 08 b5  sbc   a,$b508+y
5ec8: b6 b5 ed  sbc   a,$edb5+y
5ecb: b4 ee     sbc   a,$ee+x
5ecd: 60        clrc
5ece: eb 0c     mov   y,$0c
5ed0: b3 b2 b6  bbc5  $b2,$5e88
5ed3: b5 b3 b2  sbc   a,$b2b3+x
5ed6: b6 b5 48  sbc   a,$48b5+y
5ed9: c9 e0 1c  mov   $1ce0,x
5edc: f4 3c     mov   a,$3c+x
5ede: ed        notc
5edf: e4 18     mov   a,$18
5ee1: 5d        mov   x,a
5ee2: a5 a2 ed  sbc   a,$eda2
5ee5: ab 18     inc   $18
5ee7: 5f a4 0c  jmp   $0ca4
5eea: c9 18 59  mov   $5918,x
5eed: a4 0c     sbc   a,$0c
5eef: c9 18 5d  mov   $5d18,x
5ef2: a5 a2 e1  sbc   a,$e1a2
5ef5: 0a e2 78  or1   c,$0f1c,2
5ef8: 10 ed     bpl   $5ee7
5efa: 88 ee     adc   a,#$ee
5efc: a0        ei
5efd: c7 18     mov   ($18+x),a
5eff: 5f a4 0c  jmp   $0ca4
5f02: c9 18 59  mov   $5918,x
5f05: a4 0c     sbc   a,$0c
5f07: c9 18 5d  mov   $5d18,x
5f0a: a5 a2 18  sbc   a,$18a2
5f0d: 5f a4 0c  jmp   $0ca4
5f10: c9 18 59  mov   $5918,x
5f13: a4 0c     sbc   a,$0c
5f15: c9 18 5d  mov   $5d18,x
5f18: a5 a2 e0  sbc   a,$e0a2
5f1b: 1b f4     asl   $f4+x
5f1d: 3c        rol   a
5f1e: ed        notc
5f1f: a1        tcall 10
5f20: e1        tcall 14
5f21: 0a 48 7f  or1   c,$0fe9,0
5f24: 86        adc   a,(x)
5f25: 89 8c 8f  adc   ($8f),($8c)
5f28: 89 ed 98  adc   ($98),($ed)
5f2b: ee        pop   y
5f2c: d8 b4     mov   $b4,x
5f2e: 8c 8f 92  dec   $928f
5f31: ed        notc
5f32: b4 ee     sbc   a,$ee+x
5f34: 60        clrc
5f35: dc        dec   y
5f36: 24 95     and   a,$95
5f38: 18 98 24  or    $24,#$98
5f3b: 9b e0     dec   $e0+x
5f3d: 1a f4     decw  $f4
5f3f: 3c        rol   a
5f40: ed        notc
5f41: e4 e1     mov   a,$e1
5f43: 0a 18 5f  or1   c,$0be3,0
5f46: 85 0c c9  adc   a,$c90c
5f49: 18 3d 85  or    $85,#$3d
5f4c: 0c c9 18  asl   $18c9
5f4f: 5f 86 83  jmp   $8386
5f52: ed        notc
5f53: ab 85     inc   $85
5f55: 0c c9 18  asl   $18c9
5f58: 3d        inc   x
5f59: 85 0c c9  adc   a,$c90c
5f5c: 18 5f 86  or    $86,#$5f
5f5f: 83 e1 0a  bbs4  $e1,$5f6b
5f62: e2 78     set7  $78
5f64: 04 ed     or    a,$ed
5f66: 8e        pop   psw
5f67: ee        pop   y
5f68: a0        ei
5f69: da 85     movw  $85,ya
5f6b: 0c c9 18  asl   $18c9
5f6e: 3d        inc   x
5f6f: 85 0c c9  adc   a,$c90c
5f72: 18 5f 86  or    $86,#$5f
5f75: 83 85 0c  bbs4  $85,$5f83
5f78: c9 18 3d  mov   $3d18,x
5f7b: 85 0c c9  adc   a,$c90c
5f7e: 18 5f 86  or    $86,#$5f
5f81: 83 e0 18  bbs4  $e0,$5f9b
5f84: f4 00     mov   a,$00+x
5f86: e1        tcall 14
5f87: 0a 48 c9  or1   c,$1929,0
5f8a: ef        sleep
5f8b: 9c        dec   a
5f8c: 60        clrc
5f8d: 07 60     or    a,($60+x)
5f8f: c9 ed fa  mov   $faed,x
5f92: ee        pop   y
5f93: 3c        rol   a
5f94: 77 0c     cmp   a,($0c)+y
5f96: 7f        reti
5f97: a3 a3 a3  bbs5  $a3,$5f3c
5f9a: a3 a3 a3  bbs5  $a3,$5f3f
5f9d: a3 a3 a3  bbs5  $a3,$5f42
5fa0: a3 0c 4f  bbs5  $0c,$5ff1
5fa3: a3 a3 a3  bbs5  $a3,$5f48
5fa6: a3 a3 a3  bbs5  $a3,$5f4b
5fa9: a3 a3 a3  bbs5  $a3,$5f4e
5fac: a3 ed 78  bbs5  $ed,$6026
5faf: ee        pop   y
5fb0: 78 be a3  cmp   $a3,#$be
5fb3: a3 a3 a3  bbs5  $a3,$5f58
5fb6: a3 a3 a3  bbs5  $a3,$5f5b
5fb9: a3 a3 a3  bbs5  $a3,$5f5e
5fbc: ed        notc
5fbd: be        das   a
5fbe: ee        pop   y
5fbf: 78 ed a3  cmp   $a3,#$ed
5fc2: a3 a3 a3  bbs5  $a3,$5f67
5fc5: a3 a3 a3  bbs5  $a3,$5f6a
5fc8: a3 a3 a3  bbs5  $a3,$5f6d
5fcb: e0        clrv
5fcc: 1b f4     asl   $f4+x
5fce: 3c        rol   a
5fcf: ed        notc
5fd0: a1        tcall 10
5fd1: e1        tcall 14
5fd2: 0a 48 7f  or1   c,$0fe9,0
5fd5: 8c 8f 92  dec   $928f
5fd8: 95 8f ed  adc   a,$ed8f+x
5fdb: 8e        pop   psw
5fdc: ee        pop   y
5fdd: d8 b4     mov   $b4,x
5fdf: 92 95     clr4  $95
5fe1: 98 ed b4  adc   $b4,#$ed
5fe4: ee        pop   y
5fe5: 60        clrc
5fe6: f2 24     clr7  $24
5fe8: 9b 18     dec   $18+x
5fea: 9e        div   ya,x
5feb: 24 a1     and   a,$a1
5fed: e0        clrv
5fee: 1a f4     decw  $f4
5ff0: 3c        rol   a
5ff1: ed        notc
5ff2: da e1     movw  $e1,ya
5ff4: 0a 18 5f  or1   c,$0be3,0
5ff7: 8a 0c c9  eor1  c,$1921,4
5ffa: 18 3d 8a  or    $8a,#$3d
5ffd: 0c c9 18  asl   $18c9
6000: 5f 8b 88  jmp   $888b
6003: ed        notc
6004: ab 8a     inc   $8a
6006: 0c c9 18  asl   $18c9
6009: 3d        inc   x
600a: 8a 0c c9  eor1  c,$1921,4
600d: 18 5f 8b  or    $8b,#$5f
6010: 88 ed     adc   a,#$ed
6012: 8e        pop   psw
6013: ee        pop   y
6014: a0        ei
6015: 12 8a     clr0  $8a
6017: 0c c9 18  asl   $18c9
601a: 3d        inc   x
601b: 8a 0c c9  eor1  c,$1921,4
601e: 18 5f 8b  or    $8b,#$5f
6021: 88 8a     adc   a,#$8a
6023: 0c c9 18  asl   $18c9
6026: 3d        inc   x
6027: 8a 0c c9  eor1  c,$1921,4
602a: 18 5f 8b  or    $8b,#$5f
602d: 88 fa     adc   a,#$fa
602f: 26        and   a,(x)
6030: e5 be e7  mov   a,$e7be
6033: 2f e0     bra   $6015
6035: 19        or    (x),(y)
6036: f4 1e     mov   a,$1e+x
6038: f5 0f 46  mov   a,$460f+x
603b: 32 f7     clr1  $f7
603d: 02 46     set0  $46
603f: 00        nop
6040: ed        notc
6041: 95 e1 11  adc   a,$11e1+x
6044: 0c c9 00  asl   $00c9
6047: e0        clrv
6048: 19        or    (x),(y)
6049: f4 1e     mov   a,$1e+x
604b: ed        notc
604c: 95 e1 03  adc   a,$03e1+x
604f: 0c c9 e0  asl   $e0c9
6052: 1c        asl   a
6053: f4 3c     mov   a,$3c+x
6055: ed        notc
6056: 99        adc   (x),(y)
6057: e1        tcall 14
6058: 0a 0c c9  or1   c,$1921,4
605b: e0        clrv
605c: 1a f4     decw  $f4
605e: 3c        rol   a
605f: ed        notc
6060: c4 e1     mov   $e1,a
6062: 0a 0c c9  or1   c,$1921,4
6065: e0        clrv
6066: 18 f4 00  or    $00,#$f4
6069: ed        notc
606a: 77 e1     cmp   a,($e1)+y
606c: 0a 0c c9  or1   c,$1921,4
606f: e0        clrv
6070: 1a f4     decw  $f4
6072: 3c        rol   a
6073: ed        notc
6074: da e1     movw  $e1,ya
6076: 0a 0c c9  or1   c,$1921,4
6079: e0        clrv
607a: 1b f4     asl   $f4+x
607c: 3c        rol   a
607d: ed        notc
607e: b4 e1     sbc   a,$e1+x
6080: 0a 0c c9  or1   c,$1921,4
6083: 00        nop
6084: e7 2f     mov   a,($2f+x)
6086: e5 be f5  mov   a,$f5be
6089: 0f        brk
608a: 46        eor   a,(x)
608b: 32 f7     clr1  $f7
608d: 02 46     set0  $46
608f: 00        nop
6090: 00        nop
6091: 98 8c 8c  adc   $8c,#$8c
6094: 98 8c 8c  adc   $8c,#$8c
6097: 99        adc   (x),(y)
6098: 8d 96     mov   y,#$96
609a: 8a 00 c9  eor1  c,$1920,0
609d: 00        nop
609e: ac 60 ac  inc   $ac60
60a1: 60        clrc
60a2: bc        inc   a
60a3: 60        clrc
60a4: bc        inc   a
60a5: 60        clrc
60a6: ff        stop
60a7: 00        nop
60a8: 9e        div   ya,x
60a9: 60        clrc
60aa: 00        nop
60ab: 00        nop
60ac: cc 60 d6  mov   $d660,y
60af: 60        clrc
60b0: e2 60     set7  $60
60b2: e6        mov   a,(x)
60b3: 60        clrc
60b4: ed        notc
60b5: 60        clrc
60b6: 00        nop
60b7: 00        nop
60b8: 00        nop
60b9: 00        nop
60ba: 00        nop
60bb: 00        nop
60bc: f9 60     mov   x,$60+y
60be: 01        tcall 0
60bf: 61        tcall 6
60c0: 0d        push  psw
60c1: 61        tcall 6
60c2: 11        tcall 1
60c3: 61        tcall 6
60c4: 18 61 24  or    $24,#$61
60c7: 61        tcall 6
60c8: 00        nop
60c9: 00        nop
60ca: 00        nop
60cb: 00        nop
60cc: fa 26 ef  mov   ($ef),($26)
60cf: 31        tcall 3
60d0: 61        tcall 6
60d1: 01        tcall 0
60d2: c8 9a     cmp   x,#$9a
60d4: c8 00     cmp   x,#$00
60d6: e0        clrv
60d7: 1c        asl   a
60d8: ea f4 f4  not1  $1e9e,4
60db: 32 e1     clr1  $e1
60dd: 0a ef 4b  or1   c,$097d,7
60e0: 61        tcall 6
60e1: 01        tcall 0
60e2: ef        sleep
60e3: 66        cmp   a,(x)
60e4: 61        tcall 6
60e5: 01        tcall 0
60e6: ef        sleep
60e7: 92 61     clr4  $61
60e9: 01        tcall 0
60ea: c8 9a     cmp   x,#$9a
60ec: c8 e0     cmp   x,#$e0
60ee: 1c        asl   a
60ef: ea ee f4  not1  $1e9d,6
60f2: 32 e1     clr1  $e1
60f4: 0a ef a0  or1   c,$141d,7
60f7: 61        tcall 6
60f8: 01        tcall 0
60f9: ef        sleep
60fa: 31        tcall 3
60fb: 61        tcall 6
60fc: 01        tcall 0
60fd: c8 9a     cmp   x,#$9a
60ff: c8 00     cmp   x,#$00
6101: e0        clrv
6102: 1c        asl   a
6103: ea f0 f4  not1  $1e9e,0
6106: 32 e1     clr1  $e1
6108: 0a ef a0  or1   c,$141d,7
610b: 61        tcall 6
610c: 01        tcall 0
610d: ef        sleep
610e: 66        cmp   a,(x)
610f: 61        tcall 6
6110: 01        tcall 0
6111: ef        sleep
6112: 92 61     clr4  $61
6114: 01        tcall 0
6115: c8 9a     cmp   x,#$9a
6117: c8 e0     cmp   x,#$e0
6119: 1c        asl   a
611a: ea 00 f4  not1  $1e80,0
611d: 32 e1     clr1  $e1
611f: 0a ef 4b  or1   c,$097d,7
6122: 61        tcall 6
6123: 01        tcall 0
6124: e0        clrv
6125: 1c        asl   a
6126: ea fa f4  not1  $1e9f,2
6129: 32 e1     clr1  $e1
612b: 0a ef 4b  or1   c,$097d,7
612e: 61        tcall 6
612f: 01        tcall 0
6130: 00        nop
6131: e7 19     mov   a,($19+x)
6133: e5 c8 f5  mov   a,$f5c8
6136: 01        tcall 0
6137: 0a 0a f7  or1   c,$1ee1,2
613a: 02 0a     set0  $0a
613c: 00        nop
613d: e0        clrv
613e: 1c        asl   a
613f: ea f4 f4  not1  $1e9e,4
6142: 32 e1     clr1  $e1
6144: 0a ed e6  or1   c,$1cdd,5
6147: 60        clrc
6148: 7f        reti
6149: 99        adc   (x),(y)
614a: 00        nop
614b: ed        notc
614c: 46        eor   a,(x)
614d: ee        pop   y
614e: 60        clrc
614f: aa 60 7f  mov1  c,$0fec,0
6152: b5 ed aa  sbc   a,$aaed+x
6155: ee        pop   y
6156: 18 46 c8  or    $c8,#$46
6159: ed        notc
615a: 46        eor   a,(x)
615b: ee        pop   y
615c: 60        clrc
615d: aa b6 ed  mov1  c,$1db6,6
6160: aa ee 18  mov1  c,$031d,6
6163: 46        eor   a,(x)
6164: c8 00     cmp   x,#$00
6166: e0        clrv
6167: 1e f4 46  cmp   x,$46f4
616a: ea fa e1  not1  $1c3f,2
616d: 0a ed 96  or1   c,$12dd,5
6170: ee        pop   y
6171: 60        clrc
6172: d2 0c     clr6  $0c
6174: 7f        reti
6175: 93 94 95  bbc4  $94,$610c
6178: 93 94 95  bbc4  $94,$610f
617b: 93 06 94  bbc4  $06,$6111
617e: 94 60     adc   a,$60+x
6180: c9 ed 96  mov   $96ed,x
6183: ee        pop   y
6184: 28 d2     and   a,#$d2
6186: 0c 94 95  asl   $9594
6189: 96 06 94  adc   a,$9406+y
618c: 94 30     adc   a,$30+x
618e: c9 60 c9  mov   $c960,x
6191: 00        nop
6192: e0        clrv
6193: 1c        asl   a
6194: ea fb f4  not1  $1e9f,3
6197: 32 e1     clr1  $e1
6199: 0a ed d2  or1   c,$1a5d,5
619c: 60        clrc
619d: 7f        reti
619e: 99        adc   (x),(y)
619f: 00        nop
61a0: ed        notc
61a1: 46        eor   a,(x)
61a2: ee        pop   y
61a3: 60        clrc
61a4: c8 60     cmp   x,#$60
61a6: 7f        reti
61a7: b5 ed c8  sbc   a,$c8ed+x
61aa: ee        pop   y
61ab: 18 46 c8  or    $c8,#$46
61ae: ed        notc
61af: 46        eor   a,(x)
61b0: ee        pop   y
61b1: 60        clrc
61b2: c8 b6     cmp   x,#$b6
61b4: ed        notc
61b5: c8 ee     cmp   x,#$ee
61b7: 18 46 c8  or    $c8,#$46
61ba: 00        nop
61bb: fb 61     mov   y,$61+x
61bd: cb 61     mov   $61,y
61bf: db 61     mov   $61+x,y
61c1: fb 61     mov   y,$61+x
61c3: eb 61     mov   y,$61
61c5: ff        stop
61c6: 00        nop
61c7: bb 61     inc   $61+x
61c9: 00        nop
61ca: 00        nop
61cb: 0b 62     asl   $62
61cd: 1b 62     asl   $62+x
61cf: 4c 62 6b  lsr   $6b62
61d2: 62 9f     set3  $9f
61d4: 62 c1     set3  $c1
61d6: 62 00     set3  $00
61d8: 00        nop
61d9: 00        nop
61da: 00        nop
61db: d6 62 ea  mov   $ea62+y,a
61de: 62 31     set3  $31
61e0: 63 43 63  bbs3  $43,$6245
61e3: 87 63     adc   a,($63+x)
61e5: ce        pop   x
61e6: 63 00 00  bbs3  $00,$61e8
61e9: 00        nop
61ea: 00        nop
61eb: 15 64 30  or    a,$3064+x
61ee: 64 9a     cmp   a,$9a
61f0: 64 b6     cmp   a,$b6
61f2: 64 0e     cmp   a,$0e
61f4: 65 6a 65  cmp   a,$656a
61f7: 00        nop
61f8: 00        nop
61f9: 00        nop
61fa: 00        nop
61fb: 96 65 b9  adc   a,$b965+y
61fe: 65 d1 65  cmp   a,$65d1
6201: f0 65     beq   $6268
6203: 08 66     or    a,#$66
6205: 49 66 00  eor   ($00),($66)
6208: 00        nop
6209: 00        nop
620a: 00        nop
620b: ef        sleep
620c: 58 66 01  eor   $01,#$66
620f: ef        sleep
6210: 6b 66     ror   $66
6212: 01        tcall 0
6213: e1        tcall 14
6214: 0e e2 1e  tset1 $1ee2
6217: 0c 23 bc  asl   $bc23
621a: 00        nop
621b: e0        clrv
621c: 19        or    (x),(y)
621d: f4 1e     mov   a,$1e+x
621f: ea 00 ed  not1  $1da0,0
6222: 8c e1 0c  dec   $0ce1
6225: 0c 7f 93  asl   $937f
6228: 87 87     adc   a,($87+x)
622a: 87 87     adc   a,($87+x)
622c: 87 87     adc   a,($87+x)
622e: 87 94     adc   a,($94+x)
6230: 88 88     adc   a,#$88
6232: 88 88     adc   a,#$88
6234: 88 88     adc   a,#$88
6236: 88 ed     adc   a,#$ed
6238: a0        ei
6239: 89 89 89  adc   ($89),($89)
623c: 89 89 89  adc   ($89),($89)
623f: 89 89 ed  adc   ($ed),($89)
6242: 82 ee     set4  $ee
6244: 48 a0     eor   a,#$a0
6246: 96 8a 8a  adc   a,$8a8a+y
6249: 97 8b     adc   a,($8b)+y
624b: 8b e0     dec   $e0
624d: 1e f4 00  cmp   x,$00f4
6250: ea 01 ed  not1  $1da0,1
6253: b4 e1     sbc   a,$e1+x
6255: 06        or    a,(x)
6256: e2 a0     set7  $a0
6258: 0e 50 7f  tset1 $7f50
625b: bc        inc   a
625c: bc        inc   a
625d: e1        tcall 14
625e: 0e e2 a0  tset1 $a0e2
6261: 06        or    a,(x)
6262: bc        inc   a
6263: bc        inc   a
6264: e1        tcall 14
6265: 06        or    a,(x)
6266: e2 1e     set7  $1e
6268: 08 28     or    a,#$28
626a: bc        inc   a
626b: e0        clrv
626c: 19        or    (x),(y)
626d: f4 1e     mov   a,$1e+x
626f: ea 00 ed  not1  $1da0,0
6272: b4 e1     sbc   a,$e1+x
6274: 08 06     or    a,#$06
6276: c9 0c 7f  mov   $7f0c,x
6279: 93 87 87  bbc4  $87,$6202
627c: 87 87     adc   a,($87+x)
627e: 87 87     adc   a,($87+x)
6280: 87 94     adc   a,($94+x)
6282: 88 88     adc   a,#$88
6284: 88 88     adc   a,#$88
6286: 88 88     adc   a,#$88
6288: 88 ed     adc   a,#$ed
628a: b4 ee     sbc   a,$ee+x
628c: 60        clrc
628d: 82 95     set4  $95
628f: 89 89 89  adc   ($89),($89)
6292: 89 89 89  adc   ($89),($89)
6295: 89 ed 96  adc   ($96),($ed)
6298: 96 8a 8a  adc   a,$8a8a+y
629b: 97 8b     adc   a,($8b)+y
629d: 06        or    a,(x)
629e: 8b e0     dec   $e0
62a0: 1b f4     asl   $f4+x
62a2: 3c        rol   a
62a3: ed        notc
62a4: f0 e1     beq   $6287
62a6: 0a 04 c9  or1   c,$1920,4
62a9: 0c 7f 92  asl   $927f
62ac: 8c 8f 3c  dec   $3c8f
62af: 87 0c     adc   a,($0c+x)
62b1: 88 8a     adc   a,#$8a
62b3: 8c 3c 93  dec   $933c
62b6: 0c 92 8e  asl   $8e92
62b9: 48 95     eor   a,#$95
62bb: ed        notc
62bc: c8 24     cmp   x,#$24
62be: 96 20 97  adc   a,$9720+y
62c1: e0        clrv
62c2: 1b f4     asl   $f4+x
62c4: 3c        rol   a
62c5: ed        notc
62c6: 8c e1 0a  dec   $0ae1
62c9: 60        clrc
62ca: 7f        reti
62cb: 8c 8d ed  dec   $ed8d
62ce: 82 ee     set4  $ee
62d0: 60        clrc
62d1: aa 8e 24  mov1  c,$0491,6
62d4: 8f 90 ef  mov   $ef,#$90
62d7: 58 66 01  eor   $01,#$66
62da: ed        notc
62db: b4 e1     sbc   a,$e1+x
62dd: 05 05 c9  or    a,$c905
62e0: 50 7f     bvc   $6361
62e2: bc        inc   a
62e3: bc        inc   a
62e4: bc        inc   a
62e5: bc        inc   a
62e6: bc        inc   a
62e7: 4b bc     lsr   $bc
62e9: 00        nop
62ea: e0        clrv
62eb: 19        or    (x),(y)
62ec: f4 1e     mov   a,$1e+x
62ee: ea 00 ed  not1  $1da0,0
62f1: d2 ee     clr6  $ee
62f3: 78 8c e1  cmp   $e1,#$8c
62f6: 11        tcall 1
62f7: e2 f0     set7  $f0
62f9: 0a 06 c9  or1   c,$1920,6
62fc: 0c 7f 9b  asl   $9b7f
62ff: 8f 8f 9b  mov   $9b,#$8f
6302: 8f 8f 9c  mov   $9c,#$8f
6305: 90 99     bcc   $62a0
6307: 8d 9b     mov   y,#$9b
6309: 8f 8f 9b  mov   $9b,#$8f
630c: 8f 8f 9c  mov   $9c,#$8f
630f: 90 99     bcc   $62aa
6311: 8d ed     mov   y,#$ed
6313: 8c ee 78  dec   $78ee
6316: d2 e1     clr6  $e1
6318: 0a e2 f0  or1   c,$1e1c,2
631b: 03 9b 8f  bbs0  $9b,$62ac
631e: 8f 9b 8f  mov   $8f,#$9b
6321: 8f 9c 90  mov   $90,#$9c
6324: 99        adc   (x),(y)
6325: 8d 9b     mov   y,#$9b
6327: 8f 8f 9b  mov   $9b,#$8f
632a: 8f 8f 9c  mov   $9c,#$8f
632d: 90 99     bcc   $62c8
632f: 06        or    a,(x)
6330: 8d e0     mov   y,#$e0
6332: 1e f4 00  cmp   x,$00f4
6335: ea 01 ed  not1  $1da0,1
6338: b4 e1     sbc   a,$e1+x
633a: 0f        brk
633b: 50 7f     bvc   $63bc
633d: bc        inc   a
633e: bc        inc   a
633f: bc        inc   a
6340: bc        inc   a
6341: bc        inc   a
6342: bc        inc   a
6343: e0        clrv
6344: 19        or    (x),(y)
6345: f4 1e     mov   a,$1e+x
6347: ea 00 ed  not1  $1da0,0
634a: d2 ee     clr6  $ee
634c: 78 8c e1  cmp   $e1,#$8c
634f: 03 e2 f0  bbs0  $e2,$6341
6352: 0a 0c 7f  or1   c,$0fe1,4
6355: 9b 8f     dec   $8f+x
6357: 8f 9b 8f  mov   $8f,#$9b
635a: 8f 9c 90  mov   $90,#$9c
635d: 99        adc   (x),(y)
635e: 8d 9b     mov   y,#$9b
6360: 8f 8f 9b  mov   $9b,#$8f
6363: 8f 8f 9c  mov   $9c,#$8f
6366: 90 99     bcc   $6301
6368: 8d ed     mov   y,#$ed
636a: 8c ee 78  dec   $78ee
636d: d2 e1     clr6  $e1
636f: 0a e2 f0  or1   c,$1e1c,2
6372: 11        tcall 1
6373: 9b 8f     dec   $8f+x
6375: 8f 9b 8f  mov   $8f,#$9b
6378: 8f 9c 90  mov   $90,#$9c
637b: 99        adc   (x),(y)
637c: 8d 9b     mov   y,#$9b
637e: 8f 8f 9b  mov   $9b,#$8f
6381: 8f 8f 9c  mov   $9c,#$8f
6384: 90 99     bcc   $631f
6386: 8d e0     mov   y,#$e0
6388: 1c        asl   a
6389: f4 3c     mov   a,$3c+x
638b: ed        notc
638c: be        das   a
638d: e1        tcall 14
638e: 0a 18 5f  or1   c,$0be3,0
6391: a7 0c     sbc   a,($0c+x)
6393: c9 18 59  mov   $5918,x
6396: a7 0c     sbc   a,($0c+x)
6398: c9 ed a0  mov   $a0ed,x
639b: 18 5d a8  or    $a8,#$5d
639e: a5 18 5f  sbc   a,$5f18
63a1: a7 0c     sbc   a,($0c+x)
63a3: c9 18 59  mov   $5918,x
63a6: a7 0c     sbc   a,($0c+x)
63a8: c9 18 5d  mov   $5d18,x
63ab: a8 a5     sbc   a,#$a5
63ad: ed        notc
63ae: a0        ei
63af: ee        pop   y
63b0: 80        setc
63b1: d1        tcall 13
63b2: 18 5f a7  or    $a7,#$5f
63b5: 0c c9 18  asl   $18c9
63b8: 59        eor   (x),(y)
63b9: a7 0c     sbc   a,($0c+x)
63bb: c9 18 5d  mov   $5d18,x
63be: a8 a5     sbc   a,#$a5
63c0: 18 5f a7  or    $a7,#$5f
63c3: 0c c9 18  asl   $18c9
63c6: 59        eor   (x),(y)
63c7: a7 0c     sbc   a,($0c+x)
63c9: c9 18 5d  mov   $5d18,x
63cc: a8 a5     sbc   a,#$a5
63ce: e0        clrv
63cf: 1b f4     asl   $f4+x
63d1: 3c        rol   a
63d2: ed        notc
63d3: be        das   a
63d4: e1        tcall 14
63d5: 0a 18 5f  or1   c,$0be3,0
63d8: 8f 0c c9  mov   $c9,#$0c
63db: 18 59 8f  or    $8f,#$59
63de: 0c c9 ed  asl   $edc9
63e1: 98 18 5d  adc   $5d,#$18
63e4: 90 8d     bcc   $6373
63e6: 18 5f 8f  or    $8f,#$5f
63e9: 0c c9 18  asl   $18c9
63ec: 59        eor   (x),(y)
63ed: 8f 0c c9  mov   $c9,#$0c
63f0: 18 5d 90  or    $90,#$5d
63f3: 8d ed     mov   y,#$ed
63f5: b4 ee     sbc   a,$ee+x
63f7: 80        setc
63f8: ed        notc
63f9: 18 5f 8f  or    $8f,#$5f
63fc: 0c c9 18  asl   $18c9
63ff: 59        eor   (x),(y)
6400: 8f 0c c9  mov   $c9,#$0c
6403: 18 5d 90  or    $90,#$5d
6406: 8d 18     mov   y,#$18
6408: 5f 8f 0c  jmp   $0c8f
640b: c9 18 59  mov   $5918,x
640e: 8f 0c c9  mov   $c9,#$0c
6411: 18 5d 90  or    $90,#$5d
6414: 8d ef     mov   y,#$ef
6416: 58 66 01  eor   $01,#$66
6419: ef        sleep
641a: 6b 66     ror   $66
641c: 01        tcall 0
641d: ef        sleep
641e: 80        setc
641f: 66        cmp   a,(x)
6420: 02 e1     set0  $e1
6422: 0e e2 a0  tset1 $a0e2
6425: 06        or    a,(x)
6426: bc        inc   a
6427: bc        inc   a
6428: e1        tcall 14
6429: 06        or    a,(x)
642a: e2 14     set7  $14
642c: 08 1b     or    a,#$1b
642e: c9 00 e0  mov   $e000,x
6431: 19        or    (x),(y)
6432: f4 1e     mov   a,$1e+x
6434: ea 00 ed  not1  $1da0,0
6437: b4 e1     sbc   a,$e1+x
6439: 0a 0c 7f  or1   c,$0fe1,4
643c: 8f 8f 30  mov   $30,#$8f
643f: 8f 0c 8c  mov   $8c,#$0c
6442: 8c 30 8c  dec   $8c30
6445: 0c 8f 8f  asl   $8f8f
6448: 30 8f     bmi   $63d9
644a: 0c 92 92  asl   $9292
644d: 92 92     clr4  $92
644f: 92 92     clr4  $92
6451: 95 95 95  adc   a,$9595+x
6454: 95 95 95  adc   a,$9595+x
6457: 92 92     clr4  $92
6459: 92 92     clr4  $92
645b: 92 92     clr4  $92
645d: 95 95 95  adc   a,$9595+x
6460: 95 95 95  adc   a,$9595+x
6463: ed        notc
6464: b4 ee     sbc   a,$ee+x
6466: 48 dc     eor   a,#$dc
6468: 98 98 98  adc   $98,#$98
646b: 98 98 98  adc   $98,#$98
646e: ed        notc
646f: b4 e1     sbc   a,$e1+x
6471: 0f        brk
6472: 9b e1     dec   $e1+x
6474: 05 8f e1  or    a,$e18f
6477: 0f        brk
6478: 8f e1 08  mov   $08,#$e1
647b: 9e        div   ya,x
647c: e1        tcall 14
647d: 0c 92 e1  asl   $e192
6480: 04 a1     or    a,$a1
6482: e1        tcall 14
6483: 11        tcall 1
6484: 95 e1 03  adc   a,$03e1+x
6487: 95 ed e6  adc   a,$e6ed+x
648a: ee        pop   y
648b: 78 a0 e1  cmp   $e1,#$a0
648e: 11        tcall 1
648f: e2 f0     set7  $f0
6491: 0a ef 8f  or1   c,$11fd,7
6494: 66        cmp   a,(x)
6495: 02 ef     set0  $ef
6497: 9a 66     subw  ya,$66
6499: 01        tcall 0
649a: e0        clrv
649b: 1e f4 00  cmp   x,$00f4
649e: ea 01 ed  not1  $1da0,1
64a1: b4 e1     sbc   a,$e1+x
64a3: 06        or    a,(x)
64a4: e2 a0     set7  $a0
64a6: 0e 50 7f  tset1 $7f50
64a9: bc        inc   a
64aa: bc        inc   a
64ab: ef        sleep
64ac: 80        setc
64ad: 66        cmp   a,(x)
64ae: 03 e1 0e  bbs0  $e1,$64be
64b1: e2 14     set7  $14
64b3: 0c 20 bc  asl   $bc20
64b6: e0        clrv
64b7: 1d        dec   x
64b8: f4 3c     mov   a,$3c+x
64ba: ed        notc
64bb: 8c e1 0a  dec   $0ae1
64be: 30 7f     bmi   $653f
64c0: ae        pop   a
64c1: 08 ad     or    a,#$ad
64c3: ae        pop   a
64c4: ad 30     cmp   y,#$30
64c6: aa 18 ad  mov1  c,$15a3,0
64c9: 30 ae     bmi   $6479
64cb: 08 ad     or    a,#$ad
64cd: ae        pop   a
64ce: ad 30     cmp   y,#$30
64d0: aa 18 ad  mov1  c,$15a3,0
64d3: 30 b1     bmi   $6486
64d5: 08 b0     or    a,#$b0
64d7: b1        tcall 11
64d8: b0 ed     bcs   $64c7
64da: 8c ee d8  dec   $d8ee
64dd: aa 30 ad  mov1  c,$15a6,0
64e0: 18 b0 30  or    $30,#$b0
64e3: b3 08 b2  bbc5  $08,$6497
64e6: b3 b2 30  bbc5  $b2,$6518
64e9: b6 08 b5  sbc   a,$b508+y
64ec: b6 b5 ed  sbc   a,$edb5+y
64ef: aa ee 60  mov1  c,$0c1d,6
64f2: dc        dec   y
64f3: 0c b3 b2  asl   $b2b3
64f6: b6 b5 b3  sbc   a,$b3b5+y
64f9: b2 b6     clr5  $b6
64fb: b5 ed e6  sbc   a,$e6ed+x
64fe: ee        pop   y
64ff: 78 a0 e1  cmp   $e1,#$a0
6502: 03 e2 f0  bbs0  $e2,$64f4
6505: 0a ef 8f  or1   c,$11fd,7
6508: 66        cmp   a,(x)
6509: 02 ef     set0  $ef
650b: b9        sbc   (x),(y)
650c: 66        cmp   a,(x)
650d: 01        tcall 0
650e: e0        clrv
650f: 19        or    (x),(y)
6510: f4 1e     mov   a,$1e+x
6512: ea 00 ed  not1  $1da0,0
6515: b4 e1     sbc   a,$e1+x
6517: 0a 48 7f  or1   c,$0fe9,0
651a: 8f 8c 8f  mov   $8f,#$8c
651d: 92 95     clr4  $95
651f: 92 95     clr4  $95
6521: 98 ed be  adc   $be,#$ed
6524: ee        pop   y
6525: 48 d2     eor   a,#$d2
6527: 24 8f     and   a,$8f
6529: 18 92 24  or    $24,#$92
652c: 95 48 c9  adc   a,$c948+x
652f: e0        clrv
6530: 1c        asl   a
6531: f4 3c     mov   a,$3c+x
6533: ed        notc
6534: dc        dec   y
6535: 18 5d a5  or    $a5,#$5d
6538: a2 ed     set5  $ed
653a: aa 18 5f  mov1  c,$0be3,0
653d: a4 0c     sbc   a,$0c
653f: c9 18 59  mov   $5918,x
6542: a4 0c     sbc   a,$0c
6544: c9 18 5d  mov   $5d18,x
6547: a5 a2 ed  sbc   a,$eda2
654a: 82 ee     set4  $ee
654c: a0        ei
654d: c8 18     cmp   x,#$18
654f: 5f a4 0c  jmp   $0ca4
6552: c9 18 59  mov   $5918,x
6555: a4 0c     sbc   a,$0c
6557: c9 18 5d  mov   $5d18,x
655a: a5 a2 18  sbc   a,$18a2
655d: 5f a4 0c  jmp   $0ca4
6560: c9 18 59  mov   $5918,x
6563: a4 0c     sbc   a,$0c
6565: c9 18 5d  mov   $5d18,x
6568: a5 a2 e0  sbc   a,$e0a2
656b: 1b f4     asl   $f4+x
656d: 3c        rol   a
656e: ed        notc
656f: a1        tcall 10
6570: e1        tcall 14
6571: 0a 48 7f  or1   c,$0fe9,0
6574: 86        adc   a,(x)
6575: 89 8c 8f  adc   ($8f),($8c)
6578: 89 ed 98  adc   ($98),($ed)
657b: ee        pop   y
657c: d8 b4     mov   $b4,x
657e: 8c 8f 92  dec   $928f
6581: ed        notc
6582: b4 ee     sbc   a,$ee+x
6584: 60        clrc
6585: dc        dec   y
6586: 24 95     and   a,$95
6588: 18 98 24  or    $24,#$98
658b: 9b e0     dec   $e0+x
658d: 1a f4     decw  $f4
658f: 3c        rol   a
6590: ed        notc
6591: e4 ef     mov   a,$ef
6593: d8 66     mov   $66,x
6595: 01        tcall 0
6596: fa 26 ef  mov   ($ef),($26)
6599: 58 66 01  eor   $01,#$66
659c: ed        notc
659d: b4 05     sbc   a,$05+x
659f: c9 e1 06  mov   $06e1,x
65a2: e2 a0     set7  $a0
65a4: 0e 50 7f  tset1 $7f50
65a7: bc        inc   a
65a8: bc        inc   a
65a9: e1        tcall 14
65aa: 0e e2 a0  tset1 $a0e2
65ad: 06        or    a,(x)
65ae: bc        inc   a
65af: bc        inc   a
65b0: e1        tcall 14
65b1: 06        or    a,(x)
65b2: e2 50     set7  $50
65b4: 0e bc 4b  tset1 $4bbc
65b7: bc        inc   a
65b8: 00        nop
65b9: e0        clrv
65ba: 19        or    (x),(y)
65bb: f4 00     mov   a,$00+x
65bd: ea 00 ed  not1  $1da0,0
65c0: e6        mov   a,(x)
65c1: ee        pop   y
65c2: 78 a0 e1  cmp   $e1,#$a0
65c5: 11        tcall 1
65c6: e2 f0     set7  $f0
65c8: 0a ef 12  or1   c,$025d,7
65cb: 67 01     cmp   a,($01+x)
65cd: ef        sleep
65ce: 9a 66     subw  ya,$66
65d0: 01        tcall 0
65d1: e0        clrv
65d2: 1e f4 00  cmp   x,$00f4
65d5: ea 01 ed  not1  $1da0,1
65d8: b4 e1     sbc   a,$e1+x
65da: 0e e2 a0  tset1 $a0e2
65dd: 06        or    a,(x)
65de: 50 7f     bvc   $665f
65e0: bc        inc   a
65e1: bc        inc   a
65e2: e1        tcall 14
65e3: 06        or    a,(x)
65e4: e2 a0     set7  $a0
65e6: 0e bc bc  tset1 $bcbc
65e9: e1        tcall 14
65ea: 0e e2 a0  tset1 $a0e2
65ed: 06        or    a,(x)
65ee: bc        inc   a
65ef: bc        inc   a
65f0: e0        clrv
65f1: 1d        dec   x
65f2: f4 3c     mov   a,$3c+x
65f4: ea 00 ed  not1  $1da0,0
65f7: e6        mov   a,(x)
65f8: ee        pop   y
65f9: 78 a0 e1  cmp   $e1,#$a0
65fc: 03 e2 f0  bbs0  $e2,$65ee
65ff: 0a ef 12  or1   c,$025d,7
6602: 67 01     cmp   a,($01+x)
6604: ef        sleep
6605: b9        sbc   (x),(y)
6606: 66        cmp   a,(x)
6607: 01        tcall 0
6608: e0        clrv
6609: 1c        asl   a
660a: f4 3c     mov   a,$3c+x
660c: ed        notc
660d: d2 ea     clr6  $ea
660f: 00        nop
6610: e1        tcall 14
6611: 0a 48 c9  or1   c,$1929,0
6614: 18 5d a5  or    $a5,#$5d
6617: a2 ed     set5  $ed
6619: a0        ei
661a: 18 5f a4  or    $a4,#$5f
661d: 0c c9 18  asl   $18c9
6620: 59        eor   (x),(y)
6621: a4 0c     sbc   a,$0c
6623: c9 18 5d  mov   $5d18,x
6626: a5 a2 ed  sbc   a,$eda2
6629: 78 ee a0  cmp   $a0,#$ee
662c: b4 18     sbc   a,$18+x
662e: 5f a4 0c  jmp   $0ca4
6631: c9 18 59  mov   $5918,x
6634: a4 0c     sbc   a,$0c
6636: c9 18 5d  mov   $5d18,x
6639: a5 a2 18  sbc   a,$18a2
663c: 5f a4 0c  jmp   $0ca4
663f: c9 18 59  mov   $5918,x
6642: a4 0c     sbc   a,$0c
6644: c9 18 5d  mov   $5d18,x
6647: a5 a2 e0  sbc   a,$e0a2
664a: 1a f4     decw  $f4
664c: 3c        rol   a
664d: ed        notc
664e: dc        dec   y
664f: ea 00 e1  not1  $1c20,0
6652: 0a ef d8  or1   c,$1b1d,7
6655: 66        cmp   a,(x)
6656: 01        tcall 0
6657: 00        nop
6658: e7 30     mov   a,($30+x)
665a: e5 d2 f5  mov   a,$f5d2
665d: 0a 46 32  or1   c,$0648,6
6660: f7 02     mov   a,($02)+y
6662: 46        eor   a,(x)
6663: 00        nop
6664: e0        clrv
6665: 1e f4 00  cmp   x,$00f4
6668: ea 01 00  not1  $0000,1
666b: ed        notc
666c: b4 05     sbc   a,$05+x
666e: c9 e1 0e  mov   $0ee1,x
6671: e2 a0     set7  $a0
6673: 06        or    a,(x)
6674: 50 7f     bvc   $66f5
6676: bc        inc   a
6677: bc        inc   a
6678: e1        tcall 14
6679: 06        or    a,(x)
667a: e2 a0     set7  $a0
667c: 0e bc bc  tset1 $bcbc
667f: 00        nop
6680: e1        tcall 14
6681: 0e e2 a0  tset1 $a0e2
6684: 06        or    a,(x)
6685: bc        inc   a
6686: bc        inc   a
6687: e1        tcall 14
6688: 06        or    a,(x)
6689: e2 a0     set7  $a0
668b: 0e bc bc  tset1 $bcbc
668e: 00        nop
668f: 98 8c 8c  adc   $8c,#$8c
6692: 98 8c 8c  adc   $8c,#$8c
6695: 99        adc   (x),(y)
6696: 8d 96     mov   y,#$96
6698: 8a 00 ed  eor1  c,$1da0,0
669b: a0        ei
669c: ee        pop   y
669d: 78 d2 e1  cmp   $e1,#$d2
66a0: 0a e2 f0  or1   c,$1e1c,2
66a3: 03 98 8c  bbs0  $98,$6631
66a6: 8c 98 8c  dec   $8c98
66a9: 8c 99 8d  dec   $8d99
66ac: 96 8a 98  adc   a,$988a+y
66af: 8c 8c 98  dec   $988c
66b2: 8c 8c 99  dec   $998c
66b5: 8d 96     mov   y,#$96
66b7: 8a 00 ed  eor1  c,$1da0,0
66ba: a0        ei
66bb: ee        pop   y
66bc: 78 d2 e1  cmp   $e1,#$d2
66bf: 0a e2 f0  or1   c,$1e1c,2
66c2: 11        tcall 1
66c3: 98 8c 8c  adc   $8c,#$8c
66c6: 98 8c 8c  adc   $8c,#$8c
66c9: 99        adc   (x),(y)
66ca: 8d 96     mov   y,#$96
66cc: 8a 98 8c  eor1  c,$1193,0
66cf: 8c 98 8c  dec   $8c98
66d2: 8c 99 8d  dec   $8d99
66d5: 96 8a 00  adc   a,$008a+y
66d8: 18 5f 85  or    $85,#$5f
66db: 0c c9 18  asl   $18c9
66de: 3d        inc   x
66df: 85 0c c9  adc   a,$c90c
66e2: 18 5f 86  or    $86,#$5f
66e5: 83 ed ab  bbs4  $ed,$6692
66e8: 85 0c c9  adc   a,$c90c
66eb: 18 3d 85  or    $85,#$3d
66ee: 0c c9 18  asl   $18c9
66f1: 5f 86 83  jmp   $8386
66f4: ed        notc
66f5: 8e        pop   psw
66f6: ee        pop   y
66f7: a0        ei
66f8: da 85     movw  $85,ya
66fa: 0c c9 18  asl   $18c9
66fd: 3d        inc   x
66fe: 85 0c c9  adc   a,$c90c
6701: 18 5f 86  or    $86,#$5f
6704: 83 85 0c  bbs4  $85,$6712
6707: c9 18 3d  mov   $3d18,x
670a: 85 0c c9  adc   a,$c90c
670d: 18 5f 86  or    $86,#$5f
6710: 83 00 0c  bbs4  $00,$671e
6713: 7f        reti
6714: 98 8c 8c  adc   $8c,#$8c
6717: 98 8c 8c  adc   $8c,#$8c
671a: 99        adc   (x),(y)
671b: 8d 96     mov   y,#$96
671d: 8a 98 8c  eor1  c,$1193,0
6720: 8c 98 8c  dec   $8c98
6723: 8c 99 8d  dec   $8d99
6726: 96 8a 00  adc   a,$008a+y
6729: ff        stop
672a: ff        stop
672b: ff        stop
672c: ff        stop
672d: ff        stop
672e: ff        stop
672f: ff        stop
6730: ff        stop
6731: ff        stop
6732: ff        stop
6733: ff        stop
6734: ff        stop
6735: ff        stop
6736: ff        stop
6737: ff        stop
6738: ff        stop
6739: ff        stop
673a: ff        stop
673b: ff        stop
673c: ff        stop
673d: ff        stop
673e: ff        stop
673f: ff        stop
6740: ff        stop
6741: ff        stop
6742: ff        stop
6743: ff        stop
6744: ff        stop
6745: ff        stop
6746: ff        stop
6747: ff        stop
6748: ff        stop
6749: ff        stop
674a: ff        stop
674b: ff        stop
674c: ff        stop
674d: ff        stop
674e: ff        stop
674f: ff        stop
6750: ff        stop
6751: ff        stop
6752: ff        stop
6753: ff        stop
6754: ff        stop
6755: ff        stop
6756: ff        stop
6757: ff        stop
6758: ff        stop
6759: ff        stop
675a: ff        stop
675b: ff        stop
675c: ff        stop
675d: ff        stop
675e: ff        stop
675f: ff        stop
6760: ff        stop
6761: ff        stop
6762: ff        stop
6763: ff        stop
6764: ff        stop
6765: ff        stop
6766: ff        stop
6767: ff        stop
6768: ff        stop
6769: ff        stop
676a: ff        stop
676b: ff        stop
676c: ff        stop
676d: ff        stop
676e: ff        stop
676f: ff        stop
6770: ff        stop
6771: ff        stop
6772: ff        stop
6773: ff        stop
6774: ff        stop
6775: ff        stop
6776: ff        stop
6777: ff        stop
6778: ff        stop
6779: ff        stop
677a: ff        stop
677b: ff        stop
677c: ff        stop
677d: ff        stop
677e: ff        stop
677f: ff        stop
6780: ff        stop
6781: ff        stop
6782: ff        stop
6783: ff        stop
6784: ff        stop
6785: ff        stop
6786: ff        stop
6787: ff        stop
6788: ff        stop
6789: ff        stop
678a: ff        stop
678b: ff        stop
678c: ff        stop
678d: ff        stop
678e: ff        stop
678f: ff        stop
6790: ff        stop
6791: ff        stop
6792: ff        stop
6793: ff        stop
6794: ff        stop
6795: ff        stop
6796: ff        stop
6797: ff        stop
6798: ff        stop
6799: ff        stop
679a: ff        stop
679b: ff        stop
679c: ff        stop
679d: ff        stop
679e: ff        stop
679f: ff        stop
67a0: ff        stop
67a1: ff        stop
67a2: ff        stop
67a3: ff        stop
67a4: ff        stop
67a5: ff        stop
67a6: ff        stop
67a7: ff        stop
67a8: ff        stop
67a9: ff        stop
67aa: ff        stop
67ab: ff        stop
67ac: ff        stop
67ad: ff        stop
67ae: ff        stop
67af: ff        stop
67b0: ff        stop
67b1: ff        stop
67b2: ff        stop
67b3: ff        stop
67b4: ff        stop
67b5: ff        stop
67b6: ff        stop
67b7: ff        stop
67b8: ff        stop
67b9: ff        stop
67ba: ff        stop
67bb: ff        stop
67bc: ff        stop
67bd: ff        stop
67be: ff        stop
67bf: ff        stop
67c0: ff        stop
67c1: ff        stop
67c2: ff        stop
67c3: ff        stop
67c4: ff        stop
67c5: ff        stop
67c6: ff        stop
67c7: ff        stop
67c8: ff        stop
67c9: ff        stop
67ca: ff        stop
67cb: ff        stop
67cc: ff        stop
67cd: ff        stop
67ce: ff        stop
67cf: ff        stop
67d0: ff        stop
67d1: ff        stop
67d2: ff        stop
67d3: ff        stop
67d4: ff        stop
67d5: ff        stop
67d6: ff        stop
67d7: ff        stop
67d8: ff        stop
67d9: ff        stop
67da: ff        stop
67db: ff        stop
67dc: ff        stop
67dd: ff        stop
67de: ff        stop
67df: ff        stop
67e0: ff        stop
67e1: ff        stop
67e2: ff        stop
67e3: ff        stop
67e4: ff        stop
67e5: ff        stop
67e6: ff        stop
67e7: ff        stop
67e8: ff        stop
67e9: ff        stop
67ea: ff        stop
67eb: ff        stop
67ec: ff        stop
67ed: ff        stop
67ee: ff        stop
67ef: ff        stop
67f0: ff        stop
67f1: ff        stop
67f2: ff        stop
67f3: ff        stop
67f4: ff        stop
67f5: ff        stop
67f6: ff        stop
67f7: ff        stop
67f8: ff        stop
67f9: ff        stop
67fa: ff        stop
67fb: ff        stop
67fc: ff        stop
67fd: ff        stop
67fe: ff        stop
67ff: ff        stop
6800: ff        stop
6801: ff        stop
6802: ff        stop
6803: ff        stop
6804: ff        stop
6805: ff        stop
6806: ff        stop
6807: ff        stop
6808: ff        stop
6809: ff        stop
680a: ff        stop
680b: ff        stop
680c: ff        stop
680d: ff        stop
680e: ff        stop
680f: ff        stop
6810: ff        stop
6811: ff        stop
6812: ff        stop
6813: ff        stop
6814: ff        stop
6815: ff        stop
6816: ff        stop
6817: ff        stop
6818: ff        stop
6819: ff        stop
681a: ff        stop
681b: ff        stop
681c: ff        stop
681d: ff        stop
681e: ff        stop
681f: ff        stop
6820: ff        stop
6821: ff        stop
6822: ff        stop
6823: ff        stop
6824: ff        stop
6825: ff        stop
6826: ff        stop
6827: ff        stop
6828: ff        stop
6829: ff        stop
682a: ff        stop
682b: ff        stop
682c: ff        stop
682d: ff        stop
682e: ff        stop
682f: ff        stop
6830: ff        stop
6831: ff        stop
6832: ff        stop
6833: ff        stop
6834: ff        stop
6835: ff        stop
6836: ff        stop
6837: ff        stop
6838: ff        stop
6839: ff        stop
683a: ff        stop
683b: ff        stop
683c: ff        stop
683d: ff        stop
683e: ff        stop
683f: ff        stop
6840: ff        stop
6841: ff        stop
6842: ff        stop
6843: ff        stop
6844: ff        stop
6845: ff        stop
6846: ff        stop
6847: ff        stop
6848: ff        stop
6849: ff        stop
684a: ff        stop
684b: ff        stop
684c: ff        stop
684d: ff        stop
684e: ff        stop
684f: ff        stop
6850: ff        stop
6851: ff        stop
6852: ff        stop
6853: ff        stop
6854: ff        stop
6855: ff        stop
6856: ff        stop
6857: ff        stop
6858: ff        stop
6859: ff        stop
685a: ff        stop
685b: ff        stop
685c: ff        stop
685d: ff        stop
685e: ff        stop
685f: ff        stop
6860: ff        stop
6861: ff        stop
6862: ff        stop
6863: ff        stop
6864: ff        stop
6865: ff        stop
6866: ff        stop
6867: ff        stop
6868: ff        stop
6869: ff        stop
686a: ff        stop
686b: ff        stop
686c: ff        stop
686d: ff        stop
686e: ff        stop
686f: ff        stop
6870: ff        stop
6871: ff        stop
6872: ff        stop
6873: ff        stop
6874: ff        stop
6875: ff        stop
6876: ff        stop
6877: ff        stop
6878: ff        stop
6879: ff        stop
687a: ff        stop
687b: ff        stop
687c: ff        stop
687d: ff        stop
687e: ff        stop
687f: ff        stop
6880: ff        stop
6881: ff        stop
6882: ff        stop
6883: ff        stop
6884: ff        stop
6885: ff        stop
6886: ff        stop
6887: ff        stop
6888: ff        stop
6889: ff        stop
688a: ff        stop
688b: ff        stop
688c: ff        stop
688d: ff        stop
688e: ff        stop
688f: ff        stop
6890: ff        stop
6891: ff        stop
6892: ff        stop
6893: ff        stop
6894: ff        stop
6895: ff        stop
6896: ff        stop
6897: ff        stop
6898: ff        stop
6899: ff        stop
689a: ff        stop
689b: ff        stop
689c: ff        stop
689d: ff        stop
689e: ff        stop
689f: ff        stop
68a0: ff        stop
68a1: ff        stop
68a2: ff        stop
68a3: ff        stop
68a4: ff        stop
68a5: ff        stop
68a6: ff        stop
68a7: ff        stop
68a8: ff        stop
68a9: ff        stop
68aa: ff        stop
68ab: ff        stop
68ac: ff        stop
68ad: ff        stop
68ae: ff        stop
68af: ff        stop
68b0: ff        stop
68b1: ff        stop
68b2: ff        stop
68b3: ff        stop
68b4: ff        stop
68b5: ff        stop
68b6: ff        stop
68b7: ff        stop
68b8: ff        stop
68b9: ff        stop
68ba: ff        stop
68bb: ff        stop
68bc: ff        stop
68bd: ff        stop
68be: ff        stop
68bf: ff        stop
68c0: ff        stop
68c1: ff        stop
68c2: ff        stop
68c3: ff        stop
68c4: ff        stop
68c5: ff        stop
68c6: ff        stop
68c7: ff        stop
68c8: ff        stop
68c9: ff        stop
68ca: ff        stop
68cb: ff        stop
68cc: ff        stop
68cd: ff        stop
68ce: ff        stop
68cf: ff        stop
68d0: ff        stop
68d1: ff        stop
68d2: ff        stop
68d3: ff        stop
68d4: ff        stop
68d5: ff        stop
68d6: ff        stop
68d7: ff        stop
68d8: ff        stop
68d9: ff        stop
68da: ff        stop
68db: ff        stop
68dc: ff        stop
68dd: ff        stop
68de: ff        stop
68df: ff        stop
68e0: ff        stop
68e1: ff        stop
68e2: ff        stop
68e3: ff        stop
68e4: ff        stop
68e5: ff        stop
68e6: ff        stop
68e7: ff        stop
68e8: ff        stop
68e9: ff        stop
68ea: ff        stop
68eb: ff        stop
68ec: ff        stop
68ed: ff        stop
68ee: ff        stop
68ef: ff        stop
68f0: ff        stop
68f1: ff        stop
68f2: ff        stop
68f3: ff        stop
68f4: ff        stop
68f5: ff        stop
68f6: ff        stop
68f7: ff        stop
68f8: ff        stop
68f9: ff        stop
68fa: ff        stop
68fb: ff        stop
68fc: ff        stop
68fd: ff        stop
68fe: ff        stop
68ff: ff        stop
6900: ff        stop
6901: ff        stop
6902: ff        stop
6903: ff        stop
6904: ff        stop
6905: ff        stop
6906: ff        stop
6907: ff        stop
6908: ff        stop
6909: ff        stop
690a: ff        stop
690b: ff        stop
690c: ff        stop
690d: ff        stop
690e: ff        stop
690f: ff        stop
6910: ff        stop
6911: ff        stop
6912: ff        stop
6913: ff        stop
6914: ff        stop
6915: ff        stop
6916: ff        stop
6917: ff        stop
6918: ff        stop
6919: ff        stop
691a: ff        stop
691b: ff        stop
691c: ff        stop
691d: ff        stop
691e: ff        stop
691f: ff        stop
6920: ff        stop
6921: ff        stop
6922: ff        stop
6923: ff        stop
6924: ff        stop
6925: ff        stop
6926: ff        stop
6927: ff        stop
6928: ff        stop
6929: ff        stop
692a: ff        stop
692b: ff        stop
692c: ff        stop
692d: ff        stop
692e: ff        stop
692f: ff        stop
6930: ff        stop
6931: ff        stop
6932: ff        stop
6933: ff        stop
6934: ff        stop
6935: ff        stop
6936: ff        stop
6937: ff        stop
6938: ff        stop
6939: ff        stop
693a: ff        stop
693b: ff        stop
693c: ff        stop
693d: ff        stop
693e: ff        stop
693f: ff        stop
6940: ff        stop
6941: ff        stop
6942: ff        stop
6943: ff        stop
6944: ff        stop
6945: ff        stop
6946: ff        stop
6947: ff        stop
6948: ff        stop
6949: ff        stop
694a: ff        stop
694b: ff        stop
694c: ff        stop
694d: ff        stop
694e: ff        stop
694f: ff        stop
6950: ff        stop
6951: ff        stop
6952: ff        stop
6953: ff        stop
6954: ff        stop
6955: ff        stop
6956: ff        stop
6957: ff        stop
6958: ff        stop
6959: ff        stop
695a: ff        stop
695b: ff        stop
695c: ff        stop
695d: ff        stop
695e: ff        stop
695f: ff        stop
6960: ff        stop
6961: ff        stop
6962: ff        stop
6963: ff        stop
6964: ff        stop
6965: ff        stop
6966: ff        stop
6967: ff        stop
6968: ff        stop
6969: ff        stop
696a: ff        stop
696b: ff        stop
696c: ff        stop
696d: ff        stop
696e: ff        stop
696f: ff        stop
6970: ff        stop
6971: ff        stop
6972: ff        stop
6973: ff        stop
6974: ff        stop
6975: ff        stop
6976: ff        stop
6977: ff        stop
6978: ff        stop
6979: ff        stop
697a: ff        stop
697b: ff        stop
697c: ff        stop
697d: ff        stop
697e: ff        stop
697f: ff        stop
6980: ff        stop
6981: ff        stop
6982: ff        stop
6983: ff        stop
6984: ff        stop
6985: ff        stop
6986: ff        stop
6987: ff        stop
6988: ff        stop
6989: ff        stop
698a: ff        stop
698b: ff        stop
698c: ff        stop
698d: ff        stop
698e: ff        stop
698f: ff        stop
6990: ff        stop
6991: ff        stop
6992: ff        stop
6993: ff        stop
6994: ff        stop
6995: ff        stop
6996: ff        stop
6997: ff        stop
6998: ff        stop
6999: ff        stop
699a: ff        stop
699b: ff        stop
699c: ff        stop
699d: ff        stop
699e: ff        stop
699f: ff        stop
69a0: ff        stop
69a1: ff        stop
69a2: ff        stop
69a3: ff        stop
69a4: ff        stop
69a5: ff        stop
69a6: ff        stop
69a7: ff        stop
69a8: ff        stop
69a9: ff        stop
69aa: ff        stop
69ab: ff        stop
69ac: ff        stop
69ad: ff        stop
69ae: ff        stop
69af: ff        stop
69b0: ff        stop
69b1: ff        stop
69b2: ff        stop
69b3: ff        stop
69b4: ff        stop
69b5: ff        stop
69b6: ff        stop
69b7: ff        stop
69b8: ff        stop
69b9: ff        stop
69ba: ff        stop
69bb: ff        stop
69bc: ff        stop
69bd: ff        stop
69be: ff        stop
69bf: ff        stop
69c0: ff        stop
69c1: ff        stop
69c2: ff        stop
69c3: ff        stop
69c4: ff        stop
69c5: ff        stop
69c6: ff        stop
69c7: ff        stop
69c8: ff        stop
69c9: ff        stop
69ca: ff        stop
69cb: ff        stop
69cc: ff        stop
69cd: ff        stop
69ce: ff        stop
69cf: ff        stop
69d0: ff        stop
69d1: ff        stop
69d2: ff        stop
69d3: ff        stop
69d4: ff        stop
69d5: ff        stop
69d6: ff        stop
69d7: ff        stop
69d8: ff        stop
69d9: ff        stop
69da: ff        stop
69db: ff        stop
69dc: ff        stop
69dd: ff        stop
69de: ff        stop
69df: ff        stop
69e0: ff        stop
69e1: ff        stop
69e2: ff        stop
69e3: ff        stop
69e4: ff        stop
69e5: ff        stop
69e6: ff        stop
69e7: ff        stop
69e8: ff        stop
69e9: ff        stop
69ea: ff        stop
69eb: ff        stop
69ec: ff        stop
69ed: ff        stop
69ee: ff        stop
69ef: ff        stop
69f0: ff        stop
69f1: ff        stop
69f2: ff        stop
69f3: ff        stop
69f4: ff        stop
69f5: ff        stop
69f6: ff        stop
69f7: ff        stop
69f8: ff        stop
69f9: ff        stop
69fa: ff        stop
69fb: ff        stop
69fc: ff        stop
69fd: ff        stop
69fe: ff        stop
69ff: ff        stop
6a00: ff        stop
6a01: ff        stop
6a02: ff        stop
6a03: ff        stop
6a04: ff        stop
6a05: ff        stop
6a06: ff        stop
6a07: ff        stop
6a08: ff        stop
6a09: ff        stop
6a0a: ff        stop
6a0b: ff        stop
6a0c: ff        stop
6a0d: ff        stop
6a0e: ff        stop
6a0f: ff        stop
6a10: ff        stop
6a11: ff        stop
6a12: ff        stop
6a13: ff        stop
6a14: ff        stop
6a15: ff        stop
6a16: ff        stop
6a17: ff        stop
6a18: ff        stop
6a19: ff        stop
6a1a: ff        stop
6a1b: ff        stop
6a1c: ff        stop
6a1d: ff        stop
6a1e: ff        stop
6a1f: ff        stop
6a20: ff        stop
6a21: ff        stop
6a22: ff        stop
6a23: ff        stop
6a24: ff        stop
6a25: ff        stop
6a26: ff        stop
6a27: ff        stop
6a28: ff        stop
6a29: ff        stop
6a2a: ff        stop
6a2b: ff        stop
6a2c: ff        stop
6a2d: ff        stop
6a2e: ff        stop
6a2f: ff        stop
6a30: ff        stop
6a31: ff        stop
6a32: ff        stop
6a33: ff        stop
6a34: ff        stop
6a35: ff        stop
6a36: ff        stop
6a37: ff        stop
6a38: ff        stop
6a39: ff        stop
6a3a: ff        stop
6a3b: ff        stop
6a3c: ff        stop
6a3d: ff        stop
6a3e: ff        stop
6a3f: ff        stop
6a40: ff        stop
6a41: ff        stop
6a42: ff        stop
6a43: ff        stop
6a44: ff        stop
6a45: ff        stop
6a46: ff        stop
6a47: ff        stop
6a48: ff        stop
6a49: ff        stop
6a4a: ff        stop
6a4b: ff        stop
6a4c: ff        stop
6a4d: ff        stop
6a4e: ff        stop
6a4f: ff        stop
6a50: ff        stop
6a51: ff        stop
6a52: ff        stop
6a53: ff        stop
6a54: ff        stop
6a55: ff        stop
6a56: ff        stop
6a57: ff        stop
6a58: ff        stop
6a59: ff        stop
6a5a: ff        stop
6a5b: ff        stop
6a5c: ff        stop
6a5d: ff        stop
6a5e: ff        stop
6a5f: ff        stop
6a60: ff        stop
6a61: ff        stop
6a62: ff        stop
6a63: ff        stop
6a64: ff        stop
6a65: ff        stop
6a66: ff        stop
6a67: ff        stop
6a68: ff        stop
6a69: ff        stop
6a6a: ff        stop
6a6b: ff        stop
6a6c: ff        stop
6a6d: ff        stop
6a6e: ff        stop
6a6f: ff        stop
6a70: ff        stop
6a71: ff        stop
6a72: ff        stop
6a73: ff        stop
6a74: ff        stop
6a75: ff        stop
6a76: ff        stop
6a77: ff        stop
6a78: ff        stop
6a79: ff        stop
6a7a: ff        stop
6a7b: ff        stop
6a7c: ff        stop
6a7d: ff        stop
6a7e: ff        stop
6a7f: ff        stop
6a80: ff        stop
6a81: ff        stop
6a82: ff        stop
6a83: ff        stop
6a84: ff        stop
6a85: ff        stop
6a86: ff        stop
6a87: ff        stop
6a88: ff        stop
6a89: ff        stop
6a8a: ff        stop
6a8b: ff        stop
6a8c: ff        stop
6a8d: ff        stop
6a8e: ff        stop
6a8f: ff        stop
6a90: ff        stop
6a91: ff        stop
6a92: ff        stop
6a93: ff        stop
6a94: ff        stop
6a95: ff        stop
6a96: ff        stop
6a97: ff        stop
6a98: ff        stop
6a99: ff        stop
6a9a: ff        stop
6a9b: ff        stop
6a9c: ff        stop
6a9d: ff        stop
6a9e: ff        stop
6a9f: ff        stop
6aa0: ff        stop
6aa1: ff        stop
6aa2: ff        stop
6aa3: ff        stop
6aa4: ff        stop
6aa5: ff        stop
6aa6: ff        stop
6aa7: ff        stop
6aa8: ff        stop
6aa9: ff        stop
6aaa: ff        stop
6aab: ff        stop
6aac: ff        stop
6aad: ff        stop
6aae: ff        stop
6aaf: ff        stop
6ab0: ff        stop
6ab1: ff        stop
6ab2: ff        stop
6ab3: ff        stop
6ab4: ff        stop
6ab5: ff        stop
6ab6: ff        stop
6ab7: ff        stop
6ab8: ff        stop
6ab9: ff        stop
6aba: ff        stop
6abb: ff        stop
6abc: ff        stop
6abd: ff        stop
6abe: ff        stop
6abf: ff        stop
6ac0: ff        stop
6ac1: ff        stop
6ac2: ff        stop
6ac3: ff        stop
6ac4: ff        stop
6ac5: ff        stop
6ac6: ff        stop
6ac7: ff        stop
6ac8: ff        stop
6ac9: ff        stop
6aca: ff        stop
6acb: ff        stop
6acc: ff        stop
6acd: ff        stop
6ace: ff        stop
6acf: ff        stop
6ad0: ff        stop
6ad1: ff        stop
6ad2: ff        stop
6ad3: ff        stop
6ad4: ff        stop
6ad5: ff        stop
6ad6: ff        stop
6ad7: ff        stop
6ad8: ff        stop
6ad9: ff        stop
6ada: ff        stop
6adb: ff        stop
6adc: ff        stop
6add: ff        stop
6ade: ff        stop
6adf: ff        stop
6ae0: ff        stop
6ae1: ff        stop
6ae2: ff        stop
6ae3: ff        stop
6ae4: ff        stop
6ae5: ff        stop
6ae6: ff        stop
6ae7: ff        stop
6ae8: ff        stop
6ae9: ff        stop
6aea: ff        stop
6aeb: ff        stop
6aec: ff        stop
6aed: ff        stop
6aee: ff        stop
6aef: ff        stop
6af0: ff        stop
6af1: ff        stop
6af2: ff        stop
6af3: ff        stop
6af4: ff        stop
6af5: ff        stop
6af6: ff        stop
6af7: ff        stop
6af8: ff        stop
6af9: ff        stop
6afa: ff        stop
6afb: ff        stop
6afc: ff        stop
6afd: ff        stop
6afe: ff        stop
6aff: ff        stop
6b00: ff        stop
6b01: ff        stop
6b02: ff        stop
6b03: ff        stop
6b04: ff        stop
6b05: ff        stop
6b06: ff        stop
6b07: ff        stop
6b08: ff        stop
6b09: ff        stop
6b0a: ff        stop
6b0b: ff        stop
6b0c: ff        stop
6b0d: ff        stop
6b0e: ff        stop
6b0f: ff        stop
6b10: ff        stop
6b11: ff        stop
6b12: ff        stop
6b13: ff        stop
6b14: ff        stop
6b15: ff        stop
6b16: ff        stop
6b17: ff        stop
6b18: ff        stop
6b19: ff        stop
6b1a: ff        stop
6b1b: ff        stop
6b1c: ff        stop
6b1d: ff        stop
6b1e: ff        stop
6b1f: ff        stop
6b20: ff        stop
6b21: ff        stop
6b22: ff        stop
6b23: ff        stop
6b24: ff        stop
6b25: ff        stop
6b26: ff        stop
6b27: ff        stop
6b28: ff        stop
6b29: ff        stop
6b2a: ff        stop
6b2b: ff        stop
6b2c: ff        stop
6b2d: ff        stop
6b2e: ff        stop
6b2f: ff        stop
6b30: ff        stop
6b31: ff        stop
6b32: ff        stop
6b33: ff        stop
6b34: ff        stop
6b35: ff        stop
6b36: ff        stop
6b37: ff        stop
6b38: ff        stop
6b39: ff        stop
6b3a: ff        stop
6b3b: ff        stop
6b3c: ff        stop
6b3d: ff        stop
6b3e: ff        stop
6b3f: ff        stop
6b40: ff        stop
6b41: ff        stop
6b42: ff        stop
6b43: ff        stop
6b44: ff        stop
6b45: ff        stop
6b46: ff        stop
6b47: ff        stop
6b48: ff        stop
6b49: ff        stop
6b4a: ff        stop
6b4b: ff        stop
6b4c: ff        stop
6b4d: ff        stop
6b4e: ff        stop
6b4f: ff        stop
6b50: ff        stop
6b51: ff        stop
6b52: ff        stop
6b53: ff        stop
6b54: ff        stop
6b55: ff        stop
6b56: ff        stop
6b57: ff        stop
6b58: ff        stop
6b59: ff        stop
6b5a: ff        stop
6b5b: ff        stop
6b5c: ff        stop
6b5d: ff        stop
6b5e: ff        stop
6b5f: ff        stop
6b60: ff        stop
6b61: ff        stop
6b62: ff        stop
6b63: ff        stop
6b64: ff        stop
6b65: ff        stop
6b66: ff        stop
6b67: ff        stop
6b68: ff        stop
6b69: ff        stop
6b6a: ff        stop
6b6b: ff        stop
6b6c: ff        stop
6b6d: ff        stop
6b6e: ff        stop
6b6f: ff        stop
6b70: ff        stop
6b71: ff        stop
6b72: ff        stop
6b73: ff        stop
6b74: ff        stop
6b75: ff        stop
6b76: ff        stop
6b77: ff        stop
6b78: ff        stop
6b79: ff        stop
6b7a: ff        stop
6b7b: ff        stop
6b7c: ff        stop
6b7d: ff        stop
6b7e: ff        stop
6b7f: ff        stop
6b80: ff        stop
6b81: ff        stop
6b82: ff        stop
6b83: ff        stop
6b84: ff        stop
6b85: ff        stop
6b86: ff        stop
6b87: ff        stop
6b88: ff        stop
6b89: ff        stop
6b8a: ff        stop
6b8b: ff        stop
6b8c: ff        stop
6b8d: ff        stop
6b8e: ff        stop
6b8f: ff        stop
6b90: ff        stop
6b91: ff        stop
6b92: ff        stop
6b93: ff        stop
6b94: ff        stop
6b95: ff        stop
6b96: ff        stop
6b97: ff        stop
6b98: ff        stop
6b99: ff        stop
6b9a: ff        stop
6b9b: ff        stop
6b9c: ff        stop
6b9d: ff        stop
6b9e: ff        stop
6b9f: ff        stop
6ba0: ff        stop
6ba1: ff        stop
6ba2: ff        stop
6ba3: ff        stop
6ba4: ff        stop
6ba5: ff        stop
6ba6: ff        stop
6ba7: ff        stop
6ba8: ff        stop
6ba9: ff        stop
6baa: ff        stop
6bab: ff        stop
6bac: ff        stop
6bad: ff        stop
6bae: ff        stop
6baf: ff        stop
6bb0: ff        stop
6bb1: ff        stop
6bb2: ff        stop
6bb3: ff        stop
6bb4: ff        stop
6bb5: ff        stop
6bb6: ff        stop
6bb7: ff        stop
6bb8: ff        stop
6bb9: ff        stop
6bba: ff        stop
6bbb: ff        stop
6bbc: ff        stop
6bbd: ff        stop
6bbe: ff        stop
6bbf: ff        stop
6bc0: ff        stop
6bc1: ff        stop
6bc2: ff        stop
6bc3: ff        stop
6bc4: ff        stop
6bc5: ff        stop
6bc6: ff        stop
6bc7: ff        stop
6bc8: ff        stop
6bc9: ff        stop
6bca: ff        stop
6bcb: ff        stop
6bcc: ff        stop
6bcd: ff        stop
6bce: ff        stop
6bcf: ff        stop
6bd0: ff        stop
6bd1: ff        stop
6bd2: ff        stop
6bd3: ff        stop
6bd4: ff        stop
6bd5: ff        stop
6bd6: ff        stop
6bd7: ff        stop
6bd8: ff        stop
6bd9: ff        stop
6bda: ff        stop
6bdb: ff        stop
6bdc: ff        stop
6bdd: ff        stop
6bde: ff        stop
6bdf: ff        stop
6be0: ff        stop
6be1: ff        stop
6be2: ff        stop
6be3: ff        stop
6be4: ff        stop
6be5: ff        stop
6be6: ff        stop
6be7: ff        stop
6be8: ff        stop
6be9: ff        stop
6bea: ff        stop
6beb: ff        stop
6bec: ff        stop
6bed: ff        stop
6bee: ff        stop
6bef: ff        stop
6bf0: ff        stop
6bf1: ff        stop
6bf2: ff        stop
6bf3: ff        stop
6bf4: ff        stop
6bf5: ff        stop
6bf6: ff        stop
6bf7: ff        stop
6bf8: ff        stop
6bf9: ff        stop
6bfa: ff        stop
6bfb: ff        stop
6bfc: ff        stop
6bfd: ff        stop
6bfe: ff        stop
6bff: ff        stop
6c00: 00        nop
6c01: ff        stop
6c02: e0        clrv
6c03: b8 04 70  sbc   $70,#$04
6c06: 01        tcall 0
6c07: ff        stop
6c08: e0        clrv
6c09: b8 03 50  sbc   $50,#$03
6c0c: 02 ff     set0  $ff
6c0e: e0        clrv
6c0f: b8 06 f0  sbc   $f0,#$06
6c12: 03 ff e0  bbs0  $ff,$6bf4
6c15: b8 07 a0  sbc   $a0,#$07
6c18: 04 ff     or    a,$ff
6c1a: e0        clrv
6c1b: b8 07 a0  sbc   $a0,#$07
6c1e: 05 ff e0  or    a,$e0ff
6c21: b8 00 40  sbc   $40,#$00
6c24: 06        or    a,(x)
6c25: ff        stop
6c26: e0        clrv
6c27: b8 01 10  sbc   $10,#$01
6c2a: 07 ff     or    a,($ff+x)
6c2c: e0        clrv
6c2d: b8 00 30  sbc   $30,#$00
6c30: 08 ff     or    a,#$ff
6c32: e0        clrv
6c33: b8 02 90  sbc   $90,#$02
6c36: 09 ff e0  or    ($e0),($ff)
6c39: b8 01 90  sbc   $90,#$01
6c3c: 0a ff f4  or1   c,$1e9f,7
6c3f: b8 04 90  sbc   $90,#$04
6c42: 0b ff     asl   $ff
6c44: e0        clrv
6c45: b8 04 90  sbc   $90,#$04
6c48: 0c ff e0  asl   $e0ff
6c4b: b8 06 f0  sbc   $f0,#$06
6c4e: 0d        push  psw
6c4f: ff        stop
6c50: e0        clrv
6c51: b8 05 70  sbc   $70,#$05
6c54: 0e ff e0  tset1 $e0ff
6c57: b8 04 d0  sbc   $d0,#$04
6c5a: 0f        brk
6c5b: ff        stop
6c5c: e0        clrv
6c5d: b8 04 30  sbc   $30,#$04
6c60: 10 ff     bpl   $6c61
6c62: e0        clrv
6c63: b8 01 00  sbc   $00,#$01
6c66: 11        tcall 1
6c67: ff        stop
6c68: f2 b8     clr7  $b8
6c6a: 03 90 12  bbs0  $90,$6c7e
6c6d: ff        stop
6c6e: e4 b8     mov   a,$b8
6c70: 03 90 13  bbs0  $90,$6c85
6c73: ff        stop
6c74: e0        clrv
6c75: b8 04 a0  sbc   $a0,#$04
6c78: 14 ff     or    a,$ff+x
6c7a: e0        clrv
6c7b: b8 03 b0  sbc   $b0,#$03
6c7e: 15 ff e0  or    a,$e0ff+x
6c81: b8 00 40  sbc   $40,#$00
6c84: 16 ff e0  or    a,$e0ff+y
6c87: b8 04 c0  sbc   $c0,#$04
6c8a: 17 ff     or    a,($ff)+y
6c8c: f2 b8     clr7  $b8
6c8e: 13 f0 18  bbc0  $f0,$6ca8
6c91: ff        stop
6c92: e0        clrv
6c93: b8 07 a0  sbc   $a0,#$07
6c96: 19        or    (x),(y)
6c97: 8f ed b8  mov   $b8,#$ed
6c9a: 08 f0     or    a,#$f0
6c9c: 1a fd     decw  $fd
6c9e: f3 b8 05  bbc7  $b8,$6ca5
6ca1: f0 1b     beq   $6cbe
6ca3: ff        stop
6ca4: e0        clrv
6ca5: b8 05 f0  sbc   $f0,#$05
6ca8: 1c        asl   a
6ca9: ff        stop
6caa: e0        clrv
6cab: b8 03 30  sbc   $30,#$03
6cae: 1d        dec   x
6caf: ff        stop
6cb0: e0        clrv
6cb1: b8 06 f0  sbc   $f0,#$06
6cb4: 1e ff e0  cmp   x,$e0ff
6cb7: b8 00 80  sbc   $80,#$00
6cba: 1f ff f2  jmp   ($f2ff+x)
6cbd: b8 06 90  sbc   $90,#$06
6cc0: 20        clrp
6cc1: ff        stop
6cc2: f2 b8     clr7  $b8
6cc4: 06        or    a,(x)
6cc5: 90 21     bcc   $6ce8
6cc7: ff        stop
6cc8: f2 b8     clr7  $b8
6cca: 06        or    a,(x)
6ccb: 90 22     bcc   $6cef
6ccd: ff        stop
6cce: f2 b8     clr7  $b8
6cd0: 06        or    a,(x)
6cd1: 90 23     bcc   $6cf6
6cd3: ff        stop
6cd4: f2 b8     clr7  $b8
6cd6: 06        or    a,(x)
6cd7: 90 24     bcc   $6cfd
6cd9: ff        stop
6cda: e0        clrv
6cdb: b8 06 90  sbc   $90,#$06
6cde: 25 ff e0  and   a,$e0ff
6ce1: b8 02 70  sbc   $70,#$02
6ce4: 26        and   a,(x)
6ce5: ff        stop
6ce6: e0        clrv
6ce7: b8 00 70  sbc   $70,#$00
6cea: ff        stop
6ceb: ff        stop
6cec: ff        stop
6ced: ff        stop
6cee: ff        stop
6cef: ff        stop
6cf0: ff        stop
6cf1: ff        stop
6cf2: ff        stop
6cf3: ff        stop
6cf4: ff        stop
6cf5: ff        stop
6cf6: ff        stop
6cf7: ff        stop
6cf8: ff        stop
6cf9: ff        stop
6cfa: ff        stop
6cfb: ff        stop
6cfc: ff        stop
6cfd: ff        stop
6cfe: ff        stop
6cff: ff        stop
6d00: 00        nop
6d01: 6e c4 73  dbnz  $c4,$6d76
6d04: c4 73     mov   $73,a
6d06: 88 79     adc   a,#$79
6d08: 88 79     adc   a,#$79
6d0a: ac 79 a0  inc   $a079
6d0d: 7c        ror   a
6d0e: f6 7d f6  mov   a,$f67d+y
6d11: 7d        mov   a,x
6d12: f4 82     mov   a,$82+x
6d14: f4 82     mov   a,$82+x
6d16: 18 83 d2  or    $d2,#$83
6d19: 86        adc   a,(x)
6d1a: ed        notc
6d1b: 86        adc   a,(x)
6d1c: c1        tcall 12
6d1d: 88 dc     adc   a,#$dc
6d1f: 88 d0     adc   a,#$d0
6d21: 8b ca     dec   $ca
6d23: 91        tcall 9
6d24: ca 91 e5  mov1  $1cb2,1,c
6d27: 91        tcall 9
6d28: ea 92 4a  not1  $0952,2
6d2b: 96 ea 92  adc   a,$92ea+y
6d2e: 4a 96 4f  and1  c,$09f2,6
6d31: a0        ei
6d32: 6a a0 a9  and1  c,!($1534,0)
6d35: a0        ei
6d36: 5d        mov   x,a
6d37: a1        tcall 10
6d38: 5d        mov   x,a
6d39: a1        tcall 10
6d3a: e9 a2 e9  mov   x,$e9a2
6d3d: a2 be     set5  $be
6d3f: a6        sbc   a,(x)
6d40: be        das   a
6d41: a6        sbc   a,(x)
6d42: e2 a6     set7  $a6
6d44: 73 a9 8e  bbc3  $a9,$6cd4
6d47: a9 73 a9  sbc   ($a9),($73)
6d4a: 8e        pop   psw
6d4b: a9 b2 a9  sbc   ($a9),($b2)
6d4e: b8 ac b8  sbc   $b8,#$ac
6d51: ac 5b af  inc   $af5b
6d54: 5b af     lsr   $af+x
6d56: 7f        reti
6d57: af        mov   (x)+,a
6d58: 10 b2     bpl   $6d0c
6d5a: 16 b5 16  or    a,$16b5+y
6d5d: b5 6e cc  sbc   a,$cc6e+x
6d60: 16 b5 2f  or    a,$2fb5+y
6d63: ba 2f     movw  ya,$2f
6d65: ba e4     movw  ya,$e4
6d67: bc        inc   a
6d68: 35 bd e8  and   a,$e8bd+x
6d6b: c4 35     mov   $35,a
6d6d: bd        mov   sp,x
6d6e: e8 c4     mov   a,#$c4
6d70: 1e c5 4e  cmp   x,$4ec5
6d73: cb 2f     mov   $2f,y
6d75: d5 4a d5  mov   $d54a+x,a
6d78: 89 d5 ad  adc   ($ad),($d5)
6d7b: d5 e2 e5  mov   $e5e2+x,a
6d7e: 22 f1     set1  $f1
6d80: e2 e5     set7  $e5
6d82: 22 f1     set1  $f1
6d84: e2 e5     set7  $e5
6d86: 22 f1     set1  $f1
6d88: e2 e5     set7  $e5
6d8a: 22 f1     set1  $f1
6d8c: e2 e5     set7  $e5
6d8e: 22 f1     set1  $f1
6d90: e2 e5     set7  $e5
6d92: 22 f1     set1  $f1
6d94: 22 f1     set1  $f1
6d96: 8c ff ff  dec   $ffff
6d99: ff        stop
6d9a: ff        stop
6d9b: ff        stop
6d9c: ff        stop
6d9d: ff        stop
6d9e: ff        stop
6d9f: ff        stop
6da0: ff        stop
6da1: ff        stop
6da2: ff        stop
6da3: ff        stop
6da4: ff        stop
6da5: ff        stop
6da6: ff        stop
6da7: ff        stop
6da8: ff        stop
6da9: ff        stop
6daa: ff        stop
6dab: ff        stop
6dac: ff        stop
6dad: ff        stop
6dae: ff        stop
6daf: ff        stop
6db0: ff        stop
6db1: ff        stop
6db2: ff        stop
6db3: ff        stop
6db4: ff        stop
6db5: ff        stop
6db6: ff        stop
6db7: ff        stop
6db8: ff        stop
6db9: ff        stop
6dba: ff        stop
6dbb: ff        stop
6dbc: ff        stop
6dbd: ff        stop
6dbe: ff        stop
6dbf: ff        stop
6dc0: ff        stop
6dc1: ff        stop
6dc2: ff        stop
6dc3: ff        stop
6dc4: ff        stop
6dc5: ff        stop
6dc6: ff        stop
6dc7: ff        stop
6dc8: ff        stop
6dc9: ff        stop 
6dca: ff        stop
6dcb: ff        stop
6dcc: ff        stop
6dcd: ff        stop
6dce: ff        stop
6dcf: ff        stop
6dd0: ff        stop
6dd1: ff        stop
6dd2: ff        stop
6dd3: ff        stop
6dd4: ff        stop
6dd5: ff        stop
6dd6: ff        stop
6dd7: ff        stop
6dd8: ff        stop
6dd9: ff        stop
6dda: ff        stop
6ddb: ff        stop
6ddc: ff        stop
6ddd: ff        stop
6dde: ff        stop
6ddf: ff        stop
6de0: ff        stop
6de1: ff        stop
6de2: ff        stop
6de3: ff        stop
6de4: ff        stop
6de5: ff        stop
6de6: ff        stop
6de7: ff        stop
6de8: ff        stop
6de9: ff        stop
6dea: ff        stop
6deb: ff        stop
6dec: ff        stop
6ded: ff        stop
6dee: ff        stop
6def: ff        stop
6df0: ff        stop
6df1: ff        stop
6df2: ff        stop
6df3: ff        stop
6df4: ff        stop
6df5: ff        stop
6df6: ff        stop
6df7: ff        stop
6df8: ff        stop
6df9: ff        stop
6dfa: ff        stop
6dfb: ff        stop
6dfc: ff        stop
6dfd: ff        stop
6dfe: ff        stop
6dff: ff        stop
6e00: 00        nop
6e01: 00        nop
6e02: 00        nop
6e03: 00        nop
6e04: 00        nop
6e05: 00        nop
6e06: 00        nop
6e07: 00        nop
6e08: 00        nop
6e09: 94 5d     adc   a,$5d+x
6e0b: 4c 1f 01  lsr   $011f
6e0e: 1d        dec   x
6e0f: fd        mov   y,a
6e10: 3f f3 a4  call  $a4f3
6e13: 01        tcall 0
6e14: 32 f0     clr1  $f0
6e16: e2 11     set7  $11
6e18: 2f e2     bra   $6dfc
6e1a: b2 90     clr5  $90
6e1c: 5e fe ec  cmp   y,$ecfe
6e1f: ed        notc
6e20: 15 73 ff  or    a,$ff73+x
6e23: ff        stop
6e24: 90 fe     bcc   $6e24
6e26: dc        dec   y
6e27: 00        nop
6e28: cf        mul   ya
6e29: 51        tcall 5
6e2a: ee        pop   y
6e2b: c0        di
6e2c: e1        tcall 14
6e2d: 94 0f     adc   a,$0f+x
6e2f: 96 7d 14  adc   a,$147d+y
6e32: d0 11     bne   $6e45
6e34: 00        nop
6e35: a4 a4     sbc   a,$a4
6e37: 4d        push  x
6e38: e3 e1 d2  bbs7  $e1,$6e0c
6e3b: 1d        dec   x
6e3c: f3 e5 01  bbc7  $e5,$6e3f
6e3f: a4 03     sbc   a,$03
6e41: ee        pop   y
6e42: 1c        asl   a
6e43: 03 d3 5b  bbs0  $d3,$6ea0
6e46: 14 1e     or    a,$1e+x
6e48: a4 1c     sbc   a,$1c
6e4a: 51        tcall 5
6e4b: a9 12 ec  sbc   ($ec),($12)
6e4e: f2 02     clr7  $02
6e50: 23 b4 1d  bbs1  $b4,$6e6f
6e53: ff        stop
6e54: f0 20     beq   $6e76
6e56: 03 3c 4e  bbs0  $3c,$6ea6
6e59: 01        tcall 0
6e5a: b4 ef     sbc   a,$ef+x
6e5c: 11        tcall 1
6e5d: ff        stop
6e5e: 1f 4e 4e  jmp   ($4e4e+x)
6e61: fe 10     dbnz  y,$6e73
6e63: b4 e0     sbc   a,$e0+x
6e65: 23 0e 40  bbs1  $0e,$6ea7
6e68: 0f        brk
6e69: 1e 1e 10  cmp   x,$101e
6e6c: b4 de     sbc   a,$de+x
6e6e: 2c f0 2f  rol   $2ff0
6e71: 03 f2 ef  bbs0  $f2,$6e62
6e74: e1        tcall 14
6e75: b4 02     sbc   a,$02+x
6e77: de f2 2f  cbne  $f2+x,$6ea8
6e7a: 30 0f     bmi   $6e8b
6e7c: 23 cf b4  bbs1  $cf,$6e32
6e7f: e3 f0 13  bbs7  $f0,$6e94
6e82: 11        tcall 1
6e83: 53 3d 3d  bbc2  $3d,$6ec2
6e86: 01        tcall 0
6e87: b4 a3     sbc   a,$a3+x
6e89: d2 2f     clr6  $2f
6e8b: 4e d0 fd  tclr1 $fdd0
6e8e: e2 0f     set7  $0f
6e90: b4 d3     sbc   a,$d3+x
6e92: e2 df     set7  $df
6e94: 01        tcall 0
6e95: d5 d3 e4  mov   $e4d3+x,a
6e98: 02 b4     set0  $b4
6e9a: d3 03 df  bbc6  $03,$6e7b
6e9d: c1        tcall 12
6e9e: 1f 01 2f  jmp   ($2f01+x)
6ea1: 31        tcall 3
6ea2: b4 ed     sbc   a,$ed+x
6ea4: 5d        mov   x,a
6ea5: 0f        brk
6ea6: d1        tcall 13
6ea7: ee        pop   y
6ea8: f1        tcall 15
6ea9: 10 f3     bpl   $6e9e
6eab: b4 3d     sbc   a,$3d+x
6ead: 01        tcall 0
6eae: f3 41 23  bbc7  $41,$6ed3
6eb1: ee        pop   y
6eb2: 12 01     clr0  $01
6eb4: b4 0f     sbc   a,$0f+x
6eb6: f1        tcall 15
6eb7: e1        tcall 14
6eb8: c1        tcall 12
6eb9: d2 f0     clr6  $f0
6ebb: 0f        brk
6ebc: ff        stop
6ebd: b4 ec     sbc   a,$ec+x
6ebf: f0 f2     beq   $6eb3
6ec1: 40        setp
6ec2: 33 c1 d0  bbc1  $c1,$6e94
6ec5: 1d        dec   x
6ec6: a0        ei
6ec7: 30 e5     bmi   $6eae
6ec9: 04 1e     or    a,$1e
6ecb: 2d        push  a
6ecc: fc        inc   y
6ecd: 9b 3d     dec   $3d+x
6ecf: b4 4c     sbc   a,$4c+x
6ed1: 4f 3d     pcall $3d
6ed3: 01        tcall 0
6ed4: e0        clrv
6ed5: 3c        rol   a
6ed6: 4f 2e     pcall $2e
6ed8: b4 0e     sbc   a,$0e+x
6eda: 5c        lsr   a
6edb: e3 31 f0  bbs7  $31,$6ecd
6ede: 4a 31 e2  and1  c,$1c46,1
6ee1: b4 e4     sbc   a,$e4+x
6ee3: 01        tcall 0
6ee4: 0a 5c 10  or1   c,$020b,4
6ee7: 2f 11     bra   $6efa
6ee9: ff        stop
6eea: a4 01     sbc   a,$01
6eec: b0 cb     bcs   $6eb9
6eee: 1b 0f     asl   $0f+x
6ef0: f0 00     beq   $6ef2
6ef2: ff        stop
6ef3: a4 0f     sbc   a,$0f
6ef5: c4 ee     mov   $ee,a
6ef7: 0c 1d ff  asl   $ff1d
6efa: ef        sleep
6efb: e1        tcall 14
6efc: a8 ef     sbc   a,#$ef
6efe: f0 02     beq   $6f02
6f00: c1        tcall 12
6f01: 10 f0     bpl   $6ef3
6f03: 3e e2     cmp   x,$e2
6f05: b4 00     sbc   a,$00+x
6f07: 21        tcall 2
6f08: 3f 00 3f  call  $3f00
6f0b: 14 e1     or    a,$e1+x
6f0d: 40        setp
6f0e: b4 4f     sbc   a,$4f+x
6f10: 2e 21 20  cbne  $21,$6f32
6f13: 1e d4 f2  cmp   x,$f2d4
6f16: ff        stop
6f17: b4 2e     sbc   a,$2e+x
6f19: e2 d0     set7  $d0
6f1b: 2c 23 ef  rol   $ef23
6f1e: 11        tcall 1
6f1f: ef        sleep
6f20: a4 ff     sbc   a,$ff
6f22: 21        tcall 2
6f23: e2 2c     set7  $2c
6f25: ee        pop   y
6f26: ec e7 0b  mov   y,$0be7
6f29: b4 f0     sbc   a,$f0+x
6f2b: fe f0     dbnz  y,$6f1d
6f2d: fe 00     dbnz  y,$6f2f
6f2f: 0f        brk
6f30: 03 c0 b4  bbs0  $c0,$6ee6
6f33: 4e 0e 11  tclr1 $110e
6f36: f0 01     beq   $6f39
6f38: 11        tcall 1
6f39: 02 f0     set0  $f0
6f3b: b8 2f 4d  sbc   $4d,#$2f
6f3e: 2d        push  a
6f3f: f4 ef     mov   a,$ef+x
6f41: 20        clrp
6f42: 0f        brk
6f43: 3e a4     cmp   x,$a4
6f45: 1f d1 e0  jmp   ($e0d1+x)
6f48: e0        clrv
6f49: f0 ec     beq   $6f37
6f4b: fe 1e     dbnz  y,$6f6b
6f4d: a4 0f     sbc   a,$0f
6f4f: fd        mov   y,a
6f50: ad cb     cmp   y,#$cb
6f52: 0b 0c     asl   $0c
6f54: 21        tcall 2
6f55: d0 b4     bne   $6f0b
6f57: 4c 21 e0  lsr   $e021
6f5a: 01        tcall 0
6f5b: ff        stop
6f5c: 01        tcall 0
6f5d: ff        stop
6f5e: 01        tcall 0
6f5f: 88 bb     adc   a,#$bb
6f61: 01        tcall 0
6f62: 20        clrp
6f63: f1        tcall 15
6f64: 2e 11 21  cbne  $11,$6f87
6f67: 10 a4     bpl   $6f0d
6f69: 13 23 12  bbc0  $23,$6f7d
6f6c: 11        tcall 1
6f6d: 14 21     or    a,$21+x
6f6f: 20        clrp
6f70: 41        tcall 4
6f71: a4 f5     sbc   a,$f5
6f73: 2e f3 53  cbne  $f3,$6fc8
6f76: a5 1b 22  sbc   a,$221b
6f79: 0d        push  psw
6f7a: b4 11     sbc   a,$11+x
6f7c: e3 e2 ff  bbs7  $e2,$6f7d
6f7f: 20        clrp
6f80: 0e 40 22  tset1 $2240
6f83: b4 f0     sbc   a,$f0+x
6f85: e1        tcall 14
6f86: f2 c0     clr7  $c0
6f88: 1e fe 0e  cmp   x,$0efe
6f8b: 01        tcall 0
6f8c: b4 ff     sbc   a,$ff+x
6f8e: d2 ff     clr6  $ff
6f90: f1        tcall 15
6f91: c1        tcall 12
6f92: 0f        brk
6f93: 0f        brk
6f94: 02 a4     set0  $a4
6f96: bf        mov   a,(x)+
6f97: 13 f1 f1  bbc0  $f1,$6f8a
6f9a: d1        tcall 13
6f9b: 00        nop
6f9c: 0d        push  psw
6f9d: 2b a4     rol   $a4
6f9f: 20        clrp
6fa0: ef        sleep
6fa1: d0 1c     bne   $6fbf
6fa3: 1f ff cd  jmp   ($cdff+x)
6fa6: 3f a4 d1  call  $d1a4
6fa9: 00        nop
6faa: fe c2     dbnz  y,$6f6e
6fac: a1        tcall 10
6fad: 1e d3 ee  cmp   x,$eed3
6fb0: a4 1b     sbc   a,$1b
6fb2: fd        mov   y,a
6fb3: 03 f0 1f  bbs0  $f0,$6fd4
6fb6: de 1f e0  cbne  $1f+x,$6f98
6fb9: 94 e2     adc   a,$e2+x
6fbb: 4d        push  x
6fbc: f1        tcall 15
6fbd: 3e 02     cmp   x,$02
6fbf: 25 31 55  and   a,$5531
6fc2: 88 d4     adc   a,#$d4
6fc4: 3d        inc   x
6fc5: 11        tcall 1
6fc6: 16 0f 46  or    a,$460f+y
6fc9: c6        mov   (x),a
6fca: 31        tcall 3
6fcb: 84 77     adc   a,$77
6fcd: 17 45     or    a,($45)+y
6fcf: 46        eor   a,(x)
6fd0: 54 54     eor   a,$54+x
6fd2: 65 46 98  cmp   a,$9846
6fd5: 21        tcall 2
6fd6: 01        tcall 0
6fd7: 22 11     set1  $11
6fd9: 22 04     set1  $04
6fdb: 00        nop
6fdc: 6f        ret
6fdd: 94 17     adc   a,$17+x
6fdf: 61        tcall 6
6fe0: 53 22 2f  bbc2  $22,$7011
6fe3: 10 ee     bpl   $6fd3
6fe5: 1e 98 30  cmp   x,$3098
6fe8: d3 0d 4f  bbc6  $0d,$7039
6feb: ff        stop
6fec: 2e f0 f0  cbne  $f0,$6fde
6fef: 88 fd     adc   a,#$fd
6ff1: fe df     dbnz  y,$6fd2
6ff3: ec ef ce  mov   y,$ceef
6ff6: dd        mov   a,y
6ff7: dd        mov   a,y
6ff8: 88 fe     adc   a,#$fe
6ffa: cc ee dd  mov   $ddee,y
6ffd: dd        mov   a,y
6ffe: ee        pop   y
6fff: be        das   a
7000: dd        mov   a,y
7001: 98 ff fd  adc   $fd,#$ff
7004: e0        clrv
7005: e0        clrv
7006: cf        mul   ya
7007: fd        mov   y,a
7008: ef        sleep
7009: de 94 0b  cbne  $94+x,$7016
700c: ae        pop   a
700d: cc 0f d1  mov   $d10f,y
7010: 23 12 03  bbs1  $12,$7015
7013: 88 db     adc   a,#$db
7015: 2f 10     bra   $7027
7017: 3b 23     rol   $23+x
7019: 0f        brk
701a: 4f 21     pcall $21
701c: 88 22     adc   a,#$22
701e: 22 22     set1  $22
7020: 33 32 22  bbc1  $32,$7044
7023: 42 34     set2  $34
7025: a8 01     sbc   a,#$01
7027: 20        clrp
7028: 02 10     set0  $10
702a: 12 e2     clr0  $e2
702c: 10 32     bpl   $7060
702e: a4 00     sbc   a,$00
7030: 42 04     set2  $04
7032: 2d        push  a
7033: 00        nop
7034: 13 0e 12  bbc0  $0e,$7048
7037: a4 00     sbc   a,$00
7039: 00        nop
703a: f1        tcall 15
703b: fe 12     dbnz  y,$704f
703d: d1        tcall 13
703e: 30 d4     bmi   $7014
7040: 94 d9     adc   a,$d9+x
7042: 4f e2     pcall $e2
7044: db a3     mov   $a3+x,y
7046: db de     mov   $de+x,y
7048: ee        pop   y
7049: 88 de     adc   a,#$de
704b: 2c d1 f9  rol   $f9d1
704e: 10 ce     bpl   $701e
7050: ec fc 98  mov   y,$98fc
7053: ef        sleep
7054: 0f        brk
7055: c0        di
7056: 0d        push  psw
7057: ef        sleep
7058: fb 2e     mov   y,$2e+x
705a: 0d        push  psw
705b: a8 fd     sbc   a,#$fd
705d: 3f dd 4d  call  $4ddd
7060: f0 0d     beq   $706f
7062: 11        tcall 1
7063: ce        pop   x
7064: a4 1e     sbc   a,$1e
7066: d2 2e     clr6  $2e
7068: d4 1d     mov   $1d+x,a
706a: 45 00 31  eor   a,$3100
706d: a4 04     sbc   a,$04
706f: 30 40     bmi   $70b1
7071: 0e 52 ef  tset1 $ef52
7074: 12 ef     clr0  $ef
7076: a4 5e     sbc   a,$5e
7078: d4 1f     mov   $1f+x,a
707a: 03 c0 fd  bbs0  $c0,$7079
707d: f3 ef 98  bbc7  $ef,$7017
7080: 32 1e     clr1  $1e
7082: f5 d1 10  mov   a,$10d1+x
7085: 02 2f     set0  $2f
7087: 02 98     set0  $98
7089: 02 12     set0  $12
708b: e1        tcall 14
708c: 34 d1     and   a,$d1+x
708e: 52 c2     clr2  $c2
7090: 45 a4 03  eor   a,$03a4
7093: 1f 03 00  jmp   ($0003+x)
7096: 22 11     set1  $11
7098: 43 c2 a4  bbs2  $c2,$703e
709b: 50 d2     bvc   $706f
709d: 3f c0 51  call  $51c0
70a0: e0        clrv
70a1: 10 d0     bpl   $7073
70a3: a8 0d     sbc   a,#$0d
70a5: 23 e1 e1  bbs1  $e1,$7088
70a8: f1        tcall 15
70a9: 0d        push  psw
70aa: f4 f0     mov   a,$f0+x
70ac: a4 fc     sbc   a,$fc
70ae: fc        inc   y
70af: ef        sleep
70b0: ee        pop   y
70b1: c1        tcall 12
70b2: fe f0     dbnz  y,$70a4
70b4: 0e 94 dd  tset1 $dd94
70b7: 0c ae 1a  asl   $1aae
70ba: be        das   a
70bb: fd        mov   y,a
70bc: 9d        mov   x,sp
70bd: 0b a4     asl   $a4
70bf: d0 0f     bne   $70d0
70c1: ef        sleep
70c2: ee        pop   y
70c3: f2 df     clr7  $df
70c5: 0e ff b4  tset1 $b4ff
70c8: f3 00 ef  bbc7  $00,$70b9
70cb: 10 ff     bpl   $70cc
70cd: f1        tcall 15
70ce: 10 e1     bpl   $70b1
70d0: a4 6f     sbc   a,$6f
70d2: 00        nop
70d3: e2 22     set7  $22
70d5: d3 4e 1f  bbc6  $4e,$70f6
70d8: 22 a4     set1  $a4
70da: 00        nop
70db: 12 2e     clr0  $2e
70dd: 22 21     set1  $21
70df: 14 20     or    a,$20+x
70e1: 24 a8     and   a,$a8
70e3: f0 f3     beq   $70d8
70e5: 5a 22     cmpw  ya,$22
70e7: 3e e1     cmp   x,$e1
70e9: 52 de     clr2  $de
70eb: a4 25     sbc   a,$25
70ed: f9 12     mov   x,$12+y
70ef: 2e d2 ff  cbne  $d2,$70f0
70f2: 00        nop
70f3: ef        sleep
70f4: 94 06     adc   a,$06+x
70f6: ff        stop
70f7: 69 a5 13  cmp   ($13),($a5)
70fa: c0        di
70fb: 50 02     bvc   $70ff
70fd: a4 06     sbc   a,$06
70ff: 2d        push  a
7100: c1        tcall 12
7101: 21        tcall 2
7102: b4 e0     sbc   a,$e0+x
7104: 3d        inc   x
7105: d2 b4     clr6  $b4
7107: 0f        brk
7108: ee        pop   y
7109: 00        nop
710a: 10 c2     bpl   $70ce
710c: 0f        brk
710d: d1        tcall 13
710e: 00        nop
710f: a4 4b     sbc   a,$4b
7111: 02 f0     set0  $f0
7113: ed        notc
7114: 4f f1     pcall $f1
7116: d2 0c     clr6  $0c
7118: a4 dc     sbc   a,$dc
711a: 10 ee     bpl   $710a
711c: 12 e0     clr0  $e0
711e: eb 01     mov   y,$01
7120: 1f a4 b2  jmp   ($b2a4+x)
7123: 3d        inc   x
7124: d2 40     clr6  $40
7126: df        daa   a
7127: 03 10 2d  bbs0  $10,$7156
712a: a4 1e     sbc   a,$1e
712c: 01        tcall 0
712d: e1        tcall 14
712e: 0c 10 1f  asl   $1f10
7131: cc 12 a4  mov   $a412,y
7134: 0e f1 4f  tset1 $4ff1
7137: f1        tcall 15
7138: f1        tcall 15
7139: 51        tcall 5
713a: e2 22     set7  $22
713c: 94 c4     adc   a,$c4+x
713e: 36 02 27  and   a,$2702+y
7141: 60        clrc
7142: b2 10     clr5  $10
7144: 4f 94     pcall $94
7146: 2e 62 02  cbne  $62,$714a
7149: f2 ae     clr7  $ae
714b: de f3 1f  cbne  $f3+x,$716c
714e: 94 20     adc   a,$20+x
7150: 13 3f 30  bbc0  $3f,$7182
7153: 51        tcall 5
7154: c3 d1 21  bbs6  $d1,$7177
7157: 98 0b 60  adc   $60,#$0b
715a: 10 4c     bpl   $71a8
715c: 10 e2     bpl   $7140
715e: d4 f0     mov   $f0+x,a
7160: 94 fe     adc   a,$fe+x
7162: de ee 03  cbne  $ee+x,$7167
7165: f0 fc     beq   $7163
7167: b4 f2     sbc   a,$f2+x
7169: 94 e0     adc   a,$e0+x
716b: d2 4d     clr6  $4d
716d: 13 0d fd  bbc0  $0d,$716c
7170: 15 d1 94  or    a,$94d1+x
7173: f0 5d     beq   $71d2
7175: 1e 02 be  cmp   x,$be02
7178: f4 dc     mov   a,$dc+x
717a: 00        nop
717b: 94 3d     adc   a,$3d+x
717d: 0f        brk
717e: 63 12 d3  bbs3  $12,$7153
7181: 13 f2 31  bbc0  $f2,$71b4
7184: 94 cf     adc   a,$cf+x
7186: 13 f0 d0  bbc0  $f0,$7158
7189: e1        tcall 14
718a: c3 20 00  bbs6  $20,$718c
718d: 98 e2 d6  adc   $d6,#$e2
7190: c0        di
7191: 1f fc 50  jmp   ($50fc+x)
7194: c4 d4     mov   $d4,a
7196: 94 e0     adc   a,$e0+x
7198: ee        pop   y
7199: 6e 2f 0f  dbnz  $2f,$71aa
719c: 01        tcall 0
719d: fd        mov   y,a
719e: 00        nop
719f: 94 f1     adc   a,$f1+x
71a1: 10 21     bpl   $71c4
71a3: 40        setp
71a4: 01        tcall 0
71a5: f1        tcall 15
71a6: ef        sleep
71a7: 3f 84 30  call  $3084
71aa: f0 ce     beq   $717a
71ac: d1        tcall 13
71ad: e9 1f 14  mov   x,$141f
71b0: 0e 98 2e  tset1 $2e98
71b3: 1f 00 e1  jmp   ($e100+x)
71b6: f1        tcall 15
71b7: 0b 40     asl   $40
71b9: d3 94 ce  bbc6  $94,$7189
71bc: ff        stop
71bd: fd        mov   y,a
71be: de e1 b0  cbne  $e1+x,$7170
71c1: ef        sleep
71c2: ee        pop   y
71c3: 94 2e     adc   a,$2e+x
71c5: f2 e0     clr7  $e0
71c7: 30 42     bmi   $720b
71c9: 2e 21 20  cbne  $21,$71eb
71cc: 94 fe     adc   a,$fe+x
71ce: e3 0f 3f  bbs7  $0f,$720f
71d1: 61        tcall 6
71d2: 20        clrp
71d3: 34 d2     and   a,$d2+x
71d5: 84 e4     adc   a,$e4
71d7: 0c f4 cb  asl   $cbf4
71da: fc        inc   y
71db: 4e 42 33  tclr1 $3342
71de: 88 15     adc   a,#$15
71e0: 3a 23     incw  $23
71e2: 11        tcall 1
71e3: 5f d5 10  jmp   $10d5
71e6: 51        tcall 5
71e7: 94 0f     adc   a,$0f+x
71e9: 11        tcall 1
71ea: 32 3f     clr1  $3f
71ec: 32 12     clr1  $12
71ee: 32 f3     clr1  $f3
71f0: 98 fd 33  adc   $33,#$fd
71f3: 0f        brk
71f4: 30 1d     bmi   $7213
71f6: 44 1c     eor   a,$1c
71f8: 1c        asl   a
71f9: 94 23     adc   a,$23+x
71fb: 10 e2     bpl   $71df
71fd: fb ff     mov   y,$ff+x
71ff: 00        nop
7200: 0f        brk
7201: ff        stop
7202: 94 e1     adc   a,$e1+x
7204: 01        tcall 0
7205: 12 c4     clr0  $c4
7207: 01        tcall 0
7208: 01        tcall 0
7209: 0f        brk
720a: d2 94     clr6  $94
720c: dd        mov   a,y
720d: 0f        brk
720e: cf        mul   ya
720f: 1f db ce  jmp   ($cedb+x)
7212: fd        mov   y,a
7213: be        das   a
7214: 94 ef     adc   a,$ef+x
7216: a1        tcall 10
7217: 00        nop
7218: c1        tcall 12
7219: ff        stop
721a: ed        notc
721b: ee        pop   y
721c: c9 98 30  mov   $3098,x
721f: 0b d4     asl   $d4
7221: c1        tcall 12
7222: 0f        brk
7223: e0        clrv
7224: fc        inc   y
7225: 21        tcall 2
7226: 84 93     adc   a,$93
7228: 93 cf ad  bbc4  $cf,$71d7
722b: c2 0d     set6  $0d
722d: ba e4     movw  ya,$e4
722f: 94 bd     adc   a,$bd+x
7231: de ec 2f  cbne  $ec+x,$7262
7234: bd        mov   sp,x
7235: 4f c3     pcall $c3
7237: 20        clrp
7238: 98 2e d1  adc   $d1,#$2e
723b: 0f        brk
723c: 4f e0     pcall $e0
723e: 3c        rol   a
723f: f4 e3     mov   a,$e3+x
7241: a8 e2     sbc   a,#$e2
7243: 1e 02 e3  cmp   x,$e302
7246: 1e 2f 3e  cmp   x,$3e2f
7249: 03 94 4e  bbs0  $94,$7299
724c: f0 03     beq   $7251
724e: 02 22     set0  $22
7250: f0 b3     beq   $7205
7252: 2c 94 52  rol   $5294
7255: 11        tcall 1
7256: 0f        brk
7257: 04 31     or    a,$31
7259: e5 20 23  mov   a,$2320
725c: 98 3b 41  adc   $41,#$3b
725f: 1e 23 03  cmp   x,$0323
7262: 1e e2 13  cmp   x,$13e2
7265: a4 10     sbc   a,$10
7267: 0f        brk
7268: 41        tcall 4
7269: 01        tcall 0
726a: 1f 12 1e  jmp   ($1e12+x)
726d: 20        clrp
726e: 94 ef     adc   a,$ef+x
7270: 12 de     clr0  $de
7272: 0e 30 90  tset1 $9030
7275: 3e e2     cmp   x,$e2
7277: 94 fe     adc   a,$fe+x
7279: ef        sleep
727a: fa df de  mov   ($de),($df)
727d: ed        notc
727e: b2 ff     clr5  $ff
7280: 94 0f     adc   a,$0f+x
7282: cb d0     mov   $d0,y
7284: 92 c0     clr4  $c0
7286: ee        pop   y
7287: 1b 32     asl   $32+x
7289: 94 f0     adc   a,$f0+x
728b: 10 10     bpl   $729d
728d: 04 00     or    a,$00
728f: ff        stop
7290: e0        clrv
7291: ef        sleep
7292: 98 f0 e0  adc   $e0,#$f0
7295: 01        tcall 0
7296: c2 df     set6  $df
7298: d5 c0 f1  mov   $f1c0+x,a
729b: a4 ff     sbc   a,$ff
729d: fe 00     dbnz  y,$729f
729f: c0        di
72a0: 0f        brk
72a1: 0e 1f 00  tset1 $001f
72a4: 94 30     adc   a,$30+x
72a6: ee        pop   y
72a7: 0e 12 4e  tset1 $4e12
72aa: 31        tcall 3
72ab: 2e 21 84  cbne  $21,$7231
72ae: 26        and   a,(x)
72af: 25 b0 32  and   a,$32b0
72b2: 17 e0     or    a,($e0)+y
72b4: de 42 98  cbne  $42+x,$724e
72b7: f4 b3     mov   a,$b3+x
72b9: 2b 6f     rol   $6f
72bb: 12 0c     clr0  $0c
72bd: 40        setp
72be: 15 98 e0  or    a,$e098+x
72c1: 5f 1e 30  jmp   $301e
72c4: 2f 14     bra   $72da
72c6: c2 11     set6  $11
72c8: 94 01     adc   a,$01+x
72ca: 0d        push  psw
72cb: 31        tcall 3
72cc: 0f        brk
72cd: 12 f1     clr0  $f1
72cf: fe 41     dbnz  y,$7312
72d1: 94 01     adc   a,$01+x
72d3: 24 13     and   a,$13
72d5: 31        tcall 3
72d6: 2f 0f     bra   $72e7
72d8: 1d        dec   x
72d9: 1f 94 0f  jmp   ($0f94+x)
72dc: ed        notc
72dd: f0 d0     beq   $72af
72df: f2 b2     clr7  $b2
72e1: 30 e1     bmi   $72c4
72e3: 94 fe     adc   a,$fe+x
72e5: 1d        dec   x
72e6: 0e e0 ff  tset1 $ffe0
72e9: ef        sleep
72ea: e1        tcall 14
72eb: af        mov   (x)+,a
72ec: 94 df     adc   a,$df+x
72ee: fe e2     dbnz  y,$72d2
72f0: ed        notc
72f1: 0f        brk
72f2: fd        mov   y,a
72f3: d2 de     clr6  $de
72f5: 94 04     adc   a,$04+x
72f7: fd        mov   y,a
72f8: 02 0e     set0  $0e
72fa: 21        tcall 2
72fb: f1        tcall 15
72fc: c0        di
72fd: 21        tcall 2
72fe: 94 b2     adc   a,$b2+x
7300: f0 fb     beq   $72fd
7302: d2 1f     clr6  $1f
7304: 00        nop
7305: 3e 10     cmp   x,$10
7307: 94 11     adc   a,$11+x
7309: 0f        brk
730a: f4 de     mov   a,$de+x
730c: 11        tcall 1
730d: e1        tcall 14
730e: 20        clrp
730f: f1        tcall 15
7310: 84 52     adc   a,$52
7312: 04 35     or    a,$35
7314: df        daa   a
7315: 31        tcall 3
7316: d3 22 13  bbc6  $22,$732b
7319: 84 f5     adc   a,$f5
731b: 12 9d     clr0  $9d
731d: 51        tcall 5
731e: f5 12 d6  mov   a,$d612+x
7321: ef        sleep
7322: 94 05     adc   a,$05+x
7324: f0 45     beq   $736b
7326: f5 24 04  mov   a,$0424+x
7329: 35 32 94  and   a,$9432+x
732c: f0 f1     beq   $731f
732e: a0        ei
732f: 0d        push  psw
7330: b1        tcall 11
7331: b2 ff     clr5  $ff
7333: ff        stop
7334: 90 0e     bcc   $7344
7336: ef        sleep
7337: 30 ff     bmi   $7338
7339: 21        tcall 2
733a: 1e cf dd  cmp   x,$ddcf
733d: 94 11     adc   a,$11+x
733f: eb 01     mov   y,$01
7341: 11        tcall 1
7342: 03 f0 0f  bbs0  $f0,$7353
7345: 11        tcall 1
7346: 98 0b 23  adc   $23,#$0b
7349: b0 33     bcs   $737e
734b: fb d4     mov   y,$d4+x
734d: 1c        asl   a
734e: 4c 84 70  lsr   $7084
7351: f0 ef     beq   $7342
7353: f5 23 2f  mov   a,$2f23+x
7356: f2 01     clr7  $01
7358: 84 e2     adc   a,$e2
735a: 0e cf 1c  tset1 $1ccf
735d: ef        sleep
735e: 10 c6     bpl   $7326
7360: f1        tcall 15
7361: 84 f2     adc   a,$f2
7363: df        daa   a
7364: fd        mov   y,a
7365: f4 bc     mov   a,$bc+x
7367: 0f        brk
7368: ed        notc
7369: d0 84     bne   $72ef
736b: df        daa   a
736c: 2e 00 13  cbne  $00,$7381
736f: 42 32     set2  $32
7371: f2 22     clr7  $22
7373: 84 21     adc   a,$21
7375: 41        tcall 4
7376: 0e 50 f2  tset1 $f250
7379: 62 12     set3  $12
737b: 2f 74     bra   $73f1
737d: f6 ff ca  mov   a,$caff+y
7380: 42 be     set2  $be
7382: ca d1 4e  mov1  $09da,1,c
7385: 74 e3     cmp   a,$e3+x
7387: ff        stop
7388: fe 1f     dbnz  y,$73a9
738a: 32 23     clr1  $23
738c: d6 2f 74  mov   $742f+y,a
738f: f3 5c 2d  bbc7  $5c,$73be
7392: 4d        push  x
7393: 11        tcall 1
7394: 21        tcall 2
7395: 20        clrp
7396: 0f        brk
7397: 64 dd     cmp   a,$dd
7399: 2b 30     rol   $30
739b: dd        mov   a,y
739c: ed        notc
739d: d1        tcall 13
739e: 5d        mov   x,a
739f: e5 60 5f  mov   a,$5f60
73a2: d0 54     bne   $73f8
73a4: 35 42 1f  and   a,$1f42+x
73a7: f0 1f     beq   $73c8
73a9: 60        clrc
73aa: 10 1d     bpl   $73c9
73ac: ec 0f fd  mov   y,$fd0f
73af: e0        clrv
73b0: df        daa   a
73b1: ef        sleep
73b2: 54 e1     eor   a,$e1+x
73b4: cf        mul   ya
73b5: e2 1e     set7  $1e
73b7: 01        tcall 0
73b8: 1e f5 ff  cmp   x,$fff5
73bb: 35 3f da  and   a,$da3f+x
73be: 16 30 00  or    a,$0030+y
73c1: 4d        push  x
73c2: 61        tcall 6
73c3: fd        mov   y,a
73c4: 00        nop
73c5: 00        nop
73c6: 00        nop
73c7: 00        nop
73c8: 00        nop
73c9: 00        nop
73ca: 00        nop
73cb: 00        nop
73cc: 00        nop
73cd: a4 12     sbc   a,$12
73cf: f2 d3     clr7  $d3
73d1: c1        tcall 12
73d2: 11        tcall 1
73d3: ee        pop   y
73d4: 04 f2     or    a,$f2
73d6: a0        ei
73d7: 12 33     clr0  $33
73d9: d2 c3     clr6  $c3
73db: dc        dec   y
73dc: ff        stop
73dd: eb 10     mov   y,$10
73df: a0        ei
73e0: 01        tcall 0
73e1: 01        tcall 0
73e2: 00        nop
73e3: 20        clrp
73e4: 22 20     set1  $20
73e6: 1c        asl   a
73e7: 0e 90 0f  tset1 $0f90
73ea: 01        tcall 0
73eb: f0 ed     beq   $73da
73ed: 4d        push  x
73ee: a2 0d     set5  $0d
73f0: f5 a0 0f  mov   a,$0fa0+x
73f3: d1        tcall 13
73f4: 9d        mov   x,sp
73f5: bc        inc   a
73f6: fd        mov   y,a
73f7: ff        stop
73f8: 1e dc a0  cmp   x,$a0dc
73fb: fb 20     mov   y,$20+x
73fd: 01        tcall 0
73fe: 10 f3     bpl   $73f3
7400: 01        tcall 0
7401: 11        tcall 1
7402: f1        tcall 15
7403: a0        ei
7404: ef        sleep
7405: 21        tcall 2
7406: 0f        brk
7407: 0a be ec  or1   c,$1d97,6
740a: ed        notc
740b: bc        inc   a
740c: a4 3e     sbc   a,$3e
740e: 23 f0 e2  bbs1  $f0,$73f2
7411: 02 03     set0  $03
7413: 00        nop
7414: d5 a4 ef  mov   $efa4+x,a
7417: 2c ef fd  rol   $fdef
741a: 21        tcall 2
741b: 0d        push  psw
741c: 41        tcall 4
741d: ed        notc
741e: a4 fd     sbc   a,$fd
7420: 4c 3c 5f  lsr   $5f3c
7423: 1e 12 e1  cmp   x,$e112
7426: 12 a4     clr0  $a4
7428: f1        tcall 15
7429: f0 02     beq   $742d
742b: c2 11     set6  $11
742d: ff        stop
742e: 4d        push  x
742f: 20        clrp
7430: a4 f1     sbc   a,$f1
7432: 0f        brk
7433: 3c        rol   a
7434: 10 e3     bpl   $7419
7436: d1        tcall 13
7437: d4 12     mov   $12+x,a
7439: a4 d1     sbc   a,$d1
743b: ef        sleep
743c: 0f        brk
743d: 11        tcall 1
743e: 0c 22 ff  asl   $ff22
7441: 0f        brk
7442: a0        ei
7443: de e0 f3  cbne  $e0+x,$7438
7446: 30 40     bmi   $7488
7448: 01        tcall 0
7449: 0e ee a0  tset1 $a0ee
744c: ee        pop   y
744d: 0e 2c fa  tset1 $fa2c
7450: fe 0d     dbnz  y,$745f
7452: ef        sleep
7453: db a0     mov   $a0+x,y
7455: fd        mov   y,a
7456: 2f 62     bra   $74ba
7458: 25 62 51  and   a,$5162
745b: 33 30 a0  bbc1  $30,$73fd
745e: 03 0f f1  bbs0  $0f,$7451
7461: 12 04     clr0  $04
7463: 23 f3 00  bbs1  $f3,$7465
7466: 90 10     bcc   $7478
7468: ff        stop
7469: 1f e3 9d  jmp   ($9de3+x)
746c: 05 fc cc  or    a,$ccfc
746f: 94 d6     adc   a,$d6+x
7471: e3 e3 dd  bbs7  $e3,$7450
7474: e5 b1 e3  mov   a,$e3b1
7477: a0        ei
7478: a0        ei
7479: ce        pop   x
747a: d0 bd     bne   $7439
747c: fd        mov   y,a
747d: 02 00     set0  $00
747f: f0 02     beq   $7483
7481: a4 3d     sbc   a,$3d
7483: 1d        dec   x
7484: 2e 5d 4f  cbne  $5d,$74d5
7487: 03 d3 e2  bbs0  $d3,$746b
748a: a4 2a     sbc   a,$2a
748c: 3d        inc   x
748d: 1d        dec   x
748e: 2c 02 34  rol   $3402
7491: df        daa   a
7492: e3 a0 22  bbs7  $a0,$74b6
7495: 10 11     bpl   $74a8
7497: f0 cd     beq   $7466
7499: 0b ff     asl   $ff
749b: e0        clrv
749c: a4 a4     sbc   a,$a4
749e: d3 f0 ef  bbc6  $f0,$748f
74a1: d5 13 b5  mov   $b513+x,a
74a4: c2 a0     set6  $a0
74a6: 1f 3f f0  jmp   ($f03f+x)
74a9: 13 24 23  bbc0  $24,$74ce
74ac: cf        mul   ya
74ad: fb a0     mov   y,$a0+x
74af: 0b 1f     asl   $1f
74b1: 12 03     clr0  $03
74b3: 31        tcall 3
74b4: 2d        push  a
74b5: 4d        push  x
74b6: ea b0 ff  not1  $1ff6,0
74b9: 0e 21 3f  tset1 $3f21
74bc: 40        setp
74bd: 1e 01 11  cmp   x,$1101
74c0: a4 c3     sbc   a,$c3
74c2: f6 cf 3e  mov   a,$3ecf+y
74c5: 1b 30     asl   $30+x
74c7: de 01 a0  cbne  $01+x,$7469
74ca: ae        pop   a
74cb: db 1a     mov   $1a+x,y
74cd: fb 24     mov   y,$24+x
74cf: 0b 4d     asl   $4d
74d1: 3c        rol   a
74d2: b0 31     bcs   $7505
74d4: 11        tcall 1
74d5: 0c 10 0d  asl   $0d10
74d8: e2 f1     set7  $f1
74da: e1        tcall 14
74db: a0        ei
74dc: 1f 0f fe  jmp   ($fe0f+x)
74df: cd 0d     mov   x,#$0d
74e1: ab 2b     inc   $2b
74e3: 1e a0 d2  cmp   x,$d2a0
74e6: b1        tcall 11
74e7: c2 c3     set6  $c3
74e9: b2 df     clr5  $df
74eb: 21        tcall 2
74ec: f3 b4 01  bbc7  $b4,$74ef
74ef: d3 02 c5  bbc6  $02,$74b6
74f2: e0        clrv
74f3: 00        nop
74f4: 00        nop
74f5: ff        stop
74f6: a4 0c     sbc   a,$0c
74f8: 1d        dec   x
74f9: f2 e3     clr7  $e3
74fb: d0 b2     bne   $74af
74fd: 50 2d     bvc   $752c
74ff: a0        ei
7500: cb fd     mov   $fd,y
7502: cc 10 34  mov   $3410,y
7505: 31        tcall 3
7506: 05 f4 a0  or    a,$a0f4
7509: 25 02 10  and   a,$1002
750c: ec e5 00  mov   y,$00e5
750f: f3 df a4  bbc7  $df,$74b5
7512: c3 d1 e4  bbs6  $d1,$74f8
7515: 10 00     bpl   $7517
7517: 00        nop
7518: 2c 2e a4  rol   $a42e
751b: 3d        inc   x
751c: 31        tcall 3
751d: 1d        dec   x
751e: 21        tcall 2
751f: f3 c4 1d  bbc7  $c4,$753e
7522: e4 a4     mov   a,$a4
7524: e1        tcall 14
7525: f4 b3     mov   a,$b3+x
7527: e0        clrv
7528: e3 d0 c3  bbs7  $d0,$74ed
752b: 1e a4 5c  cmp   x,$5ca4
752e: e3 f3 02  bbs7  $f3,$7532
7531: a2 e4     set5  $e4
7533: 11        tcall 1
7534: 4d        push  x
7535: a4 4c     sbc   a,$4c
7537: fd        mov   y,a
7538: 11        tcall 1
7539: 3f 1b 32  call  $321b
753c: f1        tcall 15
753d: a5 94 1d  sbc   a,$1d94
7540: 05 3a 45  or    a,$453a
7543: cf        mul   ya
7544: f4 fd     mov   a,$fd+x
7546: be        das   a
7547: a4 d4     sbc   a,$d4
7549: d3 d1 f1  bbc6  $d1,$753c
754c: 1f 3c 00  jmp   ($003c+x)
754f: 01        tcall 0
7550: a4 b6     sbc   a,$b6
7552: 0c 21 13  asl   $1321
7555: a5 e2 1e  sbc   a,$1ee2
7558: c3 a0 fc  bbs6  $a0,$7556
755b: ed        notc
755c: d0 0f     bne   $756d
755e: 62 20     set3  $20
7560: 2d        push  a
7561: 1d        dec   x
7562: b4 02     sbc   a,$02+x
7564: ee        pop   y
7565: 02 c2     set0  $c2
7567: 03 e0 f0  bbs0  $e0,$7559
756a: 13 a4 c0  bbc0  $a4,$752c
756d: 4d        push  x
756e: de 24 4c  cbne  $24+x,$75bc
7571: c0        di
7572: 53 00 b4  bbc2  $00,$7528
7575: 5c        lsr   a
7576: 01        tcall 0
7577: 1e 2f ee  cmp   x,$ee2f
757a: f1        tcall 15
757b: 00        nop
757c: 01        tcall 0
757d: b0 f0     bcs   $756f
757f: ff        stop
7580: fc        inc   y
7581: ff        stop
7582: 1d        dec   x
7583: 00        nop
7584: 01        tcall 0
7585: d1        tcall 13
7586: a0        ei
7587: 9c        dec   a
7588: ed        notc
7589: fb 45     mov   y,$45+x
758b: b3 22 07  bbc5  $22,$7594
758e: 33 a4 ef  bbc1  $a4,$757f
7591: 2f 4e     bra   $75e1
7593: 1b 3c     asl   $3c+x
7595: 52 01     clr2  $01
7597: fc        inc   y
7598: a0        ei
7599: 2c 0c 0e  rol   $0e0c
759c: 1c        asl   a
759d: ec be dc  mov   y,$dcbe
75a0: 0e a0 02  tset1 $02a0
75a3: 22 ff     set1  $ff
75a5: ee        pop   y
75a6: 34 e5     and   a,$e5+x
75a8: 54 0e     eor   a,$0e+x
75aa: b0 01     bcs   $75ad
75ac: de ed df  cbne  $ed+x,$758d
75af: ee        pop   y
75b0: 21        tcall 2
75b1: 03 f1 a0  bbs0  $f1,$7553
75b4: a0        ei
75b5: b1        tcall 11
75b6: be        das   a
75b7: ec f9 14  mov   y,$14f9
75ba: 33 a3 a0  bbc1  $a3,$755c
75bd: d2 56     clr6  $56
75bf: 31        tcall 3
75c0: 2f 20     bra   $75e2
75c2: 0f        brk
75c3: e5 e2 a0  mov   a,$a0e2
75c6: 2d        push  a
75c7: 64 05     cmp   a,$05
75c9: 6f        ret
75ca: 0e c2 10  tset1 $10c2
75cd: d0 a0     bne   $756f
75cf: ff        stop
75d0: f5 f1 56  mov   a,$56f1+x
75d3: 34 63     and   a,$63+x
75d5: d0 ee     bne   $75c5
75d7: a0        ei
75d8: 13 21 05  bbc0  $21,$75df
75db: 1f fe f0  jmp   ($f0fe+x)
75de: ff        stop
75df: 13 a4 e4  bbc0  $a4,$75c5
75e2: d1        tcall 13
75e3: f5 01 fd  mov   a,$fd01+x
75e6: fc        inc   y
75e7: 5d        mov   x,a
75e8: 02 b0     set0  $b0
75ea: 00        nop
75eb: 22 0b     set1  $0b
75ed: ea be 3e  not1  $07d7,6
75f0: 0c 4e b0  asl   $b04e
75f3: 31        tcall 3
75f4: 43 42 2d  bbs2  $42,$7623
75f7: 23 f4 d1  bbs1  $f4,$75ca
75fa: 23 b0 e4  bbs1  $b0,$75e0
75fd: d0 ff     bne   $75fe
75ff: 04 e3     or    a,$e3
7601: 12 ef     clr0  $ef
7603: e3 b0 e0  bbs7  $b0,$75e5
7606: ee        pop   y
7607: f0 14     beq   $761d
7609: 30 c2     bmi   $75cd
760b: 0d        push  psw
760c: 26        and   a,(x)
760d: c4 ff     mov   $ff,a
760f: ff        stop
7610: 2e f1 e4  cbne  $f1,$75f6
7613: ff        stop
7614: c4 e1     mov   $e1,a
7616: c0        di
7617: f3 f0 00  bbc7  $f0,$7619
761a: f1        tcall 15
761b: ee        pop   y
761c: 2e 05 1f  cbne  $05,$763d
761f: b0 b1     bcs   $75d2
7621: 03 cb bf  bbs0  $cb,$75e2
7624: a2 32     set5  $32
7626: 44 23     eor   a,$23
7628: b4 5b     sbc   a,$5b+x
762a: 2d        push  a
762b: df        daa   a
762c: 3d        inc   x
762d: 4e 20 f1  tclr1 $f120
7630: f2 c0     clr7  $c0
7632: de cf ff  cbne  $cf+x,$7633
7635: 0f        brk
7636: 0f        brk
7637: 1f 0c e0  jmp   ($e00c+x)
763a: b4 12     sbc   a,$12+x
763c: bb 4c     inc   $4c+x
763e: 52 a2     clr2  $a2
7640: 2e 51 3a  cbne  $51,$767c
7643: b0 32     bcs   $7677
7645: f6 45 05  mov   a,$0545+y
7648: 24 66     and   a,$66
764a: 56 e1 c4  eor   a,$c4e1+y
764d: 0c 1e 3d  asl   $3d1e
7650: 10 21     bpl   $7673
7652: 3c        rol   a
7653: 03 e1 b0  bbs0  $e1,$7605
7656: 01        tcall 0
7657: e3 21 00  bbs7  $21,$7659
765a: ee        pop   y
765b: 3e fd     cmp   x,$fd
765d: 04 b0     or    a,$b0
765f: 52 1f     clr2  $1f
7661: 2f ff     bra   $7662
7663: fb 0d     mov   y,$0d+x
7665: ff        stop
7666: 2d        push  a
7667: b0 1e     bcs   $7687
7669: cd f0     mov   x,#$f0
766b: 30 e0     bmi   $764d
766d: a1        tcall 10
766e: 11        tcall 1
766f: bd        mov   sp,x
7670: b0 0d     bcs   $767f
7672: 63 ee 5f  bbs3  $ee,$76d3
7675: 20        clrp
7676: 2a 1e ef  or1   c,!($1de3,6)
7679: c0        di
767a: f1        tcall 15
767b: 05 22 23  or    a,$2322
767e: 21        tcall 2
767f: d0 cd     bne   $764e
7681: cd c0     mov   x,#$c0
7683: ff        stop
7684: 2e 30 24  cbne  $30,$76aa
7687: f1        tcall 15
7688: 12 af     clr0  $af
768a: 9e        div   ya,x
768b: c4 c4     mov   $c4,a
768d: e3 2f 11  bbs7  $2f,$76a0
7690: 0d        push  psw
7691: 2f 4d     bra   $76e0
7693: 4e c0 32  tclr1 $32c0
7696: 41        tcall 4
7697: 11        tcall 1
7698: e0        clrv
7699: ae        pop   a
769a: ee        pop   y
769b: ed        notc
769c: fc        inc   y
769d: b0 ad     bcs   $764c
769f: 1d        dec   x
76a0: c0        di
76a1: 0e eb 10  tset1 $10eb
76a4: 40        setp
76a5: 35 c0 33  and   a,$33c0+x
76a8: 13 00 0e  bbc0  $00,$76b8
76ab: 0f        brk
76ac: 30 00     bmi   $76ae
76ae: 11        tcall 1
76af: c0        di
76b0: 1e fe fe  cmp   x,$fefe
76b3: 1c        asl   a
76b4: ff        stop
76b5: 0e 0e db  tset1 $db0e
76b8: b0 0d     bcs   $76c7
76ba: df        daa   a
76bb: 10 c2     bpl   $767f
76bd: 02 f4     set0  $f4
76bf: f3 32 b4  bbc7  $32,$7675
76c2: 30 fc     bmi   $76c0
76c4: 10 00     bpl   $76c6
76c6: ec 0e 7e  mov   y,$7e0e
76c9: 20        clrp
76ca: b0 42     bcs   $770e
76cc: 44 f3     eor   a,$f3
76ce: f2 f0     clr7  $f0
76d0: 1e e4 54  cmp   x,$54e4
76d3: b4 21     sbc   a,$21+x
76d5: ed        notc
76d6: 4c 10 d3  lsr   $d310
76d9: 0f        brk
76da: 2a e2 c0  or1   c,!($181c,2)
76dd: ee        pop   y
76de: d1        tcall 13
76df: ed        notc
76e0: e0        clrv
76e1: 00        nop
76e2: e0        clrv
76e3: 1f 0d b4  jmp   ($b40d+x)
76e6: 3e e5     cmp   x,$e5
76e8: 1f 2f 20  jmp   ($202f+x)
76eb: fe 2f     dbnz  y,$771c
76ed: 21        tcall 2
76ee: b4 e3     sbc   a,$e3+x
76f0: 0e d1 de  tset1 $ded1
76f3: 4d        push  x
76f4: 12 d3     clr0  $d3
76f6: f1        tcall 15
76f7: b0 f0     bcs   $76e9
76f9: 20        clrp
76fa: 12 e4     clr0  $e4
76fc: 9a ef     subw  ya,$ef
76fe: 01        tcall 0
76ff: f0 c0     beq   $76c1
7701: 31        tcall 3
7702: 32 31     clr1  $31
7704: 12 30     clr0  $30
7706: 33 2e 12  bbc1  $2e,$771a
7709: b4 9b     sbc   a,$9b+x
770b: f1        tcall 15
770c: c7 0e     mov   ($0e+x),a
770e: 32 c3     clr1  $c3
7710: 02 df     set0  $df
7712: c4 01     mov   $01,a
7714: f0 1e     beq   $7734
7716: 21        tcall 2
7717: 12 f2     clr0  $f2
7719: c2 e1     set6  $e1
771b: b4 ee     sbc   a,$ee+x
771d: 34 10     and   a,$10+x
771f: df        daa   a
7720: 3e 3d     cmp   x,$3d
7722: 0f        brk
7723: 2f b0     bra   $76d5
7725: 2e cf 0f  cbne  $cf,$7736
7728: 1c        asl   a
7729: 21        tcall 2
772a: 52 df     clr2  $df
772c: f1        tcall 15
772d: c0        di
772e: 12 02     clr0  $02
7730: f3 f0 ee  bbc7  $f0,$7720
7733: bb ff     inc   $ff+x
7735: 1d        dec   x
7736: b0 00     bcs   $7738
7738: 1e df 20  cmp   x,$20df
773b: e5 f3 f3  mov   a,$f3f3
773e: 21        tcall 2
773f: c4 ff     mov   $ff,a
7741: b5 d0 f5  sbc   a,$f5d0+x
7744: 1f ef 4f  jmp   ($4fef+x)
7747: 02 c4     set0  $c4
7749: f0 11     beq   $775c
774b: 2f f4     bra   $7741
774d: df        daa   a
774e: ef        sleep
774f: f1        tcall 15
7750: f1        tcall 15
7751: b4 e6     sbc   a,$e6+x
7753: c5 cb f2  mov   $f2cb,a
7756: ef        sleep
7757: e4 f1     mov   a,$f1
7759: e3 b4 12  bbs7  $b4,$776d
775c: d6 f0 f3  mov   $f3f0+y,a
775f: e5 12 10  mov   a,$1012
7762: e1        tcall 14
7763: b4 de     sbc   a,$de+x
7765: 5d        mov   x,a
7766: 01        tcall 0
7767: 0b ff     asl   $ff
7769: 20        clrp
776a: b0 50     bcs   $77bc
776c: b4 bd     sbc   a,$bd+x
776e: 00        nop
776f: 69 d3 00  cmp   ($00),($d3)
7772: e3 54 ae  bbs7  $54,$7722
7775: a0        ei
7776: 63 bc 36  bbs3  $bc,$77ae
7779: 67 4e     cmp   a,($4e+x)
777b: 16 fd d2  or    a,$d2fd+y
777e: a0        ei
777f: 00        nop
7780: 26        and   a,(x)
7781: f2 f7     clr7  $f7
7783: 44 f3     eor   a,$f3
7785: 04 01     or    a,$01
7787: 90 62     bcc   $77eb
7789: de 0c f0  cbne  $0c+x,$777b
778c: d2 c3     clr6  $c3
778e: f3 ed a4  bbc7  $ed,$7734
7791: d4 1c     mov   $1c+x,a
7793: b1        tcall 11
7794: e4 2f     mov   a,$2f
7796: 02 21     set0  $21
7798: 4e b4 00  tclr1 $00b4
779b: 10 e0     bpl   $777d
779d: fd        mov   y,a
779e: 00        nop
779f: 21        tcall 2
77a0: 0d        push  psw
77a1: 64 b4     cmp   a,$b4
77a3: 0e 01 ff  tset1 $ff01
77a6: fd        mov   y,a
77a7: 03 f0 12  bbs0  $f0,$77bb
77aa: b1        tcall 11
77ab: b4 1d     sbc   a,$1d+x
77ad: c3 fe e4  bbs6  $fe,$7793
77b0: 0d        push  psw
77b1: 40        setp
77b2: f1        tcall 15
77b3: 20        clrp
77b4: b4 df     sbc   a,$df+x
77b6: ec 16 e1  mov   y,$e116
77b9: 00        nop
77ba: 0e 22 21  tset1 $2122
77bd: b4 f4     sbc   a,$f4+x
77bf: ff        stop
77c0: ef        sleep
77c1: 0f        brk
77c2: e0        clrv
77c3: 2e 0e 54  cbne  $0e,$7819
77c6: b0 24     bcs   $77ec
77c8: 33 33 ee  bbc1  $33,$77b8
77cb: bb cd     inc   $cd+x
77cd: cc ed a4  mov   $a4ed,y
77d0: 3d        inc   x
77d1: 32 5f     clr1  $5f
77d3: f0 12     beq   $77e7
77d5: f0 00     beq   $77d7
77d7: e0        clrv
77d8: a4 db     sbc   a,$db
77da: 63 3e 10  bbs3  $3e,$77ec
77dd: 00        nop
77de: f4 00     mov   a,$00+x
77e0: 11        tcall 1
77e1: b4 ff     sbc   a,$ff+x
77e3: be        das   a
77e4: 1b fd     asl   $fd+x
77e6: fd        mov   y,a
77e7: 42 01     set2  $01
77e9: 23 b4 21  bbs1  $b4,$780c
77ec: 21        tcall 2
77ed: 12 cf     clr0  $cf
77ef: 3f 04 22  call  $2204
77f2: 1f b4 f0  jmp   ($f0b4+x)
77f5: 0e dd 00  tset1 $00dd
77f8: f1        tcall 15
77f9: d0 0e     bne   $7809
77fb: 03 a4 3f  bbs0  $a4,$783c
77fe: d1        tcall 13
77ff: ef        sleep
7800: fd        mov   y,a
7801: 16 03 ec  or    a,$ec03+y
7804: f3 a4 10  bbc7  $a4,$7816
7807: f3 ed 2f  bbc7  $ed,$7838
780a: 14 b1     or    a,$b1+x
780c: 41        tcall 4
780d: 32 b4     clr1  $b4
780f: 11        tcall 1
7810: 3f e0 1e  call  $1ee0
7813: 0f        brk
7814: ec 1e 01  mov   y,$011e
7817: b4 2f     sbc   a,$2f+x
7819: ef        sleep
781a: 10 1f     bpl   $783b
781c: fd        mov   y,a
781d: 43 20 0f  bbs2  $20,$782e
7820: a4 ac     sbc   a,$ac
7822: b4 d2     sbc   a,$d2+x
7824: 15 66 42  or    a,$4266+x
7827: 3f c2 b4  call  $b4c2
782a: ee        pop   y
782b: 21        tcall 2
782c: ee        pop   y
782d: ef        sleep
782e: 3a ef     incw  $ef
7830: 5d        mov   x,a
7831: e1        tcall 14
7832: a4 04     sbc   a,$04
7834: d7 b2     mov   ($b2)+y,a
7836: 6b 22     ror   $22
7838: e2 d3     set7  $d3
783a: 43 94 e2  bbs2  $94,$781e
783d: da a1     movw  $a1,ya
783f: 31        tcall 3
7840: b1        tcall 11
7841: 01        tcall 0
7842: a4 1e     sbc   a,$1e
7844: 94 f1     adc   a,$f1+x
7846: 20        clrp
7847: 05 41 4e  or    a,$4e41
784a: bd        mov   sp,x
784b: 02 0d     set0  $0d
784d: b4 1f     sbc   a,$1f+x
784f: 0e f1 ff  tset1 $fff1
7852: d2 00     clr6  $00
7854: f0 00     beq   $7856
7856: a4 02     sbc   a,$02
7858: 6f        ret
7859: e4 3d     mov   a,$3d
785b: d4 24     mov   $24+x,a
785d: ee        pop   y
785e: 50 a4     bvc   $7804
7860: e3 fe f1  bbs7  $fe,$7853
7863: 3e c5     cmp   x,$c5
7865: d2 c3     clr6  $c3
7867: fb a4     mov   y,$a4+x
7869: de 1f 2e  cbne  $1f+x,$7899
786c: 03 ec e5  bbs0  $ec,$7853
786f: ff        stop
7870: 12 90     clr0  $90
7872: fc        inc   y
7873: eb d2     mov   y,$d2
7875: 52 2c     clr2  $2c
7877: fe 00     dbnz  y,$7879
7879: 23 94 d9  bbs1  $94,$7854
787c: f3 51 13  bbc7  $51,$7891
787f: dd        mov   a,y
7880: 6c 00 25  ror   $2500
7883: 94 4d     adc   a,$4d+x
7885: ce        pop   x
7886: 2c 2d 14  rol   $142d
7889: d0 5e     bne   $78e9
788b: c0        di
788c: a4 fd     sbc   a,$fd
788e: 4f 10     pcall $10
7890: 02 14     set0  $14
7892: 2f f0     bra   $7884
7894: ff        stop
7895: 94 df     adc   a,$df+x
7897: 21        tcall 2
7898: f0 f1     beq   $788b
789a: 01        tcall 0
789b: 42 d0     set2  $d0
789d: 02 a8     set0  $a8
789f: e2 1e     set7  $1e
78a1: e1        tcall 14
78a2: 2e f1 e0  cbne  $f1,$7884
78a5: 34 ef     and   a,$ef+x
78a7: 98 fc f5  adc   $f5,#$fc
78aa: 01        tcall 0
78ab: e6        mov   a,(x)
78ac: bf        mov   a,(x)+
78ad: 6d        push  y
78ae: fe 0e     dbnz  y,$78be
78b0: a8 23     sbc   a,#$23
78b2: ef        sleep
78b3: 01        tcall 0
78b4: 2e 01 b2  cbne  $01,$7868
78b7: 03 2f 94  bbs0  $2f,$784d
78ba: 4f d2     pcall $d2
78bc: ee        pop   y
78bd: c2 c4     set6  $c4
78bf: ee        pop   y
78c0: 1e 00 98  cmp   x,$9800
78c3: 10 e0     bpl   $78a5
78c5: ef        sleep
78c6: 0d        push  psw
78c7: 62 0f     set3  $0f
78c9: e3 f3 94  bbs7  $f3,$785f
78cc: 13 42 a5  bbc0  $42,$7873
78cf: c0        di
78d0: f0 43     beq   $7915
78d2: 00        nop
78d3: f0 90     beq   $7865
78d5: 1a df     decw  $df
78d7: 12 fe     clr0  $fe
78d9: fc        inc   y
78da: d0 da     bne   $78b6
78dc: ab 94     inc   $94
78de: 21        tcall 2
78df: 5e e2 b4  cmp   y,$b4e2
78e2: 03 2e 53  bbs0  $2e,$7937
78e5: 20        clrp
78e6: 94 13     adc   a,$13+x
78e8: b1        tcall 11
78e9: dd        mov   a,y
78ea: 1f f0 2c  jmp   ($2cf0+x)
78ed: e4 cc     mov   a,$cc
78ef: 94 e2     adc   a,$e2+x
78f1: 02 f0     set0  $f0
78f3: ef        sleep
78f4: 02 11     set0  $11
78f6: d3 2d 98  bbc6  $2d,$7890
78f9: 02 e4     set0  $e4
78fb: f0 d2     beq   $78cf
78fd: f0 e4     beq   $78e3
78ff: 5d        mov   x,a
7900: df        daa   a
7901: 94 01     adc   a,$01+x
7903: e0        clrv
7904: 22 c2     set1  $c2
7906: e1        tcall 14
7907: e1        tcall 14
7908: e0        clrv
7909: 4f 94     pcall $94
790b: fc        inc   y
790c: 2f f1     bra   $78ff
790e: 3f c3 a0  call  $a0c3
7911: 4d        push  x
7912: d4 94     mov   $94+x,a
7914: 21        tcall 2
7915: ff        stop
7916: d2 4f     clr6  $4f
7918: 20        clrp
7919: 3d        inc   x
791a: 2f ef     bra   $790b
791c: 94 00     adc   a,$00+x
791e: cc 32 d1  mov   $d132,y
7921: 2f 29     bra   $794c
7923: 01        tcall 0
7924: fe 94     dbnz  y,$78ba
7926: f2 0b     clr7  $0b
7928: d5 0f 03  mov   $030f+x,a
792b: ef        sleep
792c: 02 dc     set0  $dc
792e: 98 40 e2  adc   $e2,#$40
7931: 20        clrp
7932: b3 4c d4  bbc5  $4c,$7908
7935: 10 01     bpl   $7938
7937: 98 fc 4d  adc   $4d,#$fc
793a: 30 0e     bmi   $794a
793c: d5 ef 24  mov   $24ef+x,a
793f: c0        di
7940: 84 93     adc   a,$93
7942: 12 22     clr0  $22
7944: 3c        rol   a
7945: b2 ef     clr5  $ef
7947: d3 00 84  bbc6  $00,$78cd
794a: f4 13     mov   a,$13+x
794c: 3d        inc   x
794d: 65 d3 49  cmp   a,$49d3
7950: 01        tcall 0
7951: 1e 80 75  cmp   x,$7580
7954: 27 42     and   a,($42+x)
7956: 40        setp
7957: dd        mov   a,y
7958: ea b2 bb  not1  $1776,2
795b: 94 1f     adc   a,$1f+x
795d: e1        tcall 14
795e: fe 2d     dbnz  y,$798d
7960: 32 4f     clr1  $4f
7962: df        daa   a
7963: 00        nop
7964: 84 e7     adc   a,$e7
7966: 11        tcall 1
7967: 01        tcall 0
7968: 3b fe     rol   $fe+x
796a: 1f fe e4  jmp   ($e4fe+x)
796d: 74 cd     cmp   a,$cd+x
796f: 32 2a     clr1  $2a
7971: 14 0e     or    a,$0e+x
7973: f0 ce     beq   $7943
7975: 11        tcall 1
7976: 74 14     cmp   a,$14+x
7978: 1e 23 d2  cmp   x,$d223
797b: 11        tcall 1
797c: 11        tcall 1
797d: d0 11     bne   $7990
797f: 61        tcall 6
7980: 35 22 43  and   a,$4322+x
7983: 10 12     bpl   $7997
7985: 13 22 23  bbc0  $22,$79aa
7988: 02 00     set0  $00
798a: 00        nop
798b: 00        nop
798c: 00        nop
798d: 00        nop
798e: 00        nop
798f: 00        nop
7990: 00        nop
7991: a6        sbc   a,(x)
7992: 0f        brk
7993: 4e f2 e2  tclr1 $e2f2
7996: 1f 2e e2  jmp   ($e22e+x)
7999: 3d        inc   x
799a: 92 35     clr4  $35
799c: 33 63 0f  bbc1  $63,$79ad
799f: 45 06 3c  eor   a,$3c06
79a2: df        daa   a
79a3: a6        sbc   a,(x)
79a4: 02 0e     set0  $0e
79a6: 02 fe     set0  $fe
79a8: f1        tcall 15
79a9: 3b d5     rol   $d5+x
79ab: 41        tcall 4
79ac: b6 0e f0  sbc   a,$f00e+y
79af: f1        tcall 15
79b0: fd        mov   y,a
79b1: 23 c0 3f  bbs1  $c0,$79f2
79b4: f0 a6     beq   $795c
79b6: 20        clrp
79b7: e0        clrv
79b8: a0        ei
79b9: 5d        mov   x,a
79ba: d2 31     clr6  $31
79bc: 4f ed     pcall $ed
79be: b6 f0 2e  sbc   a,$2ef0+y
79c1: b5 3c f3  sbc   a,$f33c+x
79c4: 00        nop
79c5: f0 02     beq   $79c9
79c7: b2 ec     clr5  $ec
79c9: c0        di
79ca: fe ef     dbnz  y,$79bb
79cc: f0 ff     beq   $79cd
79ce: 0f        brk
79cf: f4 b2     mov   a,$b2+x
79d1: 1d        dec   x
79d2: 04 bf     or    a,$bf
79d4: 33 1f 12  bbc1  $1f,$79e8
79d7: 31        tcall 3
79d8: 02 a6     set0  $a6
79da: 0b 72     asl   $72
79dc: d0 ff     bne   $79dd
79de: 51        tcall 5
79df: ff        stop
79e0: 40        setp
79e1: cf        mul   ya
79e2: a6        sbc   a,(x)
79e3: 5e 1f 4f  cmp   y,$4f1f
79e6: c1        tcall 12
79e7: 11        tcall 1
79e8: 23 c0 2f  bbs1  $c0,$7a19
79eb: a6        sbc   a,(x)
79ec: e4 ee     mov   a,$ee
79ee: 05 e0 0f  or    a,$0fe0
79f1: f2 f1     clr7  $f1
79f3: 1f a2 f4  jmp   ($f4a2+x)
79f6: ef        sleep
79f7: 01        tcall 0
79f8: 02 12     set0  $12
79fa: 1e 02 1f  cmp   x,$1f02
79fd: b2 d0     clr5  $d0
79ff: 12 00     clr0  $00
7a01: f2 11     clr7  $11
7a03: bd        mov   sp,x
7a04: 2e c3 a6  cbne  $c3,$79ac
7a07: c9 13 bd  mov   $bd13,x
7a0a: 6c a6 2c  ror   $2ca6
7a0d: e2 31     set7  $31
7a0f: b6 e0 f0  sbc   a,$f0e0+y
7a12: 16 ba 45  or    a,$45ba+y
7a15: 93 3e e2  bbc4  $3e,$79f9
7a18: b2 dc     clr5  $dc
7a1a: e1        tcall 14
7a1b: bc        inc   a
7a1c: 1e c0 1f  cmp   x,$1fc0
7a1f: 00        nop
7a20: 0f        brk
7a21: b2 0f     clr5  $0f
7a23: 10 ce     bpl   $79f3
7a25: 4d        push  x
7a26: d2 02     clr6  $02
7a28: 01        tcall 0
7a29: 13 a6 eb  bbc0  $a6,$7a16
7a2c: 52 a4     clr2  $a4
7a2e: 2f 2e     bra   $7a5e
7a30: e3 5f b1  bbs7  $5f,$79e3
7a33: a6        sbc   a,(x)
7a34: 6e b5 01  dbnz  $b5,$7a37
7a37: d4 0c     mov   $0c+x,a
7a39: 23 fd 6c  bbs1  $fd,$7aa7
7a3c: a6        sbc   a,(x)
7a3d: d6 2c 5d  mov   $5d2c+y,a
7a40: e0        clrv
7a41: 3e 20     cmp   x,$20
7a43: ee        pop   y
7a44: 2f 96     bra   $79dc
7a46: 30 3f     bmi   $7a87
7a48: 2b d4     rol   $d4
7a4a: c1        tcall 12
7a4b: 5c        lsr   a
7a4c: d3 2f a2  bbc6  $2f,$79f0
7a4f: 00        nop
7a50: fe 0c     dbnz  y,$7a5e
7a52: e1        tcall 14
7a53: 40        setp
7a54: 00        nop
7a55: 0d        push  psw
7a56: 5d        mov   x,a
7a57: b2 9f     clr5  $9f
7a59: 0a f3 3e  or1   c,$07de,3
7a5c: ce        pop   x
7a5d: fd        mov   y,a
7a5e: fb bd     mov   y,$bd+x
7a60: c2 ee     set6  $ee
7a62: f0 0f     beq   $7a73
7a64: ff        stop
7a65: fe 01     dbnz  y,$7a68
7a67: dc        dec   y
7a68: 0e b6 e5  tset1 $e5b6
7a6b: 6d        push  y
7a6c: bf        mov   a,(x)+
7a6d: 3f 1d f0  call  $f01d
7a70: 2e 04 b2  cbne  $04,$7a24
7a73: 10 fe     bpl   $7a73
7a75: f0 f0     beq   $7a67
7a77: 3d        inc   x
7a78: b2 1b     clr5  $1b
7a7a: 24 a2     and   a,$a2
7a7c: 3b f2     rol   $f2+x
7a7e: 13 2f 35  bbc0  $2f,$7ab5
7a81: 26        and   a,(x)
7a82: 24 53     and   a,$53
7a84: a6        sbc   a,(x)
7a85: f6 ee e7  mov   a,$e7ee+y
7a88: fb 32     mov   y,$32+x
7a8a: 0f        brk
7a8b: f2 20     clr7  $20
7a8d: a6        sbc   a,(x)
7a8e: c6        mov   (x),a
7a8f: fd        mov   y,a
7a90: 2f 42     bra   $7ad4
7a92: a0        ei
7a93: 31        tcall 3
7a94: e0        clrv
7a95: 3d        inc   x
7a96: 96 d4 f0  adc   a,$f0d4+y
7a99: 02 e0     set0  $e0
7a9b: f2 fc     clr7  $fc
7a9d: 05 d1 a2  or    a,$a2d1
7aa0: 0f        brk
7aa1: 01        tcall 0
7aa2: cd 10     mov   x,#$10
7aa4: 11        tcall 1
7aa5: 21        tcall 2
7aa6: 0f        brk
7aa7: e6        mov   a,(x)
7aa8: b2 0a     clr5  $0a
7aaa: d3 ae 40  bbc6  $ae,$7aec
7aad: de ce 1f  cbne  $ce+x,$7ace
7ab0: cc b6 e2  mov   $e2b6,y
7ab3: f1        tcall 15
7ab4: 12 1f     clr0  $1f
7ab6: e1        tcall 14
7ab7: e2 39     set7  $39
7ab9: b7 b2     sbc   a,($b2)+y
7abb: fc        inc   y
7abc: 02 2f     set0  $2f
7abe: de 0e 3c  cbne  $0e+x,$7afc
7ac1: 9f        xcn   a
7ac2: eb b2     mov   y,$b2
7ac4: e3 21 c2  bbs7  $21,$7a88
7ac7: 0e e1 eb  tset1 $ebe1
7aca: d4 ce     mov   $ce+x,a
7acc: b2 42     clr5  $42
7ace: 0f        brk
7acf: 3f 12 e2  call  $e212
7ad2: 41        tcall 4
7ad3: 33 43 b6  bbc1  $43,$7a8b
7ad6: e1        tcall 14
7ad7: 0f        brk
7ad8: 1e 14 fd  cmp   x,$fd14
7adb: 40        setp
7adc: fe 1f     dbnz  y,$7afd
7ade: a6        sbc   a,(x)
7adf: 12 f0     clr0  $f0
7ae1: 22 fe     set1  $fe
7ae3: 40        setp
7ae4: b6 fe f3  sbc   a,$f3fe+y
7ae7: 96 49 11  adc   a,$1149+y
7aea: 2f cf     bra   $7abb
7aec: 6e a5 0e  dbnz  $a5,$7afc
7aef: 23 a2 0f  bbs1  $a2,$7b00
7af2: 32 f1     clr1  $f1
7af4: 00        nop
7af5: 1f d1 fd  jmp   ($fdd1+x)
7af8: d4 b2     mov   $b2+x,a
7afa: 10 1e     bpl   $7b1a
7afc: 01        tcall 0
7afd: 04 1a     or    a,$1a
7aff: d3 32 0f  bbc6  $32,$7b10
7b02: b6 f0 f0  sbc   a,$f0f0+y
7b05: ff        stop
7b06: 2d        push  a
7b07: 2e 13 1e  cbne  $13,$7b27
7b0a: 1e c6 f0  cmp   x,$f0c6
7b0d: 03 0d e2  bbs0  $0d,$7af1
7b10: 23 ed 00  bbs1  $ed,$7b12
7b13: e2 b6     set7  $b6
7b15: 2c 3d d3  rol   $d33d
7b18: 4f c3     pcall $c3
7b1a: 2e d1 03  cbne  $d1,$7b1f
7b1d: b2 12     clr5  $12
7b1f: 1b d5     asl   $d5+x
7b21: 51        tcall 5
7b22: df        daa   a
7b23: c0        di
7b24: 43 01 b2  bbs2  $01,$7ad8
7b27: d0 43     bne   $7b6c
7b29: f0 22     beq   $7b4d
7b2b: 11        tcall 1
7b2c: 33 43 03  bbc1  $43,$7b31
7b2f: a6        sbc   a,(x)
7b30: f1        tcall 15
7b31: d1        tcall 13
7b32: 3e f1     cmp   x,$f1
7b34: 06        or    a,(x)
7b35: 0d        push  psw
7b36: b4 20     sbc   a,$20+x
7b38: a6        sbc   a,(x)
7b39: 0e 2f 1e  tset1 $1e2f
7b3c: 21        tcall 2
7b3d: 3c        rol   a
7b3e: f2 df     clr7  $df
7b40: 5b 96     lsr   $96+x
7b42: 32 f0     clr1  $f0
7b44: 0c 60 df  asl   $df60
7b47: 0f        brk
7b48: 2f b1     bra   $7afb
7b4a: b6 10 00  sbc   a,$0010+y
7b4d: 1e 02 f2  cmp   x,$f202
7b50: eb 54     mov   y,$54
7b52: ef        sleep
7b53: a6        sbc   a,(x)
7b54: be        das   a
7b55: 1a 34     decw  $34
7b57: cb 79     mov   $79,y
7b59: d0 52     bne   $7bad
7b5b: 12 b2     clr0  $b2
7b5d: fe ce     dbnz  y,$7b2d
7b5f: e3 1c cf  bbs7  $1c,$7b30
7b62: 05 3d bb  or    a,$bb3d
7b65: c2 e1     set6  $e1
7b67: fd        mov   y,a
7b68: 10 df     bpl   $7b49
7b6a: 0f        brk
7b6b: f1        tcall 15
7b6c: 1f ee b2  jmp   ($b2ee+x)
7b6f: df        daa   a
7b70: 04 3e     or    a,$3e
7b72: e4 30     mov   a,$30
7b74: df        daa   a
7b75: d3 3d b6  bbc6  $3d,$7b2d
7b78: 32 f3     clr1  $f3
7b7a: 2e ef 20  cbne  $ef,$7b9c
7b7d: 11        tcall 1
7b7e: f0 02     beq   $7b82
7b80: b6 14 dd  sbc   a,$dd14+y
7b83: c2 41     set6  $41
7b85: e0        clrv
7b86: 10 fe     bpl   $7b86
7b88: 25 b6 2c  and   a,$2cb6
7b8b: 0f        brk
7b8c: 1f 12 fe  jmp   ($fe12+x)
7b8f: 0f        brk
7b90: 22 2f     set1  $2f
7b92: b2 0e     clr5  $0e
7b94: 13 31 fe  bbc0  $31,$7b94
7b97: fe e0     dbnz  y,$7b79
7b99: 41        tcall 4
7b9a: 00        nop
7b9b: a6        sbc   a,(x)
7b9c: 00        nop
7b9d: ff        stop
7b9e: 10 fc     bpl   $7b9c
7ba0: 34 1f     and   a,$1f+x
7ba2: 0d        push  psw
7ba3: c1        tcall 12
7ba4: b2 20     clr5  $20
7ba6: ab 13     inc   $13
7ba8: 1e ee cc  cmp   x,$ccee
7bab: ce        pop   x
7bac: ee        pop   y
7bad: b2 ea     clr5  $ea
7baf: bc        inc   a
7bb0: ee        pop   y
7bb1: f0 fd     beq   $7bb0
7bb3: de f2 bd  cbne  $f2+x,$7b72
7bb6: c2 f1     set6  $f1
7bb8: 31        tcall 3
7bb9: ed        notc
7bba: ed        notc
7bbb: e0        clrv
7bbc: ee        pop   y
7bbd: 1e df b2  cmp   x,$b2df
7bc0: 0d        push  psw
7bc1: d0 fd     bne   $7bc0
7bc3: cd e0     mov   x,#$e0
7bc5: f1        tcall 15
7bc6: cd 35     mov   x,#$35
7bc8: b2 0b     clr5  $0b
7bca: ee        pop   y
7bcb: d2 1f     clr6  $1f
7bcd: 20        clrp
7bce: d0 21     bne   $7bf1
7bd0: 01        tcall 0
7bd1: a6        sbc   a,(x)
7bd2: 0f        brk
7bd3: 10 24     bpl   $7bf9
7bd5: ea 26 3b  not1  $0764,6
7bd8: e4 1e     mov   a,$1e
7bda: a6        sbc   a,(x)
7bdb: e1        tcall 14
7bdc: 40        setp
7bdd: d2 10     clr6  $10
7bdf: 13 fe e3  bbc0  $fe,$7bc4
7be2: 10 a6     bpl   $7b8a
7be4: f3 ec 51  bbc7  $ec,$7c37
7be7: d2 00     clr6  $00
7be9: f0 fd     beq   $7be8
7beb: 32 a2     clr1  $a2
7bed: f0 4f     beq   $7c3e
7bef: 00        nop
7bf0: 00        nop
7bf1: ef        sleep
7bf2: 01        tcall 0
7bf3: 21        tcall 2
7bf4: 0d        push  psw
7bf5: b2 01     clr5  $01
7bf7: 1d        dec   x
7bf8: d0 22     bne   $7c1c
7bfa: 1d        dec   x
7bfb: df        daa   a
7bfc: ab fe     inc   $fe
7bfe: b6 d4 de  sbc   a,$ded4+y
7c01: 02 20     set0  $20
7c03: 0f        brk
7c04: ff        stop
7c05: ff        stop
7c06: 5d        mov   x,a
7c07: b6 0f 22  sbc   a,$220f+y
7c0a: 4e cf ec  tclr1 $eccf
7c0d: 53 c3 1a  bbc2  $c3,$7c29
7c10: b2 cf     clr5  $cf
7c12: fe fe     dbnz  y,$7c12
7c14: cd ec     mov   x,#$ec
7c16: e1        tcall 14
7c17: 40        setp
7c18: ef        sleep
7c19: b6 32 fc  sbc   a,$fc32+y
7c1c: 1e 13 f1  cmp   x,$f113
7c1f: 00        nop
7c20: f3 1f a6  bbc7  $1f,$7bc8
7c23: f1        tcall 15
7c24: b2 5e     clr5  $5e
7c26: f5 19 52  mov   a,$5219+x
7c29: c2 3f     set6  $3f
7c2b: a6        sbc   a,(x)
7c2c: 0f        brk
7c2d: 4f c5     pcall $c5
7c2f: 3d        inc   x
7c30: e4 00     mov   a,$00
7c32: 02 cf     set0  $cf
7c34: a6        sbc   a,(x)
7c35: 60        clrc
7c36: d3 0f 10  bbc6  $0f,$7c48
7c39: 0e 02 2d  tset1 $2d02
7c3c: f0 96     beq   $7bd4
7c3e: 3d        inc   x
7c3f: 03 c4 c1  bbs0  $c4,$7c02
7c42: f1        tcall 15
7c43: 0d        push  psw
7c44: f2 f4     clr7  $f4
7c46: b2 01     clr5  $01
7c48: 0f        brk
7c49: ff        stop
7c4a: ee        pop   y
7c4b: 00        nop
7c4c: cd 23     mov   x,#$23
7c4e: 10 b6     bpl   $7c06
7c50: de 3f e4  cbne  $3f+x,$7c36
7c53: 0d        push  psw
7c54: 00        nop
7c55: d1        tcall 13
7c56: 20        clrp
7c57: e1        tcall 14
7c58: b2 ed     clr5  $ed
7c5a: cd e1     mov   x,#$e1
7c5c: df        daa   a
7c5d: ef        sleep
7c5e: 04 2b     or    a,$2b
7c60: ae        pop   a
7c61: b2 be     clr5  $be
7c63: fe f0     dbnz  y,$7c55
7c65: 9b 01     dec   $01+x
7c67: cc 0f cd  mov   $cd0f,y
7c6a: a2 ed     set5  $ed
7c6c: 23 a9 e6  bbs1  $a9,$7c54
7c6f: 33 a9 f2  bbc1  $a9,$7c63
7c72: e2 a6     set7  $a6
7c74: 20        clrp
7c75: bf        mov   a,(x)+
7c76: 61        tcall 6
7c77: fb 16     mov   y,$16+x
7c79: c2 2e     set6  $2e
7c7b: 4e b6 c4  tclr1 $c4b6
7c7e: 2f ff     bra   $7c7f
7c80: 30 f1     bmi   $7c73
7c82: f0 10     beq   $7c94
7c84: 01        tcall 0
7c85: a6        sbc   a,(x)
7c86: fe 4e     dbnz  y,$7cd6
7c88: f2 f2     clr7  $f2
7c8a: 1f 2e e2  jmp   ($e22e+x)
7c8d: 3d        inc   x
7c8e: 92 35     clr4  $35
7c90: 33 63 0f  bbc1  $63,$7ca1
7c93: 56 17 4c  eor   a,$4c17+y
7c96: ce        pop   x
7c97: a7 02     sbc   a,($02+x)
7c99: 1e 01 fe  cmp   x,$fe01
7c9c: 01        tcall 0
7c9d: 3b d4     rol   $d4+x
7c9f: 31        tcall 3
7ca0: 00        nop
7ca1: 00        nop
7ca2: 00        nop
7ca3: 00        nop
7ca4: 00        nop
7ca5: 00        nop
7ca6: 00        nop
7ca7: 00        nop
7ca8: 00        nop
7ca9: b0 7c     bcs   $7d27
7cab: 2f 5d     bra   $7d0a
7cad: 62 b2     set3  $b2
7caf: 30 00     bmi   $7cb1
7cb1: 0c b0 12  asl   $12b0
7cb4: 3e 2f     cmp   x,$2f
7cb6: 2e 0b 22  cbne  $0b,$7cda
7cb9: ef        sleep
7cba: f0 a0     beq   $7c5c
7cbc: a4 10     sbc   a,$10
7cbe: a0        ei
7cbf: f0 cf     beq   $7c90
7cc1: 16 30 11  or    a,$1130+y
7cc4: a0        ei
7cc5: 2f 21     bra   $7ce8
7cc7: 02 ff     set0  $ff
7cc9: 04 1f     or    a,$1f
7ccb: 2f ed     bra   $7cba
7ccd: a0        ei
7cce: f0 13     beq   $7ce3
7cd0: e0        clrv
7cd1: 22 dc     set1  $dc
7cd3: f1        tcall 15
7cd4: e2 2f     set7  $2f
7cd6: 94 c6     adc   a,$c6+x
7cd8: b1        tcall 11
7cd9: f1        tcall 15
7cda: e2 c2     set7  $c2
7cdc: e5 d1 b4  mov   a,$b4d1
7cdf: a0        ei
7ce0: df        daa   a
7ce1: d3 cf f2  bbc6  $cf,$7cd5
7ce4: ef        sleep
7ce5: bd        mov   sp,x
7ce6: ef        sleep
7ce7: f2 a0     clr7  $a0
7ce9: 3f ff 0f  call  $0fff
7cec: f1        tcall 15
7ced: 0e ff fd  tset1 $fdff
7cf0: fe 90     dbnz  y,$7c82
7cf2: cf        mul   ya
7cf3: 3c        rol   a
7cf4: bc        inc   a
7cf5: ec ec fc  mov   y,$fcec
7cf8: 01        tcall 0
7cf9: 31        tcall 3
7cfa: 94 d0     adc   a,$d0+x
7cfc: 4f ef     pcall $ef
7cfe: 2d        push  a
7cff: 3f 1d f1  call  $f11d
7d02: 0d        push  psw
7d03: 94 f1     adc   a,$f1+x
7d05: 31        tcall 3
7d06: d2 e0     clr6  $e0
7d08: f2 fe     clr7  $fe
7d0a: 3d        inc   x
7d0b: 20        clrp
7d0c: 94 02     adc   a,$02+x
7d0e: 1d        dec   x
7d0f: 04 df     or    a,$df
7d11: f1        tcall 15
7d12: ee        pop   y
7d13: 2f 02     bra   $7d17
7d15: 94 f0     adc   a,$f0+x
7d17: 03 fc 3f  bbs0  $fc,$7d58
7d1a: 02 d1     set0  $d1
7d1c: 0c 51 80  asl   $8051
7d1f: 1d        dec   x
7d20: df        daa   a
7d21: d4 3d     mov   $3d+x,a
7d23: 42 06     set2  $06
7d25: 5f 5f 84  jmp   $845f
7d28: 20        clrp
7d29: 20        clrp
7d2a: 0c 0c f4  asl   $f40c
7d2d: 12 fe     clr0  $fe
7d2f: f3 84 1f  bbc7  $84,$7d50
7d32: fe 33     dbnz  y,$7d67
7d34: d2 00     clr6  $00
7d36: d0 62     bne   $7d9a
7d38: db 84     mov   $84+x,y
7d3a: 44 e3     eor   a,$e3
7d3c: 00        nop
7d3d: 2e e0 1d  cbne  $e0,$7d5c
7d40: 23 df 74  bbs1  $df,$7db6
7d43: 3e e2     cmp   x,$e2
7d45: 52 12     clr2  $12
7d47: 1b 22     asl   $22+x
7d49: 1e d7 84  cmp   x,$84d7
7d4c: df        daa   a
7d4d: 0f        brk
7d4e: 30 e2     bmi   $7d32
7d50: 00        nop
7d51: 14 e0     or    a,$e0+x
7d53: 02 90     set0  $90
7d55: 20        clrp
7d56: 01        tcall 0
7d57: 11        tcall 1
7d58: 4b 24     lsr   $24
7d5a: d6 4f 33  mov   $334f+y,a
7d5d: b0 01     bcs   $7d60
7d5f: 1f 02 30  jmp   ($3002+x)
7d62: 2e a6 5a  cbne  $a6,$7dbe
7d65: 6e c0 f0  dbnz  $c0,$7d57
7d68: ef        sleep
7d69: f0 2f     beq   $7d9a
7d6b: 3f 0f 40  call  $400f
7d6e: e5 c0 ea  mov   a,$eac0
7d71: 1d        dec   x
7d72: f1        tcall 15
7d73: 0f        brk
7d74: 10 12     bpl   $7d88
7d76: 20        clrp
7d77: 00        nop
7d78: a4 3d     sbc   a,$3d
7d7a: 31        tcall 3
7d7b: c1        tcall 12
7d7c: d3 c2 31  bbc6  $c2,$7daf
7d7f: 0e f0 c0  tset1 $c0f0
7d82: 01        tcall 0
7d83: 10 01     bpl   $7d86
7d85: 11        tcall 1
7d86: 0f        brk
7d87: d5 0e 23  mov   $230e+x,a
7d8a: c0        di
7d8b: de c2 de  cbne  $c2+x,$7d6b
7d8e: b2 bf     clr5  $bf
7d90: 73 25 2e  bbc3  $25,$7dc0
7d93: c0        di
7d94: 3c        rol   a
7d95: f0 3c     beq   $7dd3
7d97: 33 9e 3d  bbc1  $9e,$7dd6
7d9a: f6 2d c0  mov   a,$c02d+y
7d9d: 63 bc d0  bbs3  $bc,$7d6f
7da0: 56 d1 20  eor   a,$20d1+y
7da3: fe bc     dbnz  y,$7d61
7da5: c0        di
7da6: f3 13 f3  bbc7  $13,$7d9b
7da9: 11        tcall 1
7daa: 24 fc     and   a,$fc
7dac: f3 51 c0  bbc7  $51,$7d6e
7daf: 00        nop
7db0: bc        inc   a
7db1: 1d        dec   x
7db2: f2 1f     clr7  $1f
7db4: 5f f1 ef  jmp   $eff1
7db7: b0 fe     bcs   $7db7
7db9: 39        and   (x),(y)
7dba: c4 ef     mov   $ef,a
7dbc: 0e 24 fd  tset1 $fd24
7dbf: 02 b0     set0  $b0
7dc1: c4 4d     mov   $4d,a
7dc3: f4 ae     mov   a,$ae+x
7dc5: 5f be 1c  jmp   $1cbe
7dc8: d2 b0     clr6  $b0
7dca: 1f 3e 01  jmp   ($013e+x)
7dcd: 0c 02 ed  asl   $ed02
7dd0: 1f c2 b0  jmp   ($b0c2+x)
7dd3: 2d        push  a
7dd4: 01        tcall 0
7dd5: c0        di
7dd6: 2e 0f e0  cbne  $0f,$7db8
7dd9: 10 df     bpl   $7dba
7ddb: a0        ei
7ddc: 1d        dec   x
7ddd: 00        nop
7dde: 11        tcall 1
7ddf: 0d        push  psw
7de0: 11        tcall 1
7de1: 22 1a     set1  $1a
7de3: d0 90     bne   $7d75
7de5: ae        pop   a
7de6: 51        tcall 5
7de7: fe 36     dbnz  y,$7e1f
7de9: ed        notc
7dea: fc        inc   y
7deb: ce        pop   x
7dec: ff        stop
7ded: a1        tcall 10
7dee: 1d        dec   x
7def: ff        stop
7df0: ee        pop   y
7df1: 10 02     bpl   $7df5
7df3: a9 12 e1  sbc   ($e1),($12)
7df6: 00        nop
7df7: 00        nop
7df8: 00        nop
7df9: 00        nop
7dfa: 00        nop
7dfb: 00        nop
7dfc: 00        nop
7dfd: 00        nop
7dfe: 00        nop
7dff: 90 1f     bcc   $7e20
7e01: ce        pop   x
7e02: 02 ee     set0  $ee
7e04: c6        mov   (x),a
7e05: ef        sleep
7e06: 3d        inc   x
7e07: f3 a0 11  bbc7  $a0,$7e1a
7e0a: 0f        brk
7e0b: 04 1f     or    a,$1f
7e0d: ff        stop
7e0e: 1f 10 23  jmp   ($2310+x)
7e11: a0        ei
7e12: 1e 1d e3  cmp   x,$e31d
7e15: 55 0d e4  eor   a,$e40d+x
7e18: fe 02     dbnz  y,$7e1c
7e1a: b0 f2     bcs   $7e0e
7e1c: 10 f1     bpl   $7e0f
7e1e: 21        tcall 2
7e1f: f4 20     mov   a,$20+x
7e21: 0f        brk
7e22: 02 b0     set0  $b0
7e24: 0e 0f ee  tset1 $ee0f
7e27: 13 0c 33  bbc0  $0c,$7e5c
7e2a: 1a d4     decw  $d4
7e2c: b0 f3     bcs   $7e21
7e2e: e1        tcall 14
7e2f: 1e 11 e0  cmp   x,$e011
7e32: ce        pop   x
7e33: e5 01 b0  mov   a,$b001
7e36: c1        tcall 12
7e37: 11        tcall 1
7e38: 3d        inc   x
7e39: 25 43 f0  and   a,$f043
7e3c: 00        nop
7e3d: f1        tcall 15
7e3e: c0        di
7e3f: 02 20     set0  $20
7e41: 12 14     clr0  $14
7e43: 4d        push  x
7e44: 03 3d 22  bbs0  $3d,$7e68
7e47: c4 fd     mov   $fd,a
7e49: 24 d0     and   a,$d0
7e4b: 2c 21 f4  rol   $f421
7e4e: cf        mul   ya
7e4f: 20        clrp
7e50: c0        di
7e51: 01        tcall 0
7e52: ed        notc
7e53: 04 0f     or    a,$0f
7e55: ef        sleep
7e56: 34 21     and   a,$21+x
7e58: f3 c0 40  bbc7  $c0,$7e9a
7e5b: ff        stop
7e5c: 01        tcall 0
7e5d: e3 20 32  bbs7  $20,$7e91
7e60: 4d        push  x
7e61: d3 c0 2d  bbc6  $c0,$7e90
7e64: e0        clrv
7e65: c2 31     set6  $31
7e67: ef        sleep
7e68: 30 04     bmi   $7e6e
7e6a: f3 c0 0d  bbc7  $c0,$7e79
7e6d: 2f 44     bra   $7eb3
7e6f: fd        mov   y,a
7e70: 02 41     set0  $41
7e72: f2 02     clr7  $02
7e74: c0        di
7e75: 3f 3f 06  call  $063f
7e78: 12 ee     clr0  $ee
7e7a: d2 5e     clr6  $5e
7e7c: f2 c0     clr7  $c0
7e7e: 34 04     and   a,$04+x
7e80: 14 42     or    a,$42+x
7e82: 0f        brk
7e83: e1        tcall 14
7e84: 5e 3e c0  cmp   y,$c03e
7e87: ec 24 f3  mov   y,$f324
7e8a: 30 f4     bmi   $7e80
7e8c: d0 df     bne   $7e6d
7e8e: e2 c0     set7  $c0
7e90: f1        tcall 15
7e91: e3 04 0f  bbs7  $04,$7ea2
7e94: 24 f3     and   a,$f3
7e96: ce        pop   x
7e97: 0d        push  psw
7e98: c0        di
7e99: 21        tcall 2
7e9a: a4 2f     sbc   a,$2f
7e9c: 23 04 2b  bbs1  $04,$7ec9
7e9f: f2 b0     clr7  $b0
7ea1: c0        di
7ea2: c2 2f     set6  $2f
7ea4: be        das   a
7ea5: fc        inc   y
7ea6: 3d        inc   x
7ea7: 0e 2f ff  tset1 $ff2f
7eaa: c0        di
7eab: fd        mov   y,a
7eac: 21        tcall 2
7ead: 01        tcall 0
7eae: 03 d0 01  bbs0  $d0,$7eb1
7eb1: db 0b     mov   $0b+x,y
7eb3: c0        di
7eb4: 2c 0d 3e  rol   $3e0d
7eb7: 1c        asl   a
7eb8: 05 00 92  or    a,$9200
7ebb: ef        sleep
7ebc: c0        di
7ebd: 0d        push  psw
7ebe: 40        setp
7ebf: 2e 03 10  cbne  $03,$7ed1
7ec2: c1        tcall 12
7ec3: 05 fd c0  or    a,$c0fd
7ec6: 2c 4d 33  rol   $334d
7ec9: e3 10 a1  bbs7  $10,$7e6c
7ecc: e0        clrv
7ecd: 1d        dec   x
7ece: c0        di
7ecf: d2 a1     clr6  $a1
7ed1: c0        di
7ed2: dd        mov   a,y
7ed3: 9a ee     subw  ya,$ee
7ed5: 0f        brk
7ed6: d2 c0     clr6  $c0
7ed8: ee        pop   y
7ed9: e0        clrv
7eda: fd        mov   y,a
7edb: a1        tcall 10
7edc: ce        pop   x
7edd: 4d        push  x
7ede: 10 3b     bpl   $7f1b
7ee0: c0        di
7ee1: c0        di
7ee2: 32 e2     clr1  $e2
7ee4: 0d        push  psw
7ee5: 00        nop
7ee6: 1d        dec   x
7ee7: e1        tcall 14
7ee8: c2 c0     set6  $c0
7eea: 03 d1 ff  bbs0  $d1,$7eeb
7eed: 4d        push  x
7eee: 12 c4     clr0  $c4
7ef0: e1        tcall 14
7ef1: 2c c0 0d  rol   $0dc0
7ef4: 4b d4     lsr   $d4
7ef6: d0 5d     bne   $7f55
7ef8: 21        tcall 2
7ef9: c1        tcall 12
7efa: 6d        push  y
7efb: c0        di
7efc: c3 64 11  bbs6  $64,$7f0f
7eff: c1        tcall 12
7f00: 6d        push  y
7f01: e3 d1 00  bbs7  $d1,$7f03
7f04: c0        di
7f05: 04 f1     or    a,$f1
7f07: 0e 3b e1  tset1 $e13b
7f0a: 3c        rol   a
7f0b: 0f        brk
7f0c: d5 d0 fd  mov   $fdd0+x,a
7f0f: 10 d1     bpl   $7ee2
7f11: 0d        push  psw
7f12: 13 ef 2e  bbc0  $ef,$7f42
7f15: e1        tcall 14
7f16: c0        di
7f17: 29 ff be  and   ($be),($ff)
7f1a: 0f        brk
7f1b: f0 f0     beq   $7f0d
7f1d: df        daa   a
7f1e: ff        stop
7f1f: c0        di
7f20: d0 30     bne   $7f52
7f22: c2 0a     set6  $0a
7f24: f2 cc     clr7  $cc
7f26: 42 af     set2  $af
7f28: c0        di
7f29: 5c        lsr   a
7f2a: b4 3c     sbc   a,$3c+x
7f2c: f3 0c 14  bbc7  $0c,$7f42
7f2f: 00        nop
7f30: 25 c0 02  and   a,$02c0
7f33: 02 5e     set0  $5e
7f35: 02 42     set0  $42
7f37: f5 72 d5  mov   a,$d572+x
7f3a: c0        di
7f3b: 6f        ret
7f3c: e5 50 10  mov   a,$1050
7f3f: a0        ei
7f40: 5d        mov   x,a
7f41: e3 30 c0  bbs7  $30,$7f03
7f44: b2 1e     clr5  $1e
7f46: cf        mul   ya
7f47: 31        tcall 3
7f48: 9e        div   ya,x
7f49: 6f        ret
7f4a: 9e        div   ya,x
7f4b: 2f b4     bra   $7f01
7f4d: d2 21     clr6  $21
7f4f: ed        notc
7f50: 01        tcall 0
7f51: f1        tcall 15
7f52: bd        mov   sp,x
7f53: f6 1d d0  mov   a,$d01d+y
7f56: cc 01 ed  mov   $ed01,y
7f59: d2 fd     clr6  $fd
7f5b: d0 0e     bne   $7f6b
7f5d: df        daa   a
7f5e: d4 30     mov   $30+x,a
7f60: ce        pop   x
7f61: 24 de     and   a,$de
7f63: 01        tcall 0
7f64: 2f f0     bra   $7f56
7f66: 10 b0     bpl   $7f18
7f68: 4e db f0  tclr1 $f0db
7f6b: f0 fc     beq   $7f69
7f6d: 26        and   a,(x)
7f6e: 71        tcall 7
7f6f: 1f c0 52  jmp   ($52c0+x)
7f72: de f2 51  cbne  $f2+x,$7fc5
7f75: ac 47 09  inc   $0947
7f78: c0        di
7f79: c0        di
7f7a: 33 db 05  bbc1  $db,$7f81
7f7d: 3e ae     cmp   x,$ae
7f7f: 44 2b     eor   a,$2b
7f81: e0        clrv
7f82: c0        di
7f83: 74 0b     cmp   a,$0b+x
7f85: 13 22 db  bbc0  $22,$7f62
7f88: 02 2e     set0  $2e
7f8a: c1        tcall 12
7f8b: c0        di
7f8c: 0f        brk
7f8d: f2 5f     clr7  $5f
7f8f: ed        notc
7f90: f3 52 eb  bbc7  $52,$7f7d
7f93: c4 c0     mov   $c0,a
7f95: 62 da     set3  $da
7f97: e4 5f     mov   a,$5f
7f99: ea c3 54  not1  $0a98,3
7f9c: fd        mov   y,a
7f9d: b0 c2     bcs   $7f61
7f9f: 51        tcall 5
7fa0: 9a ae     subw  ya,$ae
7fa2: 05 ee 10  or    a,$10ee
7fa5: 0f        brk
7fa6: c0        di
7fa7: 20        clrp
7fa8: 02 54     set0  $54
7faa: df        daa   a
7fab: 44 5f     eor   a,$5f
7fad: ed        notc
7fae: 03 c0 32  bbs0  $c0,$7fe2
7fb1: 0f        brk
7fb2: fe e6     dbnz  y,$7f9a
7fb4: 2e bb f1  cbne  $bb,$7fa7
7fb7: 55 c0 2d  eor   a,$2dc0+x
7fba: af        mov   (x)+,a
7fbb: f5 6f 09  mov   a,$096f+x
7fbe: df        daa   a
7fbf: 45 30 c0  eor   a,$c030
7fc2: bd        mov   sp,x
7fc3: b3 24 0c  bbc5  $24,$7fd1
7fc6: cb f5     mov   $f5,y
7fc8: 61        tcall 6
7fc9: 09 d0 ed  or    ($ed),($d0)
7fcc: 11        tcall 1
7fcd: 3f fc e0  call  $e0fc
7fd0: 2f 1f     bra   $7ff1
7fd2: fc        inc   y
7fd3: c0        di
7fd4: 1e 3b 2d  cmp   x,$2d3b
7fd7: 2b fd     rol   $fd
7fd9: 2d        push  a
7fda: 0a f1 c4  or1   c,$189e,1
7fdd: 1d        dec   x
7fde: 01        tcall 0
7fdf: a5 21 01  sbc   a,$0121
7fe2: b1        tcall 11
7fe3: b1        tcall 11
7fe4: 35 c4 1f  and   a,$1fc4+x
7fe7: fc        inc   y
7fe8: fd        mov   y,a
7fe9: 31        tcall 3
7fea: 51        tcall 5
7feb: d0 cd     bne   $7fba
7fed: 11        tcall 1
7fee: c4 34     mov   $34,a
7ff0: f0 c0     beq   $7fb2
7ff2: ef        sleep
7ff3: 12 11     clr0  $11
7ff5: 00        nop
7ff6: fd        mov   y,a
7ff7: b4 3e     sbc   a,$3e+x
7ff9: f6 e6 2f  mov   a,$2fe6+y
7ffc: 29 e4 14  and   ($14),($e4)
7fff: 1b b4     asl   $b4+x
8001: 20        clrp
8002: f2 02     clr7  $02
8004: 10 d1     bpl   $7fd7
8006: 0d        push  psw
8007: 25 f0 c4  and   a,$c4f0
800a: 4e df 0f  tclr1 $0fdf
800d: 13 30 00  bbc0  $30,$800f
8010: de 0f b4  cbne  $0f+x,$7fc6
8013: 02 44     set0  $44
8015: 6f        ret
8016: bc        inc   a
8017: fd        mov   y,a
8018: e1        tcall 14
8019: 45 22 c4  eor   a,$c422
801c: 1d        dec   x
801d: b1        tcall 11
801e: fe 02     dbnz  y,$8022
8020: 44 ef     eor   a,$ef
8022: ff        stop
8023: cd b8     mov   x,#$b8
8025: 7f        reti
8026: 27 e9     and   a,($e9+x)
8028: ef        sleep
8029: 3a e5     incw  $e5
802b: 33 21 b8  bbc1  $21,$7fe5
802e: ce        pop   x
802f: ff        stop
8030: ef        sleep
8031: 11        tcall 1
8032: 15 2e fd  or    a,$fd2e+x
8035: 2b b4     rol   $b4
8037: dd        mov   a,y
8038: de e3 43  cbne  $e3+x,$807d
803b: 11        tcall 1
803c: 2f ec     bra   $802a
803e: ff        stop
803f: a4 e1     sbc   a,$e1
8041: 45 20 14  eor   a,$1420
8044: fe cd     dbnz  y,$8013
8046: 11        tcall 1
8047: 10 a8     bpl   $7ff1
8049: f1        tcall 15
804a: e1        tcall 14
804b: 3e e2     cmp   x,$e2
804d: 10 2f     bpl   $807e
804f: dd        mov   a,y
8050: 12 a8     clr0  $a8
8052: 0f        brk
8053: 01        tcall 0
8054: 4f 00     pcall $00
8056: 1e de d7  cmp   x,$d7de
8059: 0b b4     asl   $b4
805b: ff        stop
805c: 32 24     clr1  $24
805e: 11        tcall 1
805f: fe de     dbnz  y,$803f
8061: 0d        push  psw
8062: f1        tcall 15
8063: b4 32     sbc   a,$32+x
8065: 43 13 f1  bbs2  $13,$8058
8068: cc ef ee  mov   $eeef,y
806b: 03 a8 10  bbs0  $a8,$807d
806e: f2 ea     clr7  $ea
8070: 0c 2d 04  asl   $042d
8073: 10 32     bpl   $80a7
8075: a8 33     sbc   a,#$33
8077: ec ed 0d  mov   y,$0ded
807a: f1        tcall 15
807b: d1        tcall 13
807c: 51        tcall 5
807d: 21        tcall 2
807e: b8 21 fe  sbc   $fe,#$21
8081: fe 00     dbnz  y,$8083
8083: 0c 12 10  asl   $1012
8086: 31        tcall 3
8087: b8 ef 40  sbc   $40,#$ef
808a: dc        dec   y
808b: 5c        lsr   a
808c: ee        pop   y
808d: 6d        push  y
808e: 02 0f     set0  $0f
8090: b8 13 1d  sbc   $1d,#$13
8093: 00        nop
8094: 00        nop
8095: d2 de     clr6  $de
8097: 31        tcall 3
8098: 0a b4 14  or1   c,$0296,4
809b: 2f 16     bra   $80b3
809d: ff        stop
809e: 24 dd     and   a,$dd
80a0: 0e dc a4  tset1 $a4dc
80a3: 04 bb     or    a,$bb
80a5: 45 71 10  eor   a,$1071
80a8: 36 22 cc  and   a,$cc22+y
80ab: a4 e9     sbc   a,$e9
80ad: 11        tcall 1
80ae: ec 12 32  mov   y,$3212
80b1: 21        tcall 2
80b2: 20        clrp
80b3: 24 94     and   a,$94
80b5: 5c        lsr   a
80b6: cc de d1  mov   $d1de,y
80b9: ed        notc
80ba: 65 43 ff  cmp   a,$ff43
80bd: a4 f4     sbc   a,$f4
80bf: 6f        ret
80c0: cf        mul   ya
80c1: 40        setp
80c2: b0 e1     bcs   $80a5
80c4: d2 6d     clr6  $6d
80c6: b4 f0     sbc   a,$f0+x
80c8: 3e e3     cmp   x,$e3
80ca: 10 d1     bpl   $809d
80cc: 4f c3     pcall $c3
80ce: 40        setp
80cf: b4 d0     sbc   a,$d0+x
80d1: 30 02     bmi   $80d5
80d3: 2c a2 1e  rol   $1ea2
80d6: c0        di
80d7: 41        tcall 4
80d8: b4 ae     sbc   a,$ae+x
80da: 26        and   a,(x)
80db: 10 04     bpl   $80e1
80dd: 1c        asl   a
80de: f5 de b1  mov   a,$b1de+x
80e1: b8 b0 20  sbc   $20,#$b0
80e4: f1        tcall 15
80e5: 00        nop
80e6: f2 2c     clr7  $2c
80e8: 01        tcall 0
80e9: 3d        inc   x
80ea: b8 ee 5f  sbc   $5f,#$ee
80ed: ed        notc
80ee: 21        tcall 2
80ef: 0f        brk
80f0: e2 f0     set7  $f0
80f2: 2d        push  a
80f3: b8 30 e0  sbc   $e0,#$30
80f6: 13 f0 df  bbc0  $f0,$80d7
80f9: 11        tcall 1
80fa: 1e 0e b4  cmp   x,$b40e
80fd: ef        sleep
80fe: 0b 0e     asl   $0e
8100: c0        di
8101: e2 2f     set7  $2f
8103: e3 15 b8  bbs7  $15,$80bd
8106: ce        pop   x
8107: 35 dd d6  and   a,$d6dd+x
810a: 2d        push  a
810b: ef        sleep
810c: 24 bf     and   a,$bf
810e: c4 e1     mov   $e1,a
8110: 0e d1 01  tset1 $01d1
8113: 00        nop
8114: f4 2f     mov   a,$2f+x
8116: 00        nop
8117: b4 35     sbc   a,$35+x
8119: 30 01     bmi   $811c
811b: 1f 0b 6f  jmp   ($6f0b+x)
811e: df        daa   a
811f: f3 c4 ce  bbc7  $c4,$80ef
8122: e2 1f     set7  $1f
8124: e0        clrv
8125: 11        tcall 1
8126: 01        tcall 0
8127: 10 03     bpl   $812c
8129: b4 4e     sbc   a,$4e+x
812b: f4 2e     mov   a,$2e+x
812d: 3f 2c 02  call  $022c
8130: fb ff     mov   y,$ff+x
8132: a4 c3     sbc   a,$c3
8134: cb c2     mov   $c2,y
8136: f4 aa     mov   a,$aa+x
8138: 66        cmp   a,(x)
8139: 35 e3 b4  and   a,$b4e3+x
813c: 31        tcall 3
813d: f1        tcall 15
813e: 02 01     set0  $01
8140: 1f 21 cf  jmp   ($cf21+x)
8143: e2 b4     set7  $b4
8145: fe b0     dbnz  y,$80f7
8147: 21        tcall 2
8148: ce        pop   x
8149: e2 1c     set7  $1c
814b: c0        di
814c: 55 b4 1d  eor   a,$1db4+x
814f: b5 11 0f  sbc   a,$0f11+x
8152: fd        mov   y,a
8153: 61        tcall 6
8154: 4d        push  x
8155: b2 c4     clr5  $c4
8157: f0 c1     beq   $811a
8159: 01        tcall 0
815a: ef        sleep
815b: e1        tcall 14
815c: 1f 00 0f  jmp   ($0f00+x)
815f: c4 2e     mov   $2e,a
8161: e0        clrv
8162: 21        tcall 2
8163: 0f        brk
8164: 03 ef 11  bbs0  $ef,$8177
8167: d2 b4     clr6  $b4
8169: 3e 00     cmp   x,$00
816b: 1e 2e e3  cmp   x,$e32e
816e: cc 5e ef  mov   $ef5e,y
8171: b4 14     sbc   a,$14+x
8173: bf        mov   a,(x)+
8174: 4b 22     lsr   $22
8176: fe 04     dbnz  y,$817c
8178: d5 f0 b4  mov   $b4f0+x,a
817b: f3 ef 4c  bbc7  $ef,$81c9
817e: 1f 00 40  jmp   ($4000+x)
8181: 0e 31 b0  tset1 $b031
8184: 21        tcall 2
8185: 00        nop
8186: e2 43     set7  $43
8188: 1d        dec   x
8189: 10 60     bpl   $81eb
818b: 0f        brk
818c: b4 34     sbc   a,$34+x
818e: 1a d5     decw  $d5
8190: e3 2d 4c  bbs7  $2d,$81de
8193: 00        nop
8194: 0f        brk
8195: b4 5f     sbc   a,$5f+x
8197: f1        tcall 15
8198: b2 53     clr5  $53
819a: c0        di
819b: 0e f3 3f  tset1 $3ff3
819e: b4 fc     sbc   a,$fc+x
81a0: 13 6d c0  bbc0  $6d,$8162
81a3: 4d        push  x
81a4: 34 0c     and   a,$0c+x
81a6: e5 b4 11  mov   a,$11b4
81a9: fe 01     dbnz  y,$81ac
81ab: 2f 01     bra   $81ae
81ad: e2 f0     set7  $f0
81af: d0 b0     bne   $8161
81b1: 21        tcall 2
81b2: 33 00 f0  bbc1  $00,$81a4
81b5: 34 f0     and   a,$f0+x
81b7: f2 21     clr7  $21
81b9: b4 fe     sbc   a,$fe+x
81bb: 00        nop
81bc: 30 0d     bmi   $81cb
81be: f1        tcall 15
81bf: 13 1d d2  bbc0  $1d,$8193
81c2: b4 4f     sbc   a,$4f+x
81c4: 1e a0 20  cmp   x,$20a0
81c7: f1        tcall 15
81c8: c3 de 10  bbs6  $de,$81da
81cb: a4 04     sbc   a,$04
81cd: 1b c2     asl   $c2+x
81cf: 0d        push  psw
81d0: 92 51     clr4  $51
81d2: fe 2a     dbnz  y,$81fe
81d4: a0        ei
81d5: da f9     movw  $f9,ya
81d7: fd        mov   y,a
81d8: 2f 35     bra   $820f
81da: fd        mov   y,a
81db: b1        tcall 11
81dc: 43 a4 3b  bbs2  $a4,$8219
81df: e4 0f     mov   a,$0f
81e1: ff        stop
81e2: 4a ef 2c  and1  c,$059d,7
81e5: 0f        brk
81e6: a4 1c     sbc   a,$1c
81e8: 01        tcall 0
81e9: c1        tcall 12
81ea: 2e c1 21  cbne  $c1,$820d
81ed: cd 11     mov   x,#$11
81ef: a4 11     sbc   a,$11
81f1: d1        tcall 13
81f2: 20        clrp
81f3: 10 21     bpl   $8216
81f5: 02 f0     set0  $f0
81f7: 4f a4     pcall $a4
81f9: 31        tcall 3
81fa: 13 0e 4f  bbc0  $0e,$824b
81fd: 00        nop
81fe: 05 ff 00  or    a,$00ff
8201: a4 e2     sbc   a,$e2
8203: f1        tcall 15
8204: 0f        brk
8205: d1        tcall 13
8206: 20        clrp
8207: 1c        asl   a
8208: 0c 2e a4  asl   $a42e
820b: f2 ef     clr7  $ef
820d: ff        stop
820e: e1        tcall 14
820f: d1        tcall 13
8210: c1        tcall 12
8211: 0e f3 a4  tset1 $a4f3
8214: dd        mov   a,y
8215: 2e 4f ec  cbne  $4f,$8203
8218: 10 22     bpl   $823c
821a: 0f        brk
821b: e1        tcall 14
821c: a4 2f     sbc   a,$2f
821e: 3e 2f     cmp   x,$2f
8220: 3e 12     cmp   x,$12
8222: f1        tcall 15
8223: 1f 40 94  jmp   ($9440+x)
8226: 30 d3     bmi   $81fb
8228: 03 6d 0e  bbs0  $6d,$8238
822b: 3e 2e     cmp   x,$2e
822d: 11        tcall 1
822e: a4 fd     sbc   a,$fd
8230: 40        setp
8231: fd        mov   y,a
8232: 2f 1e     bra   $8252
8234: 0f        brk
8235: f2 ff     clr7  $ff
8237: 94 b4     adc   a,$b4+x
8239: df        daa   a
823a: fa 03 cf  mov   ($cf),($03)
823d: a4 1b     sbc   a,$1b
823f: 2d        push  a
8240: 94 e0     adc   a,$e0+x
8242: 0e f3 0d  tset1 $0df3
8245: 2f d3     bra   $821a
8247: 1d        dec   x
8248: 3f 94 2e  call  $2e94
824b: 13 f0 13  bbc0  $f0,$8260
824e: 20        clrp
824f: 02 21     set0  $21
8251: 4f 84     pcall $84
8253: 03 35 11  bbs0  $35,$8266
8256: 3d        inc   x
8257: 50 5c     bvc   $82b5
8259: 32 01     clr1  $01
825b: 94 1f     adc   a,$1f+x
825d: 20        clrp
825e: 0e 22 fc  tset1 $fc22
8261: 22 ff     set1  $ff
8263: 10 84     bpl   $81e9
8265: dd        mov   a,y
8266: 31        tcall 3
8267: d1        tcall 13
8268: 0c ff 1e  asl   $1eff
826b: b3 df 84  bbc5  $df,$81f1
826e: 0e d0 1c  tset1 $1cd0
8271: f1        tcall 15
8272: fe 10     dbnz  y,$8284
8274: e0        clrv
8275: 01        tcall 0
8276: 84 1c     adc   a,$1c
8278: 03 ee 1e  bbs0  $ee,$8298
827b: 21        tcall 2
827c: 1e 12 e2  cmp   x,$e212
827f: 84 e2     adc   a,$e2
8281: d4 3c     mov   $3c+x,a
8283: 13 2f 11  bbc0  $2f,$8296
8286: 2e 30 74  cbne  $30,$82fc
8289: 14 e1     or    a,$e1+x
828b: 7f        reti
828c: e2 e3     set7  $e3
828e: 3e 1f     cmp   x,$1f
8290: 5e 74 e1  cmp   y,$e174
8293: 4b 3f     lsr   $3f
8295: 0f        brk
8296: 1d        dec   x
8297: e3 ff f0  bbs7  $ff,$8289
829a: 74 c4     cmp   a,$c4+x
829c: 0f        brk
829d: fd        mov   y,a
829e: 0c 3d 2e  asl   $2e3d
82a1: d1        tcall 13
82a2: 0c 64 ef  asl   $ef64
82a5: ff        stop
82a6: ee        pop   y
82a7: 1c        asl   a
82a8: a4 cd     sbc   a,$cd
82aa: f4 fc     mov   a,$fc+x
82ac: 54 b2     eor   a,$b2+x
82ae: 0b e0     asl   $e0
82b0: f4 ba     mov   a,$ba+x
82b2: 6d        push  y
82b3: 03 e3 54  bbs0  $e3,$8309
82b6: d1        tcall 13
82b7: 7a 05     addw  ya,$05
82b9: fd        mov   y,a
82ba: f1        tcall 15
82bb: 36 a4 4f  and   a,$4fa4+y
82be: 54 2d     eor   a,$2d+x
82c0: 27 f2     and   a,($f2+x)
82c2: 40        setp
82c3: 10 32     bpl   $82f7
82c5: f2 13     clr7  $13
82c7: 54 21     eor   a,$21+x
82c9: b1        tcall 11
82ca: 00        nop
82cb: 04 ff     or    a,$ff
82cd: ff        stop
82ce: f2 ff     clr7  $ff
82d0: 44 fe     eor   a,$fe
82d2: 2d        push  a
82d3: 11        tcall 1
82d4: dd        mov   a,y
82d5: 4c 01 d1  lsr   $d101
82d8: 0d        push  psw
82d9: 44 2d     eor   a,$2d
82db: 11        tcall 1
82dc: fa 53 b0  mov   ($b0),($53)
82df: fd        mov   y,a
82e0: 3e 1f     cmp   x,$1f
82e2: 34 d2     and   a,$d2+x
82e4: df        daa   a
82e5: a4 00     sbc   a,$00
82e7: 1d        dec   x
82e8: 3d        inc   x
82e9: 10 e0     bpl   $82cb
82eb: 25 e1 4d  and   a,$4de1
82ee: 21        tcall 2
82ef: d3 e2 03  bbc6  $e2,$82f4
82f2: e1        tcall 14
82f3: 20        clrp
82f4: 02 00     set0  $00
82f6: 00        nop
82f7: 00        nop
82f8: 00        nop
82f9: 00        nop
82fa: 00        nop
82fb: 00        nop
82fc: 00        nop
82fd: b2 5d     clr5  $5d
82ff: 4d        push  x
8300: 4f 0a     pcall $0a
8302: fc        inc   y
8303: 3f cc d3  call  $d3cc
8306: c6        mov   (x),a
8307: e0        clrv
8308: c4 f3     mov   $f3,a
830a: ef        sleep
830b: 03 01 ee  bbs0  $01,$82fb
830e: 3f b2 43  call  $43b2
8311: 1d        dec   x
8312: 41        tcall 4
8313: 2e fe 5e  cbne  $fe,$8373
8316: 2f d3     bra   $82eb
8318: c2 01     set6  $01
831a: 1f e1 02  jmp   ($02e1+x)
831d: 10 f4     bpl   $8313
831f: 34 00     and   a,$00+x
8321: b6 63 c0  sbc   a,$c063+y
8324: b4 4e     sbc   a,$4e+x
8326: 1c        asl   a
8327: d4 2d     mov   $2d+x,a
8329: ee        pop   y
832a: b2 f2     clr5  $f2
832c: 20        clrp
832d: 1c        asl   a
832e: 33 20 1f  bbc1  $20,$834f
8331: 5f 03 b2  jmp   $b203
8334: e4 f1     mov   a,$f1
8336: e0        clrv
8337: a2 a1     set5  $a1
8339: ce        pop   x
833a: d1        tcall 13
833b: ee        pop   y
833c: b2 fb     clr5  $fb
833e: 22 fe     set1  $fe
8340: df        daa   a
8341: 40        setp
8342: fe f3     dbnz  y,$8337
8344: 3f b2 ed  call  $edb2
8347: f3 1e bf  bbc7  $1e,$8308
834a: 01        tcall 0
834b: 0a 0d 30  or1   c,$0601,5
834e: b6 ec 32  sbc   a,$32ec+y
8351: 1d        dec   x
8352: d3 f3 c1  bbc6  $f3,$8315
8355: c1        tcall 12
8356: 20        clrp
8357: b6 0a 41  sbc   a,$410a+y
835a: 3d        inc   x
835b: f0 04     beq   $8361
835d: d1        tcall 13
835e: b6 e2 a2  sbc   a,$a2e2+y
8361: eb ee     mov   y,$ee
8363: e9 29 0e  mov   x,$0e29
8366: d3 d1 00  bbc6  $d1,$8368
8369: b2 f2     clr5  $f2
836b: c2 11     set6  $11
836d: 1d        dec   x
836e: 10 0e     bpl   $837e
8370: 11        tcall 1
8371: 20        clrp
8372: a2 cf     set5  $cf
8374: f2 2f     clr7  $2f
8376: bb 55     inc   $55+x
8378: ef        sleep
8379: d2 62     clr6  $62
837b: b2 ee     clr5  $ee
837d: 13 6e fe  bbc0  $6e,$837d
8380: 43 1e d2  bbs2  $1e,$8354
8383: 27 b2     and   a,($b2+x)
8385: f1        tcall 15
8386: e3 51 fd  bbs7  $51,$8385
8389: 03 5f ef  bbs0  $5f,$837a
838c: 55 b2 ff  eor   a,$ffb2+x
838f: b4 17     sbc   a,$17+x
8391: cf        mul   ya
8392: d3 5f dd  bbc6  $5f,$8371
8395: 33 b2 30  bbc1  $b2,$83c7
8398: c1        tcall 12
8399: 06        or    a,(x)
839a: 0d        push  psw
839b: e1        tcall 14
839c: 30 fa     bmi   $8398
839e: 1f b6 3b  jmp   ($3bb6+x)
83a1: d2 40     clr6  $40
83a3: db 43     mov   $43+x,y
83a5: df        daa   a
83a6: e2 05     set7  $05
83a8: c6        mov   (x),a
83a9: df        daa   a
83aa: 05 00 fc  or    a,$fc00
83ad: 31        tcall 3
83ae: 31        tcall 3
83af: d1        tcall 13
83b0: 11        tcall 1
83b1: c6        mov   (x),a
83b2: 3e 0f     cmp   x,$0f
83b4: f1        tcall 15
83b5: 12 00     clr0  $00
83b7: c2 e5     set6  $e5
83b9: de c6 0d  cbne  $c6+x,$83c8
83bc: 20        clrp
83bd: 00        nop
83be: c2 2d     set6  $2d
83c0: f2 d3     clr7  $d3
83c2: fe c6     dbnz  y,$838a
83c4: 0e 4f 10  tset1 $104f
83c7: c1        tcall 12
83c8: 22 1e     set1  $1e
83ca: d1        tcall 13
83cb: 20        clrp
83cc: d2 1f     clr6  $1f
83ce: 10 02     bpl   $83d2
83d0: 04 32     or    a,$32
83d2: 10 33     bpl   $8407
83d4: 32 c2     clr1  $c2
83d6: 42 64     set2  $64
83d8: 34 e5     and   a,$e5+x
83da: 33 2e 20  bbc1  $2e,$83fc
83dd: 0f        brk
83de: c6        mov   (x),a
83df: d0 1e     bne   $83ff
83e1: 01        tcall 0
83e2: c6        mov   (x),a
83e3: b0 1b     bcs   $8400
83e5: 4e 20 c2  tclr1 $c220
83e8: cf        mul   ya
83e9: de ff e2  cbne  $ff+x,$83cd
83ec: cc 1e 62  mov   $621e,y
83ef: 01        tcall 0
83f0: d2 f4     clr6  $f4
83f2: 22 10     set1  $10
83f4: 12 22     clr0  $22
83f6: 20        clrp
83f7: 42 21     set2  $21
83f9: c2 f5     set6  $f5
83fb: 34 4e     and   a,$4e+x
83fd: 4f ff     pcall $ff
83ff: df        daa   a
8400: 1e db c2  cmp   x,$c2db
8403: c0        di
8404: ee        pop   y
8405: b9        sbc   (x),(y)
8406: 0d        push  psw
8407: fe c0     dbnz  y,$83c9
8409: de cd c2  cbne  $cd+x,$83cd
840c: 20        clrp
840d: 0d        push  psw
840e: d2 41     clr6  $41
8410: fc        inc   y
8411: e4 42     mov   a,$42
8413: ef        sleep
8414: c6        mov   (x),a
8415: 3f 4c f4  call  $f44c
8418: c2 ff     set6  $ff
841a: 4e 0e 14  tclr1 $140e
841d: c2 43     set6  $43
841f: ee        pop   y
8420: 15 11 df  or    a,$df11+x
8423: 43 ff d0  bbs2  $ff,$83f5
8426: c6        mov   (x),a
8427: 11        tcall 1
8428: c1        tcall 12
8429: 2f ee     bra   $8419
842b: 04 2d     or    a,$2d
842d: d0 14     bne   $8443
842f: c6        mov   (x),a
8430: fc        inc   y
8431: d2 32     clr6  $32
8433: ee        pop   y
8434: 10 01     bpl   $8437
8436: 01        tcall 0
8437: 00        nop
8438: c2 de     set6  $de
843a: 24 31     and   a,$31
843c: fe 43     dbnz  y,$8481
843e: 10 d2     bpl   $8412
8440: 46        eor   a,(x)
8441: b2 0e     clr5  $0e
8443: 26        and   a,(x)
8444: 74 c5     cmp   a,$c5+x
8446: 13 01 06  bbc0  $01,$844e
8449: 2e c2 df  cbne  $c2,$842a
844c: f1        tcall 15
844d: eb b2     mov   y,$b2
844f: 10 ca     bpl   $841b
8451: d0 1d     bne   $8470
8453: b6 10 40  sbc   a,$4010+y
8456: be        das   a
8457: 72 fa     clr3  $fa
8459: e6        mov   a,(x)
845a: 7c        ror   a
845b: b9        sbc   (x),(y)
845c: c6        mov   (x),a
845d: 33 4b e1  bbc1  $4b,$8440
8460: 13 fe 00  bbc0  $fe,$8462
8463: 4f f0     pcall $f0
8465: c6        mov   (x),a
8466: e3 d2 1e  bbs7  $d2,$8486
8469: 0e f2 01  tset1 $01f2
846c: de 2e c2  cbne  $2e+x,$8430
846f: ff        stop
8470: cf        mul   ya
8471: df        daa   a
8472: dd        mov   a,y
8473: ec ed c2  mov   y,$c2ed
8476: d1        tcall 13
8477: c2 ee     set6  $ee
8479: 02 12     set0  $12
847b: f2 d4     clr7  $d4
847d: 04 20     or    a,$20
847f: 13 c6 f2  bbc0  $c6,$8473
8482: d2 e3     clr6  $e3
8484: 00        nop
8485: 1d        dec   x
8486: 14 d4     or    a,$d4+x
8488: cf        mul   ya
8489: c6        mov   (x),a
848a: 11        tcall 1
848b: 22 e1     set1  $e1
848d: d2 21     clr6  $21
848f: fe f2     dbnz  y,$8483
8491: 04 c2     or    a,$c2
8493: 13 34 34  bbc0  $34,$84c9
8496: 22 32     set1  $32
8498: f2 03     clr7  $03
849a: 30 b6     bmi   $8452
849c: e4 6b     mov   a,$6b
849e: fe e6     dbnz  y,$8486
84a0: fd        mov   y,a
84a1: d2 15     clr6  $15
84a3: af        mov   (x)+,a
84a4: b6 11 fe  sbc   a,$fe11+y
84a7: e6        mov   a,(x)
84a8: 0d        push  psw
84a9: af        mov   (x)+,a
84aa: 75 c9 c4  cmp   a,$c4c9+x
84ad: c6        mov   (x),a
84ae: 4f eb     pcall $eb
84b0: 40        setp
84b1: 1e f1 1f  cmp   x,$1ff1
84b4: e0        clrv
84b5: 4e c6 fc  tclr1 $fcc6
84b8: 41        tcall 4
84b9: 1d        dec   x
84ba: d2 32     clr6  $32
84bc: dc        dec   y
84bd: 03 20 c6  bbs0  $20,$8485
84c0: c1        tcall 12
84c1: 12 fe     clr0  $fe
84c3: 13 f2 d2  bbc0  $f2,$8497
84c6: 1f 0f c2  jmp   ($c20f+x)
84c9: 32 02     clr1  $02
84cb: f6 32 02  mov   a,$0232+y
84ce: 52 20     clr2  $20
84d0: 24 c6     and   a,$c6
84d2: c1        tcall 12
84d3: e2 3a     set7  $3a
84d5: 13 22 b0  bbc0  $22,$8487
84d8: f5 0d b2  mov   a,$b20d+x
84db: 00        nop
84dc: 05 12 13  or    a,$1312
84df: e0        clrv
84e0: 35 1d d0  and   a,$d01d+x
84e3: c2 43     set6  $43
84e5: ed        notc
84e6: e2 40     set7  $40
84e8: ed        notc
84e9: f0 1f     beq   $850a
84eb: 0e c2 fd  tset1 $fdc2
84ee: f1        tcall 15
84ef: ed        notc
84f0: dc        dec   y
84f1: 2d        push  a
84f2: cb c0     mov   $c0,y
84f4: cc c6 e3  mov   $e3c6,y
84f7: 00        nop
84f8: fe 30     dbnz  y,$852a
84fa: 00        nop
84fb: e3 d4 d2  bbs7  $d4,$84cf
84fe: b6 4b 3d  sbc   a,$3d4b+y
8501: 24 d1     and   a,$d1
8503: 20        clrp
8504: ff        stop
8505: c6        mov   (x),a
8506: 3e b6     cmp   x,$b6
8508: df        daa   a
8509: 62 dc     set3  $dc
850b: 22 10     set1  $10
850d: dd        mov   a,y
850e: 6f        ret
850f: ff        stop
8510: b2 1e     clr5  $1e
8512: f2 15     clr7  $15
8514: 1d        dec   x
8515: ee        pop   y
8516: 63 dd f4  bbs3  $dd,$850c
8519: b2 51     clr5  $51
851b: ed        notc
851c: 12 3f     clr0  $3f
851e: 12 f6     clr0  $f6
8520: f4 cf     mov   a,$cf+x
8522: b2 e4     clr5  $e4
8524: 3d        inc   x
8525: ee        pop   y
8526: 23 af b1  bbs1  $af,$84d9
8529: 5e fc c2  cmp   y,$c2fc
852c: 2f 1f     bra   $854d
852e: e2 d1     set7  $d1
8530: f0 fd     beq   $852f
8532: 0f        brk
8533: 2d        push  a
8534: c2 cf     set6  $cf
8536: f2 ec     clr7  $ec
8538: ef        sleep
8539: 4f 0f     pcall $0f
853b: f0 f0     beq   $852d
853d: c2 f0     set6  $f0
853f: ee        pop   y
8540: 30 3e     bmi   $8580
8542: 04 11     or    a,$11
8544: f1        tcall 15
8545: 31        tcall 3
8546: b2 4b     clr5  $4b
8548: 6f        ret
8549: 45 b6 c1  eor   a,$c1b6
854c: e1        tcall 14
854d: fe 0b     dbnz  y,$855a
854f: b2 2e     clr5  $2e
8551: a2 c0     set5  $c0
8553: fe ee     dbnz  y,$8543
8555: 1c        asl   a
8556: 0c 43 b2  asl   $b243
8559: d1        tcall 13
855a: d6 00 e5  mov   $e500+y,a
855d: 42 31     set2  $31
855f: 35 f4 c2  and   a,$c2f4+x
8562: 22 2f     set1  $2f
8564: 13 2e e1  bbc0  $2e,$8547
8567: 34 d0     and   a,$d0+x
8569: 02 b2     set0  $b2
856b: 4b 00     lsr   $00
856d: ef        sleep
856e: 00        nop
856f: de a2 2e  cbne  $a2+x,$859f
8572: ec b2 16  mov   y,$16b2
8575: fe b1     dbnz  y,$8528
8577: 23 dd ef  bbs1  $dd,$8568
857a: 31        tcall 3
857b: 0e b2 ef  tset1 $efb2
857e: 4e ec e2  tclr1 $e2ec
8581: fc        inc   y
8582: bf        mov   a,(x)+
8583: f2 fc     clr7  $fc
8585: c2 1f     set6  $1f
8587: 30 01     bmi   $858a
8589: 03 32 f0  bbs0  $32,$857b
858c: 24 3e     and   a,$3e
858e: c2 00     set6  $00
8590: 13 d1 e1  bbc0  $d1,$8573
8593: 01        tcall 0
8594: e0        clrv
8595: 1e 1d c2  cmp   x,$c21d
8598: 0d        push  psw
8599: cf        mul   ya
859a: ff        stop
859b: dd        mov   a,y
859c: e0        clrv
859d: fb eb     mov   y,$eb+x
859f: 20        clrp
85a0: b2 de     clr5  $de
85a2: b3 26 a3  bbc5  $26,$8547
85a5: d6 51 22  mov   $2251+y,a
85a8: 47 c6     eor   a,($c6+x)
85aa: e3 ef 02  bbs7  $ef,$85ae
85ad: 10 fe     bpl   $85ad
85af: 4d        push  x
85b0: 2f f2     bra   $85a4
85b2: c2 21     set6  $21
85b4: f0 01     beq   $85b7
85b6: fd        mov   y,a
85b7: fe 1c     dbnz  y,$85d5
85b9: fe e0     dbnz  y,$859b
85bb: c2 ce     set6  $ce
85bd: e0        clrv
85be: df        daa   a
85bf: ff        stop
85c0: 2f 1f     bra   $85e1
85c2: 12 31     clr0  $31
85c4: c6        mov   (x),a
85c5: e3 f4 c2  bbs7  $f4,$8589
85c8: 00        nop
85c9: 2f 2f     bra   $85fa
85cb: ef        sleep
85cc: 30 c2     bmi   $8590
85ce: 31        tcall 3
85cf: e2 22     set7  $22
85d1: 1f 01 1e  jmp   ($1e01+x)
85d4: fe 1e     dbnz  y,$85f4
85d6: b6 ed 50  sbc   a,$50ed+y
85d9: 2c f1 13  rol   $13f1
85dc: df        daa   a
85dd: f2 40     clr7  $40
85df: c2 0f     set6  $0f
85e1: 12 21     clr0  $21
85e3: 02 12     set0  $12
85e5: 12 40     clr0  $40
85e7: 3f c2 4e  call  $4ec2
85ea: 2e 3e ef  cbne  $3e,$85db
85ed: 02 ed     set0  $ed
85ef: ef        sleep
85f0: 1d        dec   x
85f1: b2 b9     clr5  $b9
85f3: fd        mov   y,a
85f4: 0b be     asl   $be
85f6: d5 d2 c1  mov   $c1d2+x,a
85f9: 51        tcall 5
85fa: c2 0f     set6  $0f
85fc: 30 4f     bmi   $864d
85fe: 33 33 23  bbc1  $33,$8623
8601: 11        tcall 1
8602: 34 b2     and   a,$b2+x
8604: 2f f2     bra   $85f8
8606: 5d        mov   x,a
8607: ce        pop   x
8608: 11        tcall 1
8609: cc cf de  mov   $decf,y
860c: b6 c4 b4  sbc   a,$b4c4+y
860f: 2c 00 43  rol   $4300
8612: de 31 3d  cbne  $31+x,$8651
8615: c2 02     set6  $02
8617: 03 02 12  bbs0  $02,$862b
861a: 13 1f 10  bbc0  $1f,$862c
861d: 4f b2     pcall $b2
861f: ea 14 0c  not1  $0182,4
8622: df        daa   a
8623: 0f        brk
8624: fc        inc   y
8625: 1c        asl   a
8626: 4e b2 ec  tclr1 $ecb2
8629: e3 0e e0  bbs7  $0e,$860b
862c: 36 00 22  and   a,$2200+y
862f: 40        setp
8630: b2 21     clr5  $21
8632: f4 2f     mov   a,$2f+x
8634: 0f        brk
8635: 52 f9     clr2  $f9
8637: fd        mov   y,a
8638: 3a b6     incw  $b6
863a: 2f 40     bra   $867c
863c: e0        clrv
863d: fe 41     dbnz  y,$8680
863f: fd        mov   y,a
8640: 03 3c b2  bbs0  $3c,$85f4
8643: dd        mov   a,y
8644: f2 e2     clr7  $e2
8646: ff        stop
8647: f3 f2 d5  bbc7  $f2,$861e
864a: ef        sleep
864b: b2 e2     clr5  $e2
864d: 52 ed     clr2  $ed
864f: 32 4c     clr1  $4c
8651: 3f 23 41  call  $4123
8654: b2 de     clr5  $de
8656: 54 fd     eor   a,$fd+x
8658: d3 2d fd  bbc6  $2d,$8657
865b: 1d        dec   x
865c: 4e b2 fc  tclr1 $fcb2
865f: 22 1e     set1  $1e
8661: d3 e0 e3  bbc6  $e0,$8646
8664: 20        clrp
8665: b4 b2     sbc   a,$b2+x
8667: 23 11 22  bbs1  $11,$868b
866a: 04 40     or    a,$40
866c: d2 31     clr6  $31
866e: ed        notc
866f: b2 f4     clr5  $f4
8671: c1        tcall 12
8672: 1f c0 e1  jmp   ($e1c0+x)
8675: cf        mul   ya
8676: ee        pop   y
8677: de b2 30  cbne  $b2+x,$86a9
867a: cb 13     mov   $13,y
867c: 2c ef 41  rol   $41ef
867f: 42 0e     set2  $0e
8681: b2 75     clr5  $75
8683: 1f c4 50  jmp   ($50c4+x)
8686: ee        pop   y
8687: c0        di
8688: 01        tcall 0
8689: ca b2 b2  mov1  $1656,2,c
868c: 0e a1 d3  tset1 $d3a1
868f: f2 01     clr7  $01
8691: d7 44     mov   ($44)+y,a
8693: b2 d3     clr5  $d3
8695: 34 22     and   a,$22+x
8697: 00        nop
8698: 03 3e de  bbs0  $3e,$8678
869b: 22 b2     set1  $b2
869d: ed        notc
869e: ef        sleep
869f: c0        di
86a0: 0f        brk
86a1: 10 1f     bpl   $86c2
86a3: 11        tcall 1
86a4: 6d        push  y
86a5: b2 0e     clr5  $0e
86a7: 42 3c     set2  $3c
86a9: 1f 00 cc  jmp   ($cc00+x)
86ac: e0        clrv
86ad: ef        sleep
86ae: c6        mov   (x),a
86af: c3 01 f1  bbs6  $01,$86a2
86b2: d4 f1     mov   $f1+x,a
86b4: fe 02     dbnz  y,$86b8
86b6: 0e b2 3b  tset1 $3bb2
86b9: 3c        rol   a
86ba: 40        setp
86bb: 2b fc     rol   $fc
86bd: 3f cc c2  call  $c2cc
86c0: c6        mov   (x),a
86c1: f0 c4     beq   $8687
86c3: f3 ef f3  bbc7  $ef,$86b8
86c6: 01        tcall 0
86c7: ee        pop   y
86c8: 3f b3 43  call  $43b3
86cb: 0c 41 2e  asl   $2e41
86ce: fd        mov   y,a
86cf: 4d        push  x
86d0: 2f d3     bra   $86a5
86d2: 02 00     set0  $00
86d4: 00        nop
86d5: 00        nop
86d6: 00        nop
86d7: 00        nop
86d8: 00        nop
86d9: 00        nop
86da: 00        nop
86db: aa bf 45  mov1  c,$08b7,7
86de: 1c        asl   a
86df: be        das   a
86e0: 56 2a 90  eor   a,$902a+y
86e3: 55 aa 1c  eor   a,$1caa+x
86e6: cf        mul   ya
86e7: 34 2d     and   a,$2d+x
86e9: af        mov   (x)+,a
86ea: 34 4e     and   a,$4e+x
86ec: ac ba 13  inc   $13ba
86ef: 2f cf     bra   $86c0
86f1: 23 2d df  bbs1  $2d,$86d2
86f4: 22 2f     set1  $2f
86f6: ba ee     movw  ya,$ee
86f8: 02 3f     set0  $3f
86fa: de 13 3f  cbne  $13+x,$873b
86fd: dd        mov   a,y
86fe: 03 aa 7e  bbs0  $aa,$877e
8701: 9e        div   ya,x
8702: 24 4f     and   a,$4f
8704: ab 05     inc   $05
8706: 72 aa     clr3  $aa
8708: ba f2     movw  ya,$f2
870a: 31        tcall 3
870b: dd        mov   a,y
870c: 13 20 dd  bbc0  $20,$86eb
870f: 02 31     set0  $31
8711: ba ed     movw  ya,$ed
8713: 01        tcall 0
8714: 22 ec     set1  $ec
8716: f2 43     clr7  $43
8718: eb e1     mov   y,$e1
871a: b6 03 2e  sbc   a,$2e03+y
871d: e0        clrv
871e: 23 1d ce  bbs1  $1d,$86ee
8721: 14 40     or    a,$40+x
8723: b6 dd f3  sbc   a,$f3dd+y
8726: 3e cf     cmp   x,$cf
8728: 25 3e bc  and   a,$bc3e
872b: f4 ba     mov   a,$ba+x
872d: 1c        asl   a
872e: d0 13     bne   $8743
8730: 1c        asl   a
8731: d1        tcall 13
8732: 44 0b     eor   a,$0b
8734: c0        di
8735: ba 24     movw  ya,$24
8737: 2e df 13  cbne  $df,$874c
873a: 2c c0 35  rol   $35c0
873d: 3b ba     rol   $ba+x
873f: cd 24     mov   x,#$24
8741: 4d        push  x
8742: c0        di
8743: 23 2c bf  bbs1  $2c,$8704
8746: 35 ba 5c  and   a,$5cba+x
8749: bc        inc   a
874a: 14 5f     or    a,$5f+x
874c: a0        ei
874d: 13 4d 9e  bbc0  $4d,$86ed
8750: ba 35     movw  ya,$35
8752: 5f 9d 03  jmp   $039d
8755: 50 af     bvc   $8706
8757: 23 4d ba  bbs1  $4d,$8713
875a: ad 24     cmp   y,#$24
875c: 61        tcall 6
875d: ab 02     inc   $02
875f: 51        tcall 5
8760: bd        mov   sp,x
8761: 14 ba     or    a,$ba+x
8763: 6e aa 24  dbnz  $aa,$8789
8766: 53 ca f1  bbc2  $ca,$8759
8769: 53 bc ba  bbc2  $bc,$8725
876c: 13 51 aa  bbc0  $51,$8718
876f: 05 35 da  or    a,$da35
8772: e1        tcall 14
8773: 44 c2     eor   a,$c2
8775: 2f dd     bra   $8754
8777: 04 42     or    a,$42
8779: ed        notc
877a: e2 42     set7  $42
877c: 0e ca 22  tset1 $22ca
877f: fd        mov   y,a
8780: 01        tcall 0
8781: 23 cf d2  bbs1  $cf,$8755
8784: 23 0c ca  bbs1  $0c,$8750
8787: f0 13     beq   $879c
8789: 0c f1 33  asl   $33f1
878c: de d1 32  cbne  $d1+x,$87c0
878f: c2 33     set6  $33
8791: 1f e0 21  jmp   ($21e0+x)
8794: ec c1 44  mov   y,$44c1
8797: 0d        push  psw
8798: ca 32 2c  mov1  $0586,2,c
879b: e0        clrv
879c: 12 2d     clr0  $2d
879e: d0 25     bne   $87c5
87a0: 0c ca df  asl   $dfca
87a3: 32 4c     clr1  $4c
87a5: d0 12     bne   $87b9
87a7: 2d        push  a
87a8: d1        tcall 13
87a9: 13 c2 33  bbc0  $c2,$87de
87ac: 1d        dec   x
87ad: cc 14 2f  mov   $2f14,y
87b0: de 12 fd  cbne  $12+x,$87af
87b3: c2 ce     set6  $ce
87b5: 34 3e     and   a,$3e+x
87b7: cc 03 20  mov   $2003,y
87ba: ee        pop   y
87bb: 13 c2 0d  bbc0  $c2,$87ca
87be: ce        pop   x
87bf: 34 4f     and   a,$4f+x
87c1: cc 04 30  mov   $3004,y
87c4: ee        pop   y
87c5: c2 13     set6  $13
87c7: 1e dd 14  cmp   x,$14dd
87ca: 51        tcall 5
87cb: dc        dec   y
87cc: e2 31     set7  $31
87ce: ca 01 30  mov1  $0600,1,c
87d1: de 11 41  cbne  $11+x,$8814
87d4: cd f3     mov   x,#$f3
87d6: 23 c2 31  bbs1  $c2,$8809
87d9: fe f2     dbnz  y,$87cd
87db: 2f dd     bra   $87ba
87dd: 04 43     or    a,$43
87df: fc        inc   y
87e0: c2 c0     set6  $c0
87e2: 21        tcall 2
87e3: 0f        brk
87e4: f1        tcall 15
87e5: 20        clrp
87e6: ed        notc
87e7: e2 33     set7  $33
87e9: ba a0     movw  ya,$a0
87eb: 47 09     eor   a,($09+x)
87ed: f1        tcall 15
87ee: 33 ea e2  bbc1  $ea,$87d2
87f1: 47 b6     eor   a,($b6+x)
87f3: 60        clrc
87f4: ba e4     movw  ya,$e4
87f6: 5f de 16  jmp   $16de
87f9: 4d        push  x
87fa: ab ba     inc   $ba
87fc: 46        eor   a,(x)
87fd: 2a ce 16  or1   c,!($02d9,6)
8800: 2c d1 25  rol   $25d1
8803: 0a ba b0  or1   c,$1617,2
8806: 46        eor   a,(x)
8807: 2c cf 04  rol   $04cf
880a: 3c        rol   a
880b: d0 25     bne   $8832
880d: ba 2b     movw  ya,$2b
880f: bf        mov   a,(x)+
8810: 15 4e cf  or    a,$cf4e+x
8813: 03 2e cf  bbs0  $2e,$87e4
8816: ba 15     movw  ya,$15
8818: 5d        mov   x,a
8819: ac 15 5e  inc   $5e15
881c: b0 12     bcs   $8830
881e: 2e ba cf  cbne  $ba,$87ef
8821: 13 50 bc  bbc0  $50,$87df
8824: f3 50 ce  bbc7  $50,$87f4
8827: 13 b6 53  bbc0  $b6,$887c
882a: ec cf 45  mov   y,$45cf
882d: 1e de 23  cmp   x,$23de
8830: fd        mov   y,a
8831: ba 03     movw  ya,$03
8833: 41        tcall 4
8834: bd        mov   sp,x
8835: e2 52     set7  $52
8837: de f1 31  cbne  $f1+x,$886a
883a: ba ce     movw  ya,$ce
883c: 01        tcall 0
883d: 43 ec d0  bbs2  $ec,$880f
8840: 43 fd f1  bbs2  $fd,$8833
8843: ba 32     movw  ya,$32
8845: dd        mov   a,y
8846: e1        tcall 14
8847: 43 fd ef  bbs2  $fd,$8838
884a: 33 fd ba  bbc1  $fd,$8806
884d: e0        clrv
884e: 44 fb     eor   a,$fb
8850: d1        tcall 13
8851: 33 fe f0  bbc1  $fe,$8843
8854: 12 aa     clr0  $aa
8856: 0b c0     asl   $c0
8858: 56 1b bd  eor   a,$bd1b+y
885b: 37 2b     and   a,($2b)+y
885d: bf        mov   a,(x)+
885e: a6        sbc   a,(x)
885f: 07 7f     or    a,($7f+x)
8861: ba d4     movw  ya,$d4
8863: 62 ec     set3  $ec
8865: d3 50 ba  bbc6  $50,$8821
8868: ef        sleep
8869: 14 2e     or    a,$2e+x
886b: de 13 2e  cbne  $13+x,$889b
886e: df        daa   a
886f: 23 aa 2b  bbs1  $aa,$889c
8872: ce        pop   x
8873: 25 3f cc  and   a,$cc3f
8876: f5 5e cc  mov   a,$cc5e+x
8879: aa 16 4e  mov1  c,$09c2,6
887c: bc        inc   a
887d: 05 5f cd  or    a,$cd5f
8880: 04 3f     or    a,$3f
8882: aa dc f4  mov1  c,$1e9b,4
8885: 61        tcall 6
8886: bb f4     inc   $f4+x
8888: 51        tcall 5
8889: cb 04     mov   $04,y
888b: aa 50 bc  mov1  c,$178a,0
888e: 03 41 ec  bbs0  $41,$887c
8891: f2 42     clr7  $42
8893: db aa     mov   $aa+x,y
8895: e3 62 db  bbs7  $62,$8872
8898: d2 63     clr6  $63
889a: db e2     mov   $e2+x,y
889c: 52 aa     clr2  $aa
889e: dd        mov   a,y
889f: e1        tcall 14
88a0: 43 fb d0  bbs2  $fb,$8872
88a3: 55 fb b1  eor   a,$b1fb+x
88a6: a6        sbc   a,(x)
88a7: 16 5f bc  or    a,$bc5f+y
88aa: 15 3f bc  or    a,$bc3f+x
88ad: 14 41     or    a,$41+x
88af: aa cf 34  mov1  c,$0699,7
88b2: 2c be 56  rol   $56be
88b5: 2a 91 54  or1   c,!($0a92,1)
88b8: ab 1c     inc   $1c
88ba: cf        mul   ya
88bb: 34 2d     and   a,$2d+x
88bd: af        mov   (x)+,a
88be: 34 4e     and   a,$4e+x
88c0: ad 02     cmp   y,#$02
88c2: 00        nop
88c3: 00        nop
88c4: 00        nop
88c5: 00        nop
88c6: 00        nop
88c7: 00        nop
88c8: 00        nop
88c9: 00        nop
88ca: a2 11     set5  $11
88cc: 23 22 04  bbs1  $22,$88d2
88cf: 2c 10 f1  rol   $f110
88d2: 22 a2     set1  $a2
88d4: 2e f2 30  cbne  $f2,$8906
88d7: 0f        brk
88d8: f3 3b 13  bbc7  $3b,$88ed
88db: e1        tcall 14
88dc: a2 12     set5  $12
88de: 10 01     bpl   $88e1
88e0: 4e 03 0f  tclr1 $0f03
88e3: 42 f2     set2  $f2
88e5: a2 31     set5  $31
88e7: 5e 40 d0  cmp   y,$d040
88ea: f2 3f     clr7  $3f
88ec: 21        tcall 2
88ed: f2 a6     clr7  $a6
88ef: 00        nop
88f0: f0 02     beq   $88f4
88f2: 0c 06 3a  asl   $3a06
88f5: c5 22 a2  mov   $a222,a
88f8: ec 45 0d  mov   y,$0d45
88fb: 01        tcall 0
88fc: 12 44     clr0  $44
88fe: 14 f0     or    a,$f0+x
8900: b2 20     clr5  $20
8902: 24 e0     and   a,$e0
8904: 43 1c 12  bbs2  $1c,$8918
8907: 0f        brk
8908: 0f        brk
8909: b2 21     clr5  $21
890b: 11        tcall 1
890c: 02 ef     set0  $ef
890e: 5d        mov   x,a
890f: 25 e6 04  and   a,$04e6
8912: b2 02     clr5  $02
8914: 2c 13 e2  rol   $e213
8917: 3f 03 0e  call  $0e03
891a: 50 b2     bvc   $88ce
891c: f3 21 00  bbc7  $21,$891e
891f: 20        clrp
8920: 40        setp
8921: 05 e3 1e  or    a,$1ee3
8924: b2 42     clr5  $42
8926: 20        clrp
8927: d5 3f 1c  mov   $1c3f+x,a
892a: 56 10 07  eor   a,$0710+y
892d: c2 0f     set6  $0f
892f: 41        tcall 4
8930: f4 2e     mov   a,$2e+x
8932: 03 1e 01  bbs0  $1e,$8935
8935: 10 b2     bpl   $88e9
8937: ce        pop   x
8938: 42 2a     set2  $2a
893a: 04 1b     or    a,$1b
893c: 24 cf     and   a,$cf
893e: 3f b6 04  call  $04b6
8941: ec 64 aa  mov   y,$aa64
8944: 47 0b     eor   a,($0b+x)
8946: f2 12     clr7  $12
8948: c2 2e     set6  $2e
894a: 14 0e     or    a,$0e+x
894c: 32 d2     clr1  $d2
894e: 1e 33 0e  cmp   x,$0e33
8951: c6        mov   (x),a
8952: 33 de 22  bbc1  $de,$8976
8955: 0e f0 02  tset1 $02f0
8958: ee        pop   y
8959: 40        setp
895a: b2 02     clr5  $02
895c: cf        mul   ya
895d: 51        tcall 5
895e: e0        clrv
895f: 41        tcall 4
8960: ff        stop
8961: 13 2d b2  bbc0  $2d,$8915
8964: f3 00 23  bbc7  $00,$8989
8967: 11        tcall 1
8968: 21        tcall 2
8969: c3 5d 34  bbs6  $5d,$899f
896c: b2 f1     clr5  $f1
896e: 0f        brk
896f: 43 cf 33  bbs2  $cf,$89a4
8972: 1e 16 1e  cmp   x,$1e16
8975: b2 41     clr5  $41
8977: c3 1c 41  bbs6  $1c,$89ba
897a: f5 a3 4b  mov   a,$4ba3+x
897d: f4 b2     mov   a,$b2+x
897f: fd        mov   y,a
8980: 13 2f 13  bbc0  $2f,$8995
8983: ff        stop
8984: 62 c5     set3  $c5
8986: 2d        push  a
8987: b2 6d     clr5  $6d
8989: 4f c5     pcall $c5
898b: 1e 52 02  cmp   x,$0252
898e: 63 01 c2  bbs3  $01,$8952
8991: 12 0f     clr0  $0f
8993: 3f f4 d1  call  $d1f4
8996: 2f 21     bra   $89b9
8998: 02 b2     set0  $b2
899a: e5 0d 2e  mov   a,$2e0d
899d: 14 cd     or    a,$cd+x
899f: 54 d0     eor   a,$d0+x
89a1: 7c        ror   a
89a2: c2 02     set6  $02
89a4: e1        tcall 14
89a5: 1e 50 1f  cmp   x,$1f50
89a8: 5f c5 2d  jmp   $2dc5
89ab: c2 22     set6  $22
89ad: ff        stop
89ae: 5f b5 de  jmp   $deb5
89b1: 4f 21     pcall $21
89b3: f3 c2 c5  bbc7  $c2,$897a
89b6: e0        clrv
89b7: 3f 10 f4  call  $f410
89ba: fe 3e     dbnz  y,$89fa
89bc: e2 b2     set7  $b2
89be: 20        clrp
89bf: 33 c4 e3  bbc1  $c4,$89a4
89c2: f2 2e     clr7  $2e
89c4: 2d        push  a
89c5: 14 c2     or    a,$c2+x
89c7: e0        clrv
89c8: f1        tcall 15
89c9: e0        clrv
89ca: 1e 11 c5  cmp   x,$c511
89cd: e1        tcall 14
89ce: 01        tcall 0
89cf: c2 f1     set6  $f1
89d1: ff        stop
89d2: 20        clrp
89d3: f2 0f     clr7  $0f
89d5: 41        tcall 4
89d6: f4 d0     mov   a,$d0+x
89d8: c2 4c     set6  $4c
89da: 14 c5     or    a,$c5+x
89dc: fe 3c     dbnz  y,$8a1a
89de: 5d        mov   x,a
89df: 3c        rol   a
89e0: 2f c2     bra   $89a4
89e2: d5 b5 f1  mov   $f1b5+x,a
89e5: 00        nop
89e6: 1f 00 f2  jmp   ($f200+x)
89e9: ee        pop   y
89ea: b2 3c     clr5  $3c
89ec: 4b 3f     lsr   $3f
89ee: 05 b5 d4  or    a,$d4b5
89f1: e1        tcall 14
89f2: 21        tcall 2
89f3: c2 f2     set6  $f2
89f5: 2c 5d 13  rol   $135d
89f8: e2 1e     set7  $1e
89fa: 2f 02     bra   $89fe
89fc: b2 d5     clr5  $d5
89fe: 00        nop
89ff: 25 e2 50  and   a,$50e2
8a02: 1e 3d 41  cmp   x,$413d
8a05: c2 02     set6  $02
8a07: 1f 30 e5  jmp   ($e530+x)
8a0a: c4 0d     mov   $0d,a
8a0c: 50 ef     bvc   $89fd
8a0e: c2 4c     set6  $4c
8a10: 3c        rol   a
8a11: 20        clrp
8a12: ef        sleep
8a13: f0 f1     beq   $8a06
8a15: e0        clrv
8a16: 1e c2 4c  cmp   x,$4cc2
8a19: 42 d2     set2  $d2
8a1b: 30 02     bmi   $8a1f
8a1d: e1        tcall 14
8a1e: 20        clrp
8a1f: e1        tcall 14
8a20: c2 1e     set6  $1e
8a22: 3f 21 10  call  $1021
8a25: 4d        push  x
8a26: f2 5d     clr7  $5d
8a28: d4 c2     mov   $c2+x,a
8a2a: 11        tcall 1
8a2b: f0 e4     beq   $8a11
8a2d: e2 f2     set7  $f2
8a2f: 10 30     bpl   $8a61
8a31: f3 b2 b3  bbc7  $b2,$89e6
8a34: a6        sbc   a,(x)
8a35: 1b 4f     asl   $4f+x
8a37: bf        mov   a,(x)+
8a38: 00        nop
8a39: 2d        push  a
8a3a: 40        setp
8a3b: c2 ff     set6  $ff
8a3d: 3f e0 00  call  $00e0
8a40: 00        nop
8a41: 00        nop
8a42: 12 f4     clr0  $f4
8a44: c2 e2     set6  $e2
8a46: f4 f2     mov   a,$f2+x
8a48: e5 0e 4e  mov   a,$4e0e
8a4b: 4f 2f     pcall $2f
8a4d: c2 2e     set6  $2e
8a4f: 02 0d     set0  $0d
8a51: 4d        push  x
8a52: 3f f4 d1  call  $d1f4
8a55: 0d        push  psw
8a56: d2 10     clr6  $10
8a58: f2 ef     clr7  $ef
8a5a: 0e e2 d4  tset1 $d4e2
8a5d: ef        sleep
8a5e: 1e b2 23  cmp   x,$23b2
8a61: b7 b4     sbc   a,($b4)+y
8a63: 1e 51 f1  cmp   x,$f151
8a66: 60        clrc
8a67: 13 c2 10  bbc0  $c2,$8a79
8a6a: 3c        rol   a
8a6b: 40        setp
8a6c: ff        stop
8a6d: f2 f0     clr7  $f0
8a6f: 0e 6b c2  tset1 $c26b
8a72: 1f 3b 4f  jmp   ($4f3b+x)
8a75: 4a 6a 2d  and1  c,$05ad,2
8a78: 20        clrp
8a79: 11        tcall 1
8a7a: c2 f1     set6  $f1
8a7c: 1f 2f 03  jmp   ($032f+x)
8a7f: c4 f3     mov   $f3,a
8a81: d4 01     mov   $01+x,a
8a83: c2 20     set6  $20
8a85: 12 f1     clr0  $f1
8a87: ff        stop
8a88: 3f 1f 4e  call  $4e1f
8a8b: 0e c2 3e  tset1 $3ec2
8a8e: 1f 1d 3d  jmp   ($3d1d+x)
8a91: 3d        inc   x
8a92: 2f 10     bra   $8aa4
8a94: 1e c2 4c  cmp   x,$4cc2
8a97: e6        mov   a,(x)
8a98: ec 14 1a  mov   y,$1a14
8a9b: 3f 01 f2  call  $f201
8a9e: c2 d0     set6  $d0
8aa0: f0 30     beq   $8ad2
8aa2: 03 2a 35  bbs0  $2a,$8ad9
8aa5: cd 30     mov   x,#$30
8aa7: c2 f1     set6  $f1
8aa9: e2 e4     set7  $e4
8aab: ef        sleep
8aac: 5e 1f f1  cmp   y,$f11f
8aaf: 10 c2     bpl   $8a73
8ab1: 4f 23     pcall $23
8ab3: d0 4e     bne   $8b03
8ab5: d2 00     clr6  $00
8ab7: 3d        inc   x
8ab8: 0e c2 4f  tset1 $4fc2
8abb: 10 00     bpl   $8abd
8abd: 00        nop
8abe: 1f 30 3f  jmp   ($3f30+x)
8ac1: d2 c2     clr6  $c2
8ac3: 20        clrp
8ac4: fe 03     dbnz  y,$8ac9
8ac6: ef        sleep
8ac7: 3f 01 3e  call  $3e01
8aca: 4f b2     pcall $b2
8acc: d6 0f 43  mov   $430f+y,a
8acf: f0 4e     beq   $8b1f
8ad1: 1f 05 01  jmp   ($0105+x)
8ad4: c2 1f     set6  $1f
8ad6: 01        tcall 0
8ad7: d0 01     bne   $8ada
8ad9: c1        tcall 12
8ada: 4d        push  x
8adb: 22 d2     set1  $d2
8add: b2 0b     clr5  $0b
8adf: 55 0f 01  eor   a,$010f+x
8ae2: 00        nop
8ae3: f2 e0     clr7  $e0
8ae5: 02 b2     set0  $b2
8ae7: 02 3c     set0  $3c
8ae9: 7e ff     cmp   y,$ff
8aeb: 43 cf 63  bbs2  $cf,$8b50
8aee: ff        stop
8aef: c2 1e     set6  $1e
8af1: 01        tcall 0
8af2: 0e 21 e0  tset1 $e021
8af5: 40        setp
8af6: 03 2e b2  bbs0  $2e,$8aaa
8af9: 52 c6     clr2  $c6
8afb: 10 00     bpl   $8afd
8afd: 20        clrp
8afe: 01        tcall 0
8aff: 3f ff b2  call  $b2ff
8b02: 42 20     set2  $20
8b04: f0 22     beq   $8b28
8b06: 10 ff     bpl   $8b07
8b08: 14 0e     or    a,$0e+x
8b0a: a6        sbc   a,(x)
8b0b: 23 5b 00  bbs1  $5b,$8b0d
8b0e: 01        tcall 0
8b0f: 1e 22 a5  cmp   x,$a522
8b12: 9f        xcn   a
8b13: b2 24     clr5  $24
8b15: 1b d6     asl   $d6+x
8b17: 3e 31     cmp   x,$31
8b19: 12 10     clr0  $10
8b1b: 11        tcall 1
8b1c: b2 02     clr5  $02
8b1e: 2f df     bra   $8aff
8b20: 23 ee 22  bbs1  $ee,$8b44
8b23: e3 4c b2  bbs7  $4c,$8ad7
8b26: e1        tcall 14
8b27: 4f c1     pcall $c1
8b29: 1f ff 20  jmp   ($20ff+x)
8b2c: f1        tcall 15
8b2d: f1        tcall 15
8b2e: b2 11     clr5  $11
8b30: 3f 25 df  call  $df25
8b33: 32 11     clr1  $11
8b35: 0e f0 b2  tset1 $b2f0
8b38: 10 00     bpl   $8b3a
8b3a: ff        stop
8b3b: 21        tcall 2
8b3c: 22 ef     set1  $ef
8b3e: f4 20     mov   a,$20+x
8b40: a2 0f     set5  $0f
8b42: 11        tcall 1
8b43: 10 23     bpl   $8b68
8b45: f0 03     beq   $8b4a
8b47: 31        tcall 3
8b48: 0e a2 21  tset1 $21a2
8b4b: 0f        brk
8b4c: 1f f0 12  jmp   ($12f0+x)
8b4f: de 5f d1  cbne  $5f+x,$8b22
8b52: a6        sbc   a,(x)
8b53: 11        tcall 1
8b54: e1        tcall 14
8b55: f0 10     beq   $8b67
8b57: 0d        push  psw
8b58: 14 ff     or    a,$ff+x
8b5a: 3e a2     cmp   x,$a2
8b5c: db 25     mov   $25+x,y
8b5e: 62 1d     set3  $1d
8b60: a5 64 df  sbc   a,$df64
8b63: 22 a2     set1  $a2
8b65: 5d        mov   x,a
8b66: 22 40     set1  $40
8b68: f0 56     beq   $8bc0
8b6a: ef        sleep
8b6b: de 15 a2  cbne  $15+x,$8b0f
8b6e: dd        mov   a,y
8b6f: 25 00 23  and   a,$2300
8b72: 0e 31 ef  tset1 $ef31
8b75: 30 92     bmi   $8b09
8b77: d0 00     bne   $8b79
8b79: 06        or    a,(x)
8b7a: 4f bd     pcall $bd
8b7c: 56 b1 46  eor   a,$46b1+y
8b7f: a6        sbc   a,(x)
8b80: fc        inc   y
8b81: 41        tcall 4
8b82: f0 e2     beq   $8b66
8b84: 40        setp
8b85: 93 6a b6  bbc4  $6a,$8b3d
8b88: b2 22     clr5  $22
8b8a: 1d        dec   x
8b8b: 20        clrp
8b8c: 01        tcall 0
8b8d: ff        stop
8b8e: 11        tcall 1
8b8f: 01        tcall 0
8b90: 22 a2     set1  $a2
8b92: 11        tcall 1
8b93: 56 ee 73  eor   a,$73ee+y
8b96: 2f f3     bra   $8b8b
8b98: 34 ff     and   a,$ff+x
8b9a: b2 12     clr5  $12
8b9c: 1f f1 1d  jmp   ($1df1+x)
8b9f: 24 0d     and   a,$0d
8ba1: 43 ef b2  bbs2  $ef,$8b55
8ba4: ff        stop
8ba5: 3e f4     cmp   x,$f4
8ba7: 2d        push  a
8ba8: 11        tcall 1
8ba9: 1f f0 31  jmp   ($31f0+x)
8bac: a2 f1     set5  $f1
8bae: 5e f4 2b  cmp   y,$2bf4
8bb1: 50 0f     bvc   $8bc2
8bb3: f3 40 a2  bbc7  $40,$8b57
8bb6: 21        tcall 2
8bb7: 22 f0     set1  $f0
8bb9: 33 f3 00  bbc1  $f3,$8bbb
8bbc: 5f d7 a2  jmp   $a2d7
8bbf: 11        tcall 1
8bc0: 23 22 04  bbs1  $22,$8bc6
8bc3: 2c 22 12  rol   $1222
8bc6: 33 a3 3e  bbc1  $a3,$8c06
8bc9: f2 30     clr7  $30
8bcb: 0f        brk
8bcc: f3 3b 13  bbc7  $3b,$8be1
8bcf: e1        tcall 14
8bd0: 00        nop
8bd1: 00        nop
8bd2: 00        nop
8bd3: 00        nop
8bd4: 00        nop
8bd5: 00        nop
8bd6: 00        nop
8bd7: 00        nop
8bd8: 00        nop
8bd9: c8 00     cmp   x,#$00
8bdb: ef        sleep
8bdc: 30 00     bmi   $8bde
8bde: f0 00     beq   $8be0
8be0: 02 3d     set0  $3d
8be2: b8 d0 f2  sbc   $f2,#$d0
8be5: fb c5     mov   y,$c5+x
8be7: 4f 02     pcall $02
8be9: 0f        brk
8bea: 00        nop
8beb: 78 4d 5c  cmp   $5c,#$4d
8bee: 11        tcall 1
8bef: 23 33 34  bbs1  $33,$8c25
8bf2: 36 27 94  and   a,$9427+y
8bf5: 25 31 42  and   a,$4231
8bf8: 33 32 22  bbc1  $32,$8c1c
8bfb: 22 2a     set1  $2a
8bfd: 88 b2     adc   a,#$b2
8bff: 01        tcall 0
8c00: f1        tcall 15
8c01: ff        stop
8c02: d1        tcall 13
8c03: 3d        inc   x
8c04: ed        notc
8c05: ed        notc
8c06: 78 aa ba  cmp   $ba,#$aa
8c09: bb ba     inc   $ba+x
8c0b: bb bb     inc   $bb+x
8c0d: ab bb     inc   $bb
8c0f: 78 ab bb  cmp   $bb,#$ab
8c12: bb bc     inc   $bc+x
8c14: ad 2e     cmp   y,#$2e
8c16: cd dd     mov   x,#$dd
8c18: 68 cc     cmp   a,#$cc
8c1a: dd        mov   a,y
8c1b: ef        sleep
8c1c: 00        nop
8c1d: f2 12     clr7  $12
8c1f: 33 25 c8  bbc1  $25,$8be9
8c22: 00        nop
8c23: 00        nop
8c24: 10 f0     bpl   $8c16
8c26: 1f b3 30  jmp   ($30b3+x)
8c29: 00        nop
8c2a: 98 31 00  adc   $00,#$31
8c2d: 0c 02 01  asl   $0102
8c30: 22 11     set1  $11
8c32: 21        tcall 2
8c33: 78 54 75  cmp   $75,#$54
8c36: 65 55 55  cmp   a,$5555
8c39: 66        cmp   a,(x)
8c3a: 45 56 98  eor   a,$9856
8c3d: 11        tcall 1
8c3e: 21        tcall 2
8c3f: 11        tcall 1
8c40: 21        tcall 2
8c41: 12 11     clr0  $11
8c43: 02 da     set0  $da
8c45: 88 10     adc   a,#$10
8c47: 0f        brk
8c48: 00        nop
8c49: e1        tcall 14
8c4a: 5d        mov   x,a
8c4b: ed        notc
8c4c: ed        notc
8c4d: dd        mov   a,y
8c4e: 88 ed     adc   a,#$ed
8c50: dd        mov   a,y
8c51: ed        notc
8c52: de ed de  cbne  $ed+x,$8c32
8c55: ed        notc
8c56: c0        di
8c57: 84 dc     adc   a,$dc
8c59: dd        mov   a,y
8c5a: dd        mov   a,y
8c5b: ee        pop   y
8c5c: ee        pop   y
8c5d: ee        pop   y
8c5e: ef        sleep
8c5f: ff        stop
8c60: 68 af     cmp   a,#$af
8c62: cd cb     mov   x,#$cb
8c64: ed        notc
8c65: ce        pop   x
8c66: cf        mul   ya
8c67: ee        pop   y
8c68: ff        stop
8c69: 68 ff     cmp   a,#$ff
8c6b: 0f        brk
8c6c: 00        nop
8c6d: f0 3e     beq   $8cad
8c6f: 12 02     clr0  $02
8c71: 3a 74     incw  $74
8c73: f7 30     mov   a,($30)+y
8c75: 23 10 12  bbs1  $10,$8c89
8c78: 23 32 33  bbs1  $32,$8cad
8c7b: 68 21     cmp   a,#$21
8c7d: 36 2c 25  and   a,$252c+y
8c80: 1f 31 43  jmp   ($4331+x)
8c83: 0f        brk
8c84: 74 43     cmp   a,$43+x
8c86: 13 21 11  bbc0  $21,$8c99
8c89: 33 13 41  bbc1  $13,$8ccc
8c8c: 23 74 23  bbs1  $74,$8cb1
8c8f: 32 22     clr1  $22
8c91: 12 21     clr0  $21
8c93: 12 2f     clr0  $2f
8c95: e4 b4     mov   a,$b4
8c97: 00        nop
8c98: 00        nop
8c99: fe 22     dbnz  y,$8cbd
8c9b: ef        sleep
8c9c: 41        tcall 4
8c9d: 00        nop
8c9e: 01        tcall 0
8c9f: 84 4f     adc   a,$4f
8ca1: 12 f1     clr0  $f1
8ca3: 21        tcall 2
8ca4: 01        tcall 0
8ca5: 11        tcall 1
8ca6: 11        tcall 1
8ca7: 00        nop
8ca8: 74 21     cmp   a,$21+x
8caa: 21        tcall 2
8cab: 21        tcall 2
8cac: 02 0f     set0  $0f
8cae: df        daa   a
8caf: 0d        push  psw
8cb0: bf        mov   a,(x)+
8cb1: b8 00 00  sbc   $00,#$00
8cb4: 01        tcall 0
8cb5: 0f        brk
8cb6: 00        nop
8cb7: 00        nop
8cb8: 0f        brk
8cb9: 0d        push  psw
8cba: b4 c0     sbc   a,$c0+x
8cbc: f5 43 33  mov   a,$3343+x
8cbf: 20        clrp
8cc0: 0f        brk
8cc1: 00        nop
8cc2: 0f        brk
8cc3: 84 ad     adc   a,$ad
8cc5: 0c ff de  asl   $deff
8cc8: e0        clrv
8cc9: ef        sleep
8cca: fe dd     dbnz  y,$8ca9
8ccc: 68 ef     cmp   a,#$ef
8cce: de ed ee  cbne  $ed+x,$8cbe
8cd1: da ce     movw  $ce,ya
8cd3: ab 0e     inc   $0e
8cd5: 78 cc 2d  cmp   $2d,#$cc
8cd8: d1        tcall 13
8cd9: da 10     movw  $10,ya
8cdb: dc        dec   y
8cdc: df        daa   a
8cdd: dd        mov   a,y
8cde: 94 ee     adc   a,$ee+x
8ce0: de cf 9d  cbne  $cf+x,$8c7f
8ce3: 7e fe     cmp   y,$fe
8ce5: ff        stop
8ce6: ef        sleep
8ce7: a4 fe     sbc   a,$fe
8ce9: 21        tcall 2
8cea: fe 25     dbnz  y,$8d11
8cec: ef        sleep
8ced: 35 56 32  and   a,$3256+x
8cf0: 88 21     adc   a,#$21
8cf2: 03 32 c0  bbs0  $32,$8cb4
8cf5: 2f 11     bra   $8d08
8cf7: 1f 1f c4  jmp   ($c41f+x)
8cfa: 00        nop
8cfb: fe f0     dbnz  y,$8ced
8cfd: f0 22     beq   $8d21
8cff: 0c f4 1e  asl   $1ef4
8d02: c4 c2     mov   $c2,a
8d04: 3e d0     cmp   x,$d0
8d06: 1f ff 00  jmp   ($00ff+x)
8d09: 11        tcall 1
8d0a: 11        tcall 1
8d0b: a8 f0     sbc   a,#$f0
8d0d: 05 1a 10  or    a,$101a
8d10: 11        tcall 1
8d11: 10 01     bpl   $8d14
8d13: 11        tcall 1
8d14: b4 01     sbc   a,$01+x
8d16: fe fe     dbnz  y,$8d16
8d18: 0d        push  psw
8d19: 13 fe 2f  bbc0  $fe,$8d4a
8d1c: ee        pop   y
8d1d: 98 06 40  adc   $40,#$06
8d20: ed        notc
8d21: 5d        mov   x,a
8d22: d0 f0     bne   $8d14
8d24: f1        tcall 15
8d25: 0f        brk
8d26: b8 00 0f  sbc   $0f,#$00
8d29: 0f        brk
8d2a: e2 1f     set7  $1f
8d2c: f0 00     beq   $8d2e
8d2e: 04 b8     or    a,$b8
8d30: d1        tcall 13
8d31: 4b 2f     lsr   $2f
8d33: e2 f0     set7  $f0
8d35: 0f        brk
8d36: 6e b3 94  dbnz  $b3,$8ccc
8d39: 22 e4     set1  $e4
8d3b: 56 45 55  eor   a,$5545+y
8d3e: 43 33 22  bbs2  $33,$8d62
8d41: 94 23     adc   a,$23+x
8d43: 33 22 23  bbc1  $22,$8d68
8d46: 22 23     set1  $23
8d48: 0f        brk
8d49: 31        tcall 3
8d4a: 98 01 2f  adc   $2f,#$01
8d4d: 01        tcall 0
8d4e: 0c f0 00  asl   $00f0
8d51: 0f        brk
8d52: 0f        brk
8d53: a4 df     sbc   a,$df
8d55: 33 33 2b  bbc1  $33,$8d82
8d58: d4 ed     mov   $ed+x,a
8d5a: dd        mov   a,y
8d5b: be        das   a
8d5c: 98 3d ee  adc   $ee,#$3d
8d5f: ff        stop
8d60: fe 3b     dbnz  y,$8d9d
8d62: 72 be     clr3  $be
8d64: f4 94     mov   a,$94+x
8d66: 67 40     cmp   a,($40+x)
8d68: 11        tcall 1
8d69: 1d        dec   x
8d6a: ef        sleep
8d6b: ee        pop   y
8d6c: ca ac a8  mov1  $1515,4,c
8d6f: ec 41 f0  mov   y,$f041
8d72: f4 d3     mov   a,$d3+x
8d74: 2b f0     rol   $f0
8d76: 0f        brk
8d77: 78 0c 61  cmp   $61,#$0c
8d7a: eb 35     mov   y,$35
8d7c: b0 01     bcs   $8d7f
8d7e: 0e e0 a8  tset1 $a8e0
8d81: 0f        brk
8d82: f0 dd     beq   $8d61
8d84: 42 d4     set2  $d4
8d86: 5d        mov   x,a
8d87: 90 52     bcc   $8ddb
8d89: 98 be 4f  adc   $4f,#$be
8d8c: 3f 11 e2  call  $e211
8d8f: 11        tcall 1
8d90: 12 11     clr0  $11
8d92: 78 35 46  cmp   $46,#$35
8d95: 55 55 44  eor   a,$4455+x
8d98: 55 54 55  eor   a,$5554+x
8d9b: 88 22     adc   a,#$22
8d9d: 23 22 23  bbs1  $22,$8dc2
8da0: 22 32     set1  $32
8da2: 20        clrp
8da3: 52 98     clr2  $98
8da5: 11        tcall 1
8da6: 11        tcall 1
8da7: 11        tcall 1
8da8: 2f b1     bra   $8d5b
8daa: 4d        push  x
8dab: c3 e2 98  bbs6  $e2,$8d45
8dae: a0        ei
8daf: 31        tcall 3
8db0: fe 0f     dbnz  y,$8dc1
8db2: fe fe     dbnz  y,$8db2
8db4: fe ff     dbnz  y,$8db5
8db6: 78 ca 9c  cmp   $9c,#$ca
8db9: ba ac     movw  ya,$ac
8dbb: bb bb     inc   $bb+x
8dbd: ab bc     inc   $bc
8dbf: 98 fe ff  adc   $ff,#$fe
8dc2: fe f1     dbnz  y,$8db5
8dc4: 1f 40 bb  jmp   ($bb40+x)
8dc7: 0f        brk
8dc8: a8 f0     sbc   a,#$f0
8dca: 00        nop
8dcb: 00        nop
8dcc: 0f        brk
8dcd: ff        stop
8dce: 1f c2 1f  jmp   ($1fc2+x)
8dd1: a8 0f     sbc   a,#$0f
8dd3: 0f        brk
8dd4: ff        stop
8dd5: 05 0d 12  or    a,$120d
8dd8: 0f        brk
8dd9: 01        tcall 0
8dda: 88 0b     adc   a,#$0b
8ddc: 22 22     set1  $22
8dde: 23 33 22  bbs1  $33,$8e02
8de1: 23 23 78  bbs1  $23,$8e5b
8de4: 54 46     eor   a,$46+x
8de6: 54 45     eor   a,$45+x
8de8: 55 45 34  eor   a,$3445+x
8deb: 46        eor   a,(x)
8dec: a4 10     sbc   a,$10
8dee: 00        nop
8def: 1b e5     asl   $e5+x
8df1: bb ed     inc   $ed+x
8df3: 00        nop
8df4: de a8 00  cbne  $a8+x,$8df6
8df7: 0e 2f b2  tset1 $b22f
8dfa: 4c f0 00  lsr   $00f0
8dfd: 0f        brk
8dfe: 98 01 30  adc   $30,#$01
8e01: ce        pop   x
8e02: f5 ec 1e  mov   a,$1eec+x
8e05: 40        setp
8e06: e2 a4     set7  $a4
8e08: f2 db     clr7  $db
8e0a: 2f a4     bra   $8db0
8e0c: ff        stop
8e0d: 23 22 31  bbs1  $22,$8e40
8e10: 98 30 0f  adc   $0f,#$30
8e13: 0e fe 11  tset1 $11fe
8e16: c4 ed     mov   $ed,a
8e18: 32 98     clr1  $98
8e1a: f1        tcall 15
8e1b: 00        nop
8e1c: 3c        rol   a
8e1d: 20        clrp
8e1e: 02 de     set0  $de
8e20: 10 3f     bpl   $8e61
8e22: a4 23     sbc   a,$23
8e24: 32 11     clr1  $11
8e26: f0 b1     beq   $8dd9
8e28: 0e e0 30  tset1 $30e0
8e2b: a4 ef     sbc   a,$ef
8e2d: eb 00     mov   y,$00
8e2f: 12 f1     clr0  $f1
8e31: 11        tcall 1
8e32: 04 32     or    a,$32
8e34: a8 3c     sbc   a,#$3c
8e36: 11        tcall 1
8e37: 10 0e     bpl   $8e47
8e39: 1e 10 02  cmp   x,$0210
8e3c: d0 98     bne   $8dd6
8e3e: 6f        ret
8e3f: b1        tcall 11
8e40: 1d        dec   x
8e41: 3e e2     cmp   x,$e2
8e43: ef        sleep
8e44: b2 11     clr5  $11
8e46: 94 03     adc   a,$03+x
8e48: 1f ff 10  jmp   ($10ff+x)
8e4b: 1f 11 2f  jmp   ($2f11+x)
8e4e: 62 a8     set3  $a8
8e50: d5 1d f3  mov   $f31d+x,a
8e53: 03 fe 21  bbs0  $fe,$8e76
8e56: f0 10     beq   $8e68
8e58: a4 11     sbc   a,$11
8e5a: 0d        push  psw
8e5b: 11        tcall 1
8e5c: ee        pop   y
8e5d: de ce dd  cbne  $ce+x,$8e3c
8e60: fe a4     dbnz  y,$8e06
8e62: e0        clrv
8e63: f4 5f     mov   a,$5f+x
8e65: 01        tcall 0
8e66: 40        setp
8e67: 24 f0     and   a,$f0
8e69: 00        nop
8e6a: a4 3e     sbc   a,$3e
8e6c: a2 0e     set5  $0e
8e6e: be        das   a
8e6f: 40        setp
8e70: e0        clrv
8e71: f0 3f     beq   $8eb2
8e73: 94 c2     adc   a,$c2+x
8e75: 23 f3 12  bbs1  $f3,$8e89
8e78: 3f 2e 43  call  $432e
8e7b: 0d        push  psw
8e7c: 98 33 b3  adc   $b3,#$33
8e7f: 1e 11 f1  cmp   x,$f111
8e82: 0e fe f2  tset1 $f2fe
8e85: 98 0e 0e  adc   $0e,#$0e
8e88: 30 f3     bmi   $8e7d
8e8a: ef        sleep
8e8b: 11        tcall 1
8e8c: f4 fd     mov   a,$fd+x
8e8e: 98 10 0f  adc   $0f,#$10
8e91: 1f f4 de  jmp   ($def4+x)
8e94: 13 c0 1f  bbc0  $c0,$8eb5
8e97: 78 2c 4d  cmp   $4d,#$2c
8e9a: 13 b3 20  bbc0  $b3,$8ebc
8e9d: b5 00 04  sbc   a,$0400+x
8ea0: a4 33     sbc   a,$33
8ea2: 33 21 00  bbc1  $21,$8ea4
8ea5: 0f        brk
8ea6: 2d        push  a
8ea7: cf        mul   ya
8ea8: ef        sleep
8ea9: 84 dc     adc   a,$dc
8eab: 2c f3 53  rol   $53f3
8eae: f0 e3     beq   $8e93
8eb0: ab c9     inc   $c9
8eb2: 98 0d 3e  adc   $3e,#$0d
8eb5: e2 0e     set7  $0e
8eb7: 04 d0     or    a,$d0
8eb9: 2f d0     bra   $8e8b
8ebb: 94 11     adc   a,$11+x
8ebd: 20        clrp
8ebe: 1f f3 0f  jmp   ($0ff3+x)
8ec1: 0d        push  psw
8ec2: ce        pop   x
8ec3: 2d        push  a
8ec4: 94 d4     adc   a,$d4+x
8ec6: 40        setp
8ec7: 13 1f f4  bbc0  $1f,$8ebd
8eca: 23 44 1a  bbs1  $44,$8ee6
8ecd: 98 42 f0  adc   $f0,#$42
8ed0: 0f        brk
8ed1: f1        tcall 15
8ed2: ff        stop
8ed3: 32 f1     clr1  $f1
8ed5: 1f 98 10  jmp   ($1098+x)
8ed8: f2 1e     clr7  $1e
8eda: 20        clrp
8edb: 04 ff     or    a,$ff
8edd: 01        tcall 0
8ede: 2f a4     bra   $8e84
8ee0: 03 fd 01  bbs0  $fd,$8ee3
8ee3: 2f f1     bra   $8ed6
8ee5: 11        tcall 1
8ee6: 10 f0     bpl   $8ed8
8ee8: 98 2f 02  adc   $02,#$2f
8eeb: 01        tcall 0
8eec: 22 00     set1  $00
8eee: 21        tcall 2
8eef: c0        di
8ef0: 3c        rol   a
8ef1: a8 2e     sbc   a,#$2e
8ef3: f2 ee     clr7  $ee
8ef5: 14 fe     or    a,$fe+x
8ef7: d4 e1     mov   $e1+x,a
8ef9: 0d        push  psw
8efa: 94 1f     adc   a,$1f+x
8efc: e5 3e 1f  mov   a,$1f3e
8eff: ce        pop   x
8f00: fe 1f     dbnz  y,$8f21
8f02: f0 94     beq   $8e98
8f04: dc        dec   y
8f05: 04 f0     or    a,$f0
8f07: 23 20 33  bbs1  $20,$8f3c
8f0a: 12 43     clr0  $43
8f0c: 78 54 1f  cmp   $1f,#$54
8f0f: 62 f3     set3  $f3
8f11: 44 24     eor   a,$24
8f13: 43 44 98  bbs2  $44,$8ead
8f16: 11        tcall 1
8f17: 11        tcall 1
8f18: 10 11     bpl   $8f2b
8f1a: 3a d5     incw  $d5
8f1c: 1c        asl   a
8f1d: f6 88 ca  mov   a,$ca88+y
8f20: 32 21     clr1  $21
8f22: b4 fd     sbc   a,$fd+x
8f24: 31        tcall 3
8f25: cd 0e     mov   x,#$0e
8f27: 88 e5     adc   a,#$e5
8f29: 3c        rol   a
8f2a: bf        mov   a,(x)+
8f2b: 3c        rol   a
8f2c: f1        tcall 15
8f2d: ee        pop   y
8f2e: 20        clrp
8f2f: bf        mov   a,(x)+
8f30: 88 ff     adc   a,#$ff
8f32: e0        clrv
8f33: ef        sleep
8f34: ee        pop   y
8f35: 2c df 0d  rol   $0ddf
8f38: df        daa   a
8f39: 78 cc cd  cmp   $cd,#$cc
8f3c: cd cc     mov   x,#$cc
8f3e: dc        dec   y
8f3f: cc dc cc  mov   $ccdc,y
8f42: 78 cc cd  cmp   $cd,#$cc
8f45: dc        dec   y
8f46: db 56     mov   $56+x,y
8f48: 9f        xcn   a
8f49: ab ce     inc   $ce
8f4b: 88 d0     adc   a,#$d0
8f4d: 0d        push  psw
8f4e: e4 ff     mov   a,$ff
8f50: 01        tcall 0
8f51: ef        sleep
8f52: 41        tcall 4
8f53: a2 88     set5  $88
8f55: 6a 0d 33  and1  c,!($0661,5)
8f58: a6        sbc   a,(x)
8f59: d2 23     clr6  $23
8f5b: f3 1e 88  bbc7  $1e,$8ee5
8f5e: 61        tcall 6
8f5f: f5 d2 5d  mov   a,$5dd2+x
8f62: 40        setp
8f63: f4 2e     mov   a,$2e+x
8f65: f5 88 2f  mov   a,$2f88+x
8f68: 32 e3     clr1  $e3
8f6a: 12 12     clr0  $12
8f6c: 41        tcall 4
8f6d: 23 13 78  bbs1  $13,$8fe7
8f70: ed        notc
8f71: 63 33 45  bbs3  $33,$8fb8
8f74: 34 43     and   a,$43+x
8f76: 43 5e 94  bbs2  $5e,$8f0c
8f79: ee        pop   y
8f7a: df        daa   a
8f7b: dc        dec   y
8f7c: fe 0f     dbnz  y,$8f8d
8f7e: e2 0f     set7  $0f
8f80: 12 88     clr0  $88
8f82: 0f        brk
8f83: 31        tcall 3
8f84: 10 e0     bpl   $8f66
8f86: 02 de     set0  $de
8f88: 6f        ret
8f89: d2 88     clr6  $88
8f8b: 0c 10 fe  asl   $fe10
8f8e: d2 de     clr6  $de
8f90: 2e ff fe  cbne  $ff,$8f90
8f93: 88 df     adc   a,#$df
8f95: fe f0     dbnz  y,$8f87
8f97: 1d        dec   x
8f98: 20        clrp
8f99: 14 ca     or    a,$ca+x
8f9b: 0f        brk
8f9c: 88 00     adc   a,#$00
8f9e: 2e 13 d2  cbne  $13,$8f72
8fa1: f4 c1     mov   a,$c1+x
8fa3: 3f 2d 88  call  $882d
8fa6: e2 0e     set7  $0e
8fa8: 5f e1 4f  jmp   $4fe1
8fab: 01        tcall 0
8fac: 04 ff     or    a,$ff
8fae: 88 e1     adc   a,#$e1
8fb0: d0 14     bne   $8fc6
8fb2: 6d        push  y
8fb3: ff        stop
8fb4: 3e c6     cmp   x,$c6
8fb6: 2b 88     rol   $88
8fb8: 35 fe f2  and   a,$f2fe+x
8fbb: d1        tcall 13
8fbc: 6a 3d a2  and1  c,!($1447,5)
8fbf: 5f 88 e2  jmp   $e288
8fc2: e1        tcall 14
8fc3: fd        mov   y,a
8fc4: 12 1f     clr0  $1f
8fc6: f1        tcall 15
8fc7: 0c 22 78  asl   $7822
8fca: f0 3e     beq   $900a
8fcc: 12 22     clr0  $22
8fce: 00        nop
8fcf: 41        tcall 4
8fd0: 2f 30     bra   $9002
8fd2: 88 10     adc   a,#$10
8fd4: ef        sleep
8fd5: 11        tcall 1
8fd6: ff        stop
8fd7: 04 f0     or    a,$f0
8fd9: f3 1c 98  bbc7  $1c,$8f73
8fdc: 31        tcall 3
8fdd: c1        tcall 12
8fde: 4e f0 f0  tclr1 $f0f0
8fe1: 10 f1     bpl   $8fd4
8fe3: f0 84     beq   $8f69
8fe5: ee        pop   y
8fe6: 9e        div   ya,x
8fe7: 22 c4     set1  $c4
8fe9: 6d        push  y
8fea: 00        nop
8feb: 20        clrp
8fec: 62 88     set3  $88
8fee: f2 c2     clr7  $c2
8ff0: 11        tcall 1
8ff1: ce        pop   x
8ff2: 40        setp
8ff3: 2f ef     bra   $8fe4
8ff5: f4 88     mov   a,$88+x
8ff7: f1        tcall 15
8ff8: 1e 1f 01  cmp   x,$011f
8ffb: e1        tcall 14
8ffc: 1e f1 ce  cmp   x,$cef1
8fff: 78 5b 1c  cmp   $1c,#$5b
9002: c1        tcall 12
9003: fe ef     dbnz  y,$8ff4
9005: 1f 9c 3a  jmp   ($3a9c+x)
9008: 74 b0     cmp   a,$b0+x
900a: f0 c1     beq   $8fcd
900c: fa c0 fe  mov   ($fe),($c0)
900f: 12 bf     clr0  $bf
9011: 88 2d     adc   a,#$2d
9013: 4e c5 1c  tclr1 $1cc5
9016: 15 cc 32  or    a,$32cc+x
9019: e4 88     mov   a,$88
901b: de 02 1e  cbne  $02+x,$903b
901e: 21        tcall 2
901f: 20        clrp
9020: c2 1f     set6  $1f
9022: fe 74     dbnz  y,$9098
9024: 00        nop
9025: a9 ce ce  sbc   ($ce),($ce)
9028: ee        pop   y
9029: 11        tcall 1
902a: 51        tcall 5
902b: 37 78     and   a,($78)+y
902d: b3 3e f2  bbc5  $3e,$9021
9030: dd        mov   a,y
9031: 73 bf 33  bbc3  $bf,$9066
9034: 1d        dec   x
9035: 84 01     adc   a,$01
9037: 1e 22 00  cmp   x,$0022
903a: ff        stop
903b: f0 2e     beq   $906b
903d: ce        pop   x
903e: 84 f1     adc   a,$f1
9040: fe fd     dbnz  y,$903f
9042: 00        nop
9043: 01        tcall 0
9044: df        daa   a
9045: 3b a3     rol   $a3+x
9047: 88 cc     adc   a,#$cc
9049: c0        di
904a: 3f 0d f1  call  $f10d
904d: 2e 01 10  cbne  $01,$905f
9050: 88 dc     adc   a,#$dc
9052: 60        clrc
9053: fe 23     dbnz  y,$9078
9055: df        daa   a
9056: 20        clrp
9057: 10 13     bpl   $906c
9059: 78 1e 50  cmp   $50,#$1e
905c: 1f 20 01  jmp   ($0120+x)
905f: e1        tcall 14
9060: e0        clrv
9061: d1        tcall 13
9062: 78 fc fe  cmp   $fe,#$fc
9065: fd        mov   y,a
9066: c2 1b     set6  $1b
9068: fe 02     dbnz  y,$906c
906a: b1        tcall 11
906b: 88 0f     adc   a,#$0f
906d: 00        nop
906e: c2 4c     set6  $4c
9070: d1        tcall 13
9071: 3f d6 2e  call  $2ed6
9074: 94 02     adc   a,$02+x
9076: 10 30     bpl   $90a8
9078: 0f        brk
9079: 42 00     set2  $00
907b: f0 10     beq   $908d
907d: 84 cf     adc   a,$cf
907f: 3a f2     incw  $f2
9081: 01        tcall 0
9082: 47 00     eor   a,($00+x)
9084: 43 12 74  bbs2  $12,$90fa
9087: 3e 14     cmp   x,$14
9089: 12 02     clr0  $02
908b: e0        clrv
908c: 00        nop
908d: 01        tcall 0
908e: 1e 78 03  cmp   x,$0378
9091: f0 d2     beq   $9065
9093: 3a c5     incw  $c5
9095: de 30 ef  cbne  $30+x,$9086
9098: 78 29 d2  cmp   $d2,#$29
909b: 0c e0 ef  asl   $efe0
909e: dc        dec   y
909f: 00        nop
90a0: cf        mul   ya
90a1: 68 d3     cmp   a,#$d3
90a3: bb 59     inc   $59+x
90a5: 1d        dec   x
90a6: c2 db     set6  $db
90a8: 40        setp
90a9: df        daa   a
90aa: 88 02     adc   a,#$02
90ac: 1e 10 11  cmp   x,$1110
90af: f4 1e     mov   a,$1e+x
90b1: 04 0f     or    a,$0f
90b3: 78 61 0f  cmp   $0f,#$61
90b6: 22 10     set1  $10
90b8: 1f 0e 32  jmp   ($320e+x)
90bb: 0f        brk
90bc: 84 be     adc   a,$be
90be: ef        sleep
90bf: bf        mov   a,(x)+
90c0: 1c        asl   a
90c1: 21        tcall 2
90c2: 02 12     set0  $12
90c4: 2f 90     bra   $9056
90c6: e0        clrv
90c7: 10 14     bpl   $90dd
90c9: 5f d0 21  jmp   $21d0
90cc: ff        stop
90cd: fe 84     dbnz  y,$9053
90cf: e0        clrv
90d0: 35 cd 43  and   a,$43cd+x
90d3: 1e 34 f1  cmp   x,$f134
90d6: 11        tcall 1
90d7: 78 f1 1f  cmp   $1f,#$f1
90da: e2 d2     set7  $d2
90dc: 13 1d d3  bbc0  $1d,$90b1
90df: d1        tcall 13
90e0: 88 e3     adc   a,#$e3
90e2: 1f f9 43  jmp   ($43f9+x)
90e5: 00        nop
90e6: ef        sleep
90e7: 02 0d     set0  $0d
90e9: 74 3e     cmp   a,$3e+x
90eb: 45 11 10  eor   a,$1011
90ee: 26        and   a,(x)
90ef: ee        pop   y
90f0: 02 0e     set0  $0e
90f2: 74 ef     cmp   a,$ef+x
90f4: d0 ea     bne   $90e0
90f6: ff        stop
90f7: 20        clrp
90f8: 3f e7 62  call  $62e7
90fb: 84 42     adc   a,$42
90fd: 03 34 13  bbs0  $34,$9112
9100: 41        tcall 4
9101: 12 fe     clr0  $fe
9103: 30 74     bmi   $9179
9105: 0f        brk
9106: f0 1c     beq   $9124
9108: 01        tcall 0
9109: 30 10     bmi   $911b
910b: 1d        dec   x
910c: e0        clrv
910d: 78 c3 ed  cmp   $ed,#$c3
9110: 3f 13 a1  call  $a113
9113: 01        tcall 0
9114: 03 eb 74  bbs0  $eb,$918a
9117: 36 f1 33  and   a,$33f1+y
911a: 1e 10 e0  cmp   x,$e010
911d: 1c        asl   a
911e: c0        di
911f: 78 ec 3f  cmp   $3f,#$ec
9122: e1        tcall 14
9123: 00        nop
9124: 1d        dec   x
9125: e0        clrv
9126: 11        tcall 1
9127: c1        tcall 12
9128: 78 00 ef  cmp   $ef,#$00
912b: e1        tcall 14
912c: 30 bf     bmi   $90ed
912e: 43 cf 41  bbs2  $cf,$9171
9131: 78 e0 f4  cmp   $f4,#$e0
9134: e0        clrv
9135: 01        tcall 0
9136: d0 22     bne   $915a
9138: 2d        push  a
9139: d3 84 0e  bbc6  $84,$9149
913c: f4 1e     mov   a,$1e+x
913e: 11        tcall 1
913f: 32 03     clr1  $03
9141: 23 30 78  bbs1  $30,$91bb
9144: 43 e1 f1  bbs2  $e1,$9137
9147: 10 12     bpl   $915b
9149: fe 41     dbnz  y,$918c
914b: e1        tcall 14
914c: 64 bd     cmp   a,$bd
914e: ee        pop   y
914f: ec 11 ee  mov   y,$ee11
9152: c1        tcall 12
9153: ba da     movw  ya,$da
9155: 74 cc     cmp   a,$cc+x
9157: ee        pop   y
9158: ba fc     movw  ya,$fc
915a: ab c3     inc   $c3
915c: db 1e     mov   $1e+x,y
915e: 68 d1     cmp   a,#$d1
9160: 3f be 5f  call  $5fbe
9163: c0        di
9164: 02 c2     set0  $c2
9166: 2d        push  a
9167: 64 43     cmp   a,$43
9169: 4f 75     pcall $75
916b: f2 32     clr7  $32
916d: 00        nop
916e: 2e ff 54  cbne  $ff,$91c4
9171: 4f cf     pcall $cf
9173: fc        inc   y
9174: d0 91     bne   $9107
9176: 3f bf d1  call  $d1bf
9179: 68 fe     cmp   a,#$fe
917b: 10 c4     bpl   $9141
917d: 3c        rol   a
917e: ee        pop   y
917f: 3f e2 d2  call  $d2e2
9182: 58 39 c7  eor   $c7,#$39
9185: 2d        push  a
9186: b1        tcall 11
9187: 5b 24     lsr   $24+x
9189: d0 2f     bne   $91ba
918b: 58 11 1f  eor   $1f,#$11
918e: 6c e5 1f  ror   $1fe5
9191: 20        clrp
9192: 22 1f     set1  $1f
9194: 54 f1     eor   a,$f1+x
9196: 32 10     clr1  $10
9198: 01        tcall 0
9199: 0d        push  psw
919a: 0f        brk
919b: a0        ei
919c: ed        notc
919d: 54 dd     eor   a,$dd+x
919f: de fd c1  cbne  $fd+x,$9162
91a2: fe 00     dbnz  y,$91a4
91a4: f0 10     beq   $91b6
91a6: 34 51     and   a,$51+x
91a8: f0 33     beq   $91dd
91aa: 00        nop
91ab: 11        tcall 1
91ac: fe 2f     dbnz  y,$91dd
91ae: e0        clrv
91af: 14 2e     or    a,$2e+x
91b1: e2 00     set7  $00
91b3: 01        tcall 0
91b4: 21        tcall 2
91b5: 21        tcall 2
91b6: 02 21     set0  $21
91b8: 04 40     or    a,$40
91ba: 01        tcall 0
91bb: 32 34     clr1  $34
91bd: 11        tcall 1
91be: 01        tcall 0
91bf: 10 00     bpl   $91c1
91c1: 05 00 f0  or    a,$f000
91c4: f0 f0     beq   $91b6
91c6: 0f        brk
91c7: 00        nop
91c8: 00        nop
91c9: 00        nop
91ca: 02 00     set0  $00
91cc: 00        nop
91cd: 00        nop
91ce: 00        nop
91cf: 00        nop
91d0: 00        nop
91d1: 00        nop
91d2: 00        nop
91d3: b2 ff     clr5  $ff
91d5: d0 ea     bne   $91c1
91d7: e0        clrv
91d8: e0        clrv
91d9: cc f6 43  mov   $43f6,y
91dc: b6 df f3  sbc   a,$f3df+y
91df: 20        clrp
91e0: c1        tcall 12
91e1: 11        tcall 1
91e2: 11        tcall 1
91e3: bc        inc   a
91e4: f5 b2 3f  mov   a,$3fb2+x
91e7: 33 14 32  bbc1  $14,$921b
91ea: 2f b0     bra   $919c
91ec: 0f        brk
91ed: 24 b6     and   a,$b6
91ef: 0a df 30  or1   c,$061b,7
91f2: 12 e3     clr0  $e3
91f4: c0        di
91f5: 2f 2f     bra   $9226
91f7: b6 ed d4  sbc   a,$d4ed+y
91fa: 12 1c     clr0  $1c
91fc: 0f        brk
91fd: 52 1f     clr2  $1f
91ff: b5 b6 3d  sbc   a,$3db6+x
9202: c1        tcall 12
9203: 25 fe b2  and   a,$b2fe
9206: 2d        push  a
9207: 40        setp
9208: af        mov   (x)+,a
9209: b6 c0 53  sbc   a,$53c0+y
920c: 23 be 24  bbs1  $be,$9232
920f: b3 09 f3  bbc5  $09,$9204
9212: c6        mov   (x),a
9213: 3f 01 df  call  $df01
9216: f2 f0     clr7  $f0
9218: 41        tcall 4
9219: fe f2     dbnz  y,$920d
921b: b2 44     clr5  $44
921d: cf        mul   ya
921e: 32 30     clr1  $30
9220: c1        tcall 12
9221: 40        setp
9222: e0        clrv
9223: 20        clrp
9224: b2 1f     clr5  $1f
9226: b3 2e 10  bbc5  $2e,$9238
9229: 16 20 fe  or    a,$fe20+y
922c: ad b6     cmp   y,#$b6
922e: 4a c3 22  and1  c,$0458,3
9231: d6 4e 11  mov   $114e+y,a
9234: 0e 0d b2  tset1 $b20d
9237: 46        eor   a,(x)
9238: 41        tcall 4
9239: c3 4f a9  bbs6  $4f,$91e4
923c: cc d1 f9  mov   $f9d1,y
923f: c2 ee     set6  $ee
9241: ce        pop   x
9242: fd        mov   y,a
9243: f2 20     clr7  $20
9245: ce        pop   x
9246: 12 31     clr0  $31
9248: b6 24 a0  sbc   a,$a024+y
924b: ef        sleep
924c: 1d        dec   x
924d: 11        tcall 1
924e: f3 b5 ee  bbc7  $b5,$923e
9251: b6 73 c1  sbc   a,$c173+y
9254: 40        setp
9255: 0a c0 3d  or1   c,$07b8,0
9258: cf        mul   ya
9259: 27 b2     and   a,($b2+x)
925b: 24 4f     and   a,$4f
925d: 43 55 fd  bbs2  $55,$925c
9260: cb 14     mov   $14,y
9262: 66        cmp   a,(x)
9263: c2 fe     set6  $fe
9265: ef        sleep
9266: 13 3f dd  bbc0  $3f,$9245
9269: e0        clrv
926a: cd 0e     mov   x,#$0e
926c: b6 e5 11  sbc   a,$11e5+y
926f: 20        clrp
9270: 30 2a     bmi   $929c
9272: be        das   a
9273: 63 1e c6  bbs3  $1e,$923b
9276: f1        tcall 15
9277: 0d        push  psw
9278: 1f 00 e0  jmp   ($e000+x)
927b: 32 ce     clr1  $ce
927d: 32 b6     clr1  $b6
927f: 1d        dec   x
9280: fe c3     dbnz  y,$9245
9282: 12 5c     clr0  $5c
9284: f0 fc     beq   $9282
9286: 12 c6     clr0  $c6
9288: 21        tcall 2
9289: 20        clrp
928a: fd        mov   y,a
928b: 01        tcall 0
928c: e3 01 2f  bbs7  $01,$92bd
928f: 10 b2     bpl   $9243
9291: 3b da     rol   $da+x
9293: cf        mul   ya
9294: 3b cd     rol   $cd+x
9296: d2 63     clr6  $63
9298: 1e b6 d3  cmp   x,$d3b6
929b: 4d        push  x
929c: 4e f3 ed  tclr1 $edf3
929f: b1        tcall 11
92a0: 6d        push  y
92a1: 43 b6 f2  bbs2  $b6,$9295
92a4: 30 da     bmi   $9280
92a6: 5c        lsr   a
92a7: 04 0d     or    a,$0d
92a9: ff        stop
92aa: 51        tcall 5
92ab: b6 ec 0e  sbc   a,$0eec+y
92ae: 03 4c 01  bbs0  $4c,$92b1
92b1: 11        tcall 1
92b2: 1f 00 c6  jmp   ($c600+x)
92b5: ff        stop
92b6: 01        tcall 0
92b7: 2e c2 f1  cbne  $c2,$92aa
92ba: 31        tcall 3
92bb: cf        mul   ya
92bc: 23 b2 3d  bbs1  $b2,$92fb
92bf: f1        tcall 15
92c0: 35 2f c0  and   a,$c02f+x
92c3: 4e 3e ef  tclr1 $ef3e
92c6: ba 10     movw  ya,$10
92c8: e3 0a 0d  bbs7  $0a,$92d7
92cb: 46        eor   a,(x)
92cc: c2 2b     set6  $2b
92ce: 10 b6     bpl   $9286
92d0: 14 00     or    a,$00+x
92d2: cb 12     mov   $12,y
92d4: 22 fe     set1  $fe
92d6: 3e f3     cmp   x,$f3
92d8: b2 0f     clr5  $0f
92da: cf        mul   ya
92db: ea df e0  not1  $1c1b,7
92de: bb e5     inc   $e5+x
92e0: 33 b7 df  bbc1  $b7,$92c1
92e3: f3 20 c1  bbc7  $20,$92a6
92e6: 11        tcall 1
92e7: 11        tcall 1
92e8: bc        inc   a
92e9: 05 02 00  or    a,$0002
92ec: 00        nop
92ed: 00        nop
92ee: 00        nop
92ef: 00        nop
92f0: 00        nop
92f1: 00        nop
92f2: 00        nop
92f3: 7a 00     addw  ya,$00
92f5: 0e 4d a6  tset1 $a64d
92f8: 1f 1b d1  jmp   ($d11b+x)
92fb: 02 7a     set0  $7a
92fd: 4f c1     pcall $c1
92ff: 3c        rol   a
9300: c3 62 fd  bbs6  $62,$92ff
9303: f2 34     clr7  $34
9305: 8a 1a c3  eor1  c,$1863,2
9308: 44 1c     eor   a,$1c
930a: c0        di
930b: 0e 22 13  tset1 $1322
930e: 8a eb e1  eor1  c,$1c3d,3
9311: 23 0e 01  bbs1  $0e,$9314
9314: eb e4     mov   y,$e4
9316: 30 9a     bmi   $92b2
9318: 01        tcall 0
9319: 10 0f     bpl   $932a
931b: fe 03     dbnz  y,$9320
931d: 41        tcall 4
931e: db 01     mov   $01+x,y
9320: 8a 01 4f  eor1  c,$09e0,1
9323: 11        tcall 1
9324: be        das   a
9325: 10 04     bpl   $932b
9327: fe 32     dbnz  y,$935b
9329: 86        adc   a,(x)
932a: 2d        push  a
932b: e3 55 54  bbs7  $55,$9381
932e: 55 41 c9  eor   a,$c941+x
9331: e7 9a     mov   a,($9a+x)
9333: 3f be 0f  call  $0fbe
9336: f1        tcall 15
9337: 12 40     clr0  $40
9339: bd        mov   sp,x
933a: 03 8a 5e  bbs0  $8a,$939a
933d: c2 1d     set6  $1d
933f: bf        mov   a,(x)+
9340: 40        setp
9341: e2 33     set7  $33
9343: 4e 9a de  tclr1 $de9a
9346: f1        tcall 15
9347: 53 0c df  bbc2  $0c,$9328
934a: 00        nop
934b: 11        tcall 1
934c: 01        tcall 0
934d: 8a 1a c2  eor1  c,$1843,2
9350: 44 1e     eor   a,$1e
9352: ff        stop
9353: ff        stop
9354: c2 5e     set6  $5e
9356: 9a 02     subw  ya,$02
9358: 21        tcall 2
9359: dd        mov   a,y
935a: f1        tcall 15
935b: 13 41 de  bbc0  $41,$933b
935e: ff        stop
935f: 9a df     subw  ya,$df
9361: 12 23     clr0  $23
9363: 0d        push  psw
9364: df        daa   a
9365: 25 0d fe  and   a,$fe0d
9368: 9a f0     subw  ya,$f0
936a: 10 f0     bpl   $935c
936c: 31        tcall 3
936d: 11        tcall 1
936e: ec f2 33  mov   y,$33f2
9371: 8a 3f ca  eor1  c,$1947,7
9374: bb 24     inc   $24+x
9376: 32 1d     clr1  $1d
9378: b0 04     bcs   $937e
937a: 8a 7f df  eor1  c,$1bef,7
937d: be        das   a
937e: 32 f0     clr1  $f0
9380: 02 32     set0  $32
9382: ed        notc
9383: 8a de 36  eor1  c,$06db,6
9386: 54 de     eor   a,$de+x
9388: ec db e5  mov   y,$e5db
938b: 22 8a     set1  $8a
938d: 60        clrc
938e: cd d4     mov   x,#$d4
9390: 60        clrc
9391: ee        pop   y
9392: bb 25     inc   $25+x
9394: ed        notc
9395: 9a 11     subw  ya,$11
9397: 11        tcall 1
9398: 00        nop
9399: de 44 10  cbne  $44+x,$93ab
939c: ff        stop
939d: dc        dec   y
939e: 9a e1     subw  ya,$e1
93a0: 32 11     clr1  $11
93a2: dc        dec   y
93a3: 01        tcall 0
93a4: 33 0f 0d  bbc1  $0f,$93b3
93a7: 9a f0     subw  ya,$f0
93a9: 1f f2 21  jmp   ($21f2+x)
93ac: 0e f0 f2  tset1 $f2f0
93af: 42 8a     set2  $8a
93b1: 0c e1 eb  asl   $ebe1
93b4: cf        mul   ya
93b5: 1f 56 0e  jmp   ($0e56+x)
93b8: ce        pop   x
93b9: 9a 23     subw  ya,$23
93bb: 1f de e2  jmp   ($e2de+x)
93be: 2d        push  a
93bf: f4 1e     mov   a,$1e+x
93c1: e0        clrv
93c2: 9a 21     subw  ya,$21
93c4: 03 3f f0  bbs0  $3f,$93b6
93c7: 0c ae 33  asl   $33ae
93ca: 22 9a     set1  $9a
93cc: 0d        push  psw
93cd: df        daa   a
93ce: 04 20     or    a,$20
93d0: 0f        brk
93d1: 0f        brk
93d2: f0 ef     beq   $93c3
93d4: 9a 43     subw  ya,$43
93d6: ee        pop   y
93d7: 01        tcall 0
93d8: 0f        brk
93d9: 23 2f f0  bbs1  $2f,$93cb
93dc: 1e 9a cf  cmp   x,$cf9a
93df: 1f 11 10  jmp   ($1011+x)
93e2: 1e 02 12  cmp   x,$1202
93e5: 0e 9a ee  tset1 $ee9a
93e8: f0 f2     beq   $93dc
93ea: 40        setp
93eb: bd        mov   sp,x
93ec: 24 31     and   a,$31
93ee: 00        nop
93ef: aa 00 01  mov1  c,$0020,0
93f2: ec e2 22  mov   y,$22e2
93f5: 1f ef f0  jmp   ($f0ef+x)
93f8: 9a 53     subw  ya,$53
93fa: 0d        push  psw
93fb: f2 1e     clr7  $1e
93fd: ff        stop
93fe: 02 2e     set0  $2e
9400: c0        di
9401: 8a 55 61  eor1  c,$0c2a,5
9404: d2 0e     clr6  $0e
9406: 33 99 f0  bbc1  $99,$93f8
9409: 03 9a 1f  bbs0  $9a,$942a
940c: 01        tcall 0
940d: ff        stop
940e: 23 00 1f  bbs1  $00,$942f
9411: cc f2 9a  mov   $9af2,y
9414: 41        tcall 4
9415: fc        inc   y
9416: e3 23 4e  bbs7  $23,$9466
9419: f1        tcall 15
941a: 00        nop
941b: 2b 9a     rol   $9a
941d: ad 03     cmp   y,#$03
941f: 64 ec     cmp   a,$ec
9421: ce        pop   x
9422: 04 50     or    a,$50
9424: d0 9a     bne   $93c0
9426: 20        clrp
9427: ed        notc
9428: 02 20     set0  $20
942a: cd 23     mov   x,#$23
942c: 34 fd     and   a,$fd+x
942e: 8a 2f d6  eor1  c,$1ac5,7
9431: 1b de     asl   $de+x
9433: f2 1f     clr7  $1f
9435: ee        pop   y
9436: 12 9a     clr0  $9a
9438: 10 20     bpl   $945a
943a: 13 0b ae  bbc0  $0b,$93ea
943d: 44 0e     eor   a,$0e
943f: cf        mul   ya
9440: 9a 33     subw  ya,$33
9442: 42 e0     set2  $e0
9444: 1e 11 cc  cmp   x,$cc11
9447: ef        sleep
9448: 24 9a     and   a,$9a
944a: 30 dc     bmi   $9428
944c: c1        tcall 12
944d: 44 1e     eor   a,$1e
944f: f3 1c c2  bbc7  $1c,$9413
9452: 9a 30     subw  ya,$30
9454: fc        inc   y
9455: e2 34     set7  $34
9457: 4f c1     pcall $c1
9459: 0e 11 8a  tset1 $8a11
945c: 2e c0 0c  cbne  $c0,$946a
945f: f3 fe 22  bbc7  $fe,$9483
9462: 33 df aa  bbc1  $df,$940e
9465: 22 eb     set1  $eb
9467: f3 2f ff  bbc7  $2f,$9468
946a: f1        tcall 15
946b: 22 1f     set1  $1f
946d: 9a f1     subw  ya,$f1
946f: 0e 0f ee  tset1 $ee0f
9472: 00        nop
9473: 22 1e     set1  $1e
9475: ad 9a     cmp   y,#$9a
9477: 24 41     and   a,$41
9479: d0 31     bne   $94ac
947b: bd        mov   sp,x
947c: 22 0f     set1  $0f
947e: ed        notc
947f: 9a 14     subw  ya,$14
9481: 43 0c f1  bbs2  $0c,$9474
9484: ef        sleep
9485: 32 0f     clr1  $0f
9487: fe 9a     dbnz  y,$9423
9489: f0 1f     beq   $94aa
948b: d1        tcall 13
948c: 32 1e     clr1  $1e
948e: f5 4c ad  mov   a,$ad4c+x
9491: 9a 13     subw  ya,$13
9493: 10 ed     bpl   $9482
9495: 14 33     or    a,$33+x
9497: ff        stop
9498: f0 e0     beq   $947a
949a: 9a 2f     subw  ya,$2f
949c: ef        sleep
949d: f0 31     beq   $94d0
949f: eb c2     mov   y,$c2
94a1: 53 0d 9a  bbc2  $0d,$943d
94a4: 15 fc e0  or    a,$e0fc+x
94a7: 11        tcall 1
94a8: ff        stop
94a9: e1        tcall 14
94aa: 32 21     clr1  $21
94ac: 9a fd     subw  ya,$fd
94ae: ff        stop
94af: 03 21 1d  bbs0  $21,$94ce
94b2: c0        di
94b3: 2f ee     bra   $94a3
94b5: 9a 12     subw  ya,$12
94b7: 21        tcall 2
94b8: 00        nop
94b9: 41        tcall 4
94ba: cc e0 22  mov   $22e0,y
94bd: 1f 8a bf  jmp   ($bf8a+x)
94c0: 45 53 da  eor   a,$da53
94c3: e2 22     set7  $22
94c5: 0c ce 9a  asl   $9ace
94c8: 13 0c be  bbc0  $0c,$9488
94cb: 24 40     and   a,$40
94cd: e2 1f     set7  $1f
94cf: ef        sleep
94d0: 8a c4 3e  eor1  c,$07d8,4
94d3: df        daa   a
94d4: 24 41     and   a,$41
94d6: 00        nop
94d7: ba 16     movw  ya,$16
94d9: 9a 22     subw  ya,$22
94db: 1f fc e3  jmp   ($e3fc+x)
94de: 0c e3 21  asl   $21e3
94e1: 2e 8a 26  cbne  $8a,$9509
94e4: 0c ab 16  asl   $16ab
94e7: 20        clrp
94e8: ec 04 32  mov   y,$3204
94eb: 9a 10     subw  ya,$10
94ed: df        daa   a
94ee: 21        tcall 2
94ef: 01        tcall 0
94f0: ef        sleep
94f1: 00        nop
94f2: 10 ba     bpl   $94ae
94f4: 9a 04     subw  ya,$04
94f6: 34 1d     and   a,$1d+x
94f8: 02 0d     set0  $0d
94fa: c1        tcall 12
94fb: 51        tcall 5
94fc: ee        pop   y
94fd: 8a e1 66  eor1  c,$0cdc,1
9500: de 1b a4  cbne  $1b+x,$94a6
9503: 73 40 e0  bbc3  $40,$94e5
9506: 9a ee     subw  ya,$ee
9508: 0f        brk
9509: ce        pop   x
950a: 53 01 0f  bbc2  $01,$951b
950d: 21        tcall 2
950e: ed        notc
950f: 9a e2     subw  ya,$e2
9511: 41        tcall 4
9512: df        daa   a
9513: f0 21     beq   $9536
9515: f2 0e     clr7  $0e
9517: 02 9a     set0  $9a
9519: 00        nop
951a: 00        nop
951b: 0f        brk
951c: 01        tcall 0
951d: eb a1     mov   y,$a1
951f: 53 23 9a  bbc2  $23,$94bb
9522: ec 22 dc  mov   y,$dc22
9525: 24 3e     and   a,$3e
9527: ce        pop   x
9528: 04 4f     or    a,$4f
952a: 8a ed ae  eor1  c,$15dd,5
952d: 54 35     eor   a,$35+x
952f: 0d        push  psw
9530: 1f cd bb  jmp   ($bbcd+x)
9533: 9a 03     subw  ya,$03
9535: 30 20     bmi   $9557
9537: e0        clrv
9538: 2f cf     bra   $9509
953a: 44 1d     eor   a,$1d
953c: 86        adc   a,(x)
953d: 1d        dec   x
953e: cf        mul   ya
953f: 21        tcall 2
9540: 1f e2 53  jmp   ($53e2+x)
9543: 1f cc 9a  jmp   ($9acc+x)
9546: 20        clrp
9547: ee        pop   y
9548: db 04     mov   $04+x,y
954a: 23 4e b1  bbs1  $4e,$94fd
954d: 3d        inc   x
954e: 9a c3     subw  ya,$c3
9550: 52 eb     clr2  $eb
9552: e1        tcall 14
9553: 24 0f     and   a,$0f
9555: ee        pop   y
9556: 02 9a     set0  $9a
9558: 12 20     clr0  $20
955a: e1        tcall 14
955b: 1e de ef  cmp   x,$efde
955e: 34 10     and   a,$10+x
9560: 9a ff     subw  ya,$ff
9562: 11        tcall 1
9563: ed        notc
9564: 04 31     or    a,$31
9566: ed        notc
9567: e0        clrv
9568: 21        tcall 2
9569: 9a f1     subw  ya,$f1
956b: f0 32     beq   $959f
956d: fe ff     dbnz  y,$956e
956f: 12 0f     clr0  $0f
9571: eb 9a     mov   y,$9a
9573: c1        tcall 12
9574: 32 33     clr1  $33
9576: fc        inc   y
9577: f1        tcall 15
9578: fe 34     dbnz  y,$95ae
957a: 1f 8a aa  jmp   ($aa8a+x)
957d: e5 61 0d  mov   a,$0d61
9580: a3 51 f2  bbs5  $51,$9574
9583: 20        clrp
9584: 9a 10     subw  ya,$10
9586: ed        notc
9587: ee        pop   y
9588: 13 30 0f  bbc0  $30,$9599
958b: f1        tcall 15
958c: 0e 9a e1  tset1 $e19a
958f: 43 0f ec  bbs2  $0f,$957d
9592: f2 2f     clr7  $2f
9594: 0f        brk
9595: 24 9a     and   a,$9a
9597: 2e de 00  cbne  $de,$9599
959a: 31        tcall 3
959b: ee        pop   y
959c: cd 03     mov   x,#$03
959e: 30 9a     bmi   $953a
95a0: 11        tcall 1
95a1: fe ff     dbnz  y,$95a2
95a3: 13 30 fe  bbc0  $30,$95a3
95a6: ed        notc
95a7: 13 8a 33  bbc0  $8a,$95dc
95aa: dc        dec   y
95ab: 43 fc 14  bbs2  $fc,$95c1
95ae: f3 3d 9c  bbc7  $3d,$954c
95b1: 9a ff     subw  ya,$ff
95b3: 45 fd f0  eor   a,$f0fd
95b6: 11        tcall 1
95b7: ee        pop   y
95b8: 13 30 9a  bbc0  $30,$9554
95bb: 0f        brk
95bc: cd 12     mov   x,#$12
95be: 10 f2     bpl   $95b2
95c0: 41        tcall 4
95c1: ee        pop   y
95c2: ef        sleep
95c3: 9a 04     subw  ya,$04
95c5: 1d        dec   x
95c6: df        daa   a
95c7: df        daa   a
95c8: 43 e0 10  bbs2  $e0,$95da
95cb: ff        stop
95cc: 9a e1     subw  ya,$e1
95ce: 43 ff 0e  bbs2  $ff,$95de
95d1: de 23 20  cbne  $23+x,$95f3
95d4: f2 96     clr7  $96
95d6: 2f ec     bra   $95c4
95d8: df        daa   a
95d9: 01        tcall 0
95da: fc        inc   y
95db: cd be     mov   x,#$be
95dd: 43 9a b0  bbs2  $9a,$958f
95e0: 00        nop
95e1: 2f e1     bra   $95c4
95e3: 30 12     bmi   $95f7
95e5: fd        mov   y,a
95e6: de 9a 22  cbne  $9a+x,$960a
95e9: 00        nop
95ea: 24 0e     and   a,$0e
95ec: df        daa   a
95ed: 10 10     bpl   $95ff
95ef: ee        pop   y
95f0: 9a 0f     subw  ya,$0f
95f2: e4 3b     mov   a,$3b
95f4: e3 10 0d  bbs7  $10,$9603
95f7: f4 30     mov   a,$30+x
95f9: 8a 0f d9  eor1  c,$1b21,7
95fc: b3 63 31  bbc5  $63,$962f
95ff: 22 a9     set1  $a9
9601: d2 96     clr6  $96
9603: e0        clrv
9604: 0f        brk
9605: dd        mov   a,y
9606: fe f5     dbnz  y,$95fd
9608: 3c        rol   a
9609: df        daa   a
960a: f1        tcall 15
960b: 9a 0d     subw  ya,$0d
960d: 04 00     or    a,$00
960f: 22 cb     set1  $cb
9611: f2 11     clr7  $11
9613: 01        tcall 0
9614: 9a 52     subw  ya,$52
9616: cc f2 1f  mov   $1ff2,y
9619: f0 00     beq   $961b
961b: df        daa   a
961c: 32 9a     clr1  $9a
961e: ce        pop   x
961f: 22 1f     set1  $1f
9621: df        daa   a
9622: 43 f0 1f  bbs2  $f0,$9643
9625: dd        mov   a,y
9626: 9a 03     subw  ya,$03
9628: 31        tcall 3
9629: 02 1d     set0  $1d
962b: ae        pop   a
962c: 43 00 ff  bbs2  $00,$962d
962f: 96 f1 02  adc   a,$02f1+y
9632: 53 db e0  bbc2  $db,$9614
9635: 0f        brk
9636: f0 32     beq   $966a
9638: 9a f2     subw  ya,$f2
963a: 3e bd     cmp   x,$bd
963c: 23 00 23  bbs1  $00,$9661
963f: 1c        asl   a
9640: b2 9a     clr5  $9a
9642: 4f df     pcall $df
9644: 02 1d     set0  $1d
9646: f3 0c e1  bbc7  $0c,$9629
9649: 31        tcall 3
964a: 9a ed     subw  ya,$ed
964c: 14 2e     or    a,$2e+x
964e: 12 fc     clr0  $fc
9650: d2 40     clr6  $40
9652: f1        tcall 15
9653: 9a 32     subw  ya,$32
9655: d9 f4     mov   $f4+y,x
9657: 2f f0     bra   $9649
9659: 03 3f 13  bbs0  $3f,$966e
965c: 96 3c ae  adc   a,$ae3c+y
965f: 1f de 13  jmp   ($13de+x)
9662: 10 24     bpl   $9688
9664: 4f 9a     pcall $9a
9666: d2 3f     clr6  $3f
9668: f2 40     clr7  $40
966a: ce        pop   x
966b: 12 0d     clr0  $0d
966d: e0        clrv
966e: 9a 32     subw  ya,$32
9670: ed        notc
9671: 32 ab     clr1  $ab
9673: 44 ed     eor   a,$ed
9675: 03 40 9a  bbs0  $40,$9611
9678: df        daa   a
9679: 31        tcall 3
967a: dc        dec   y
967b: 34 0e     and   a,$0e+x
967d: 02 2d     set0  $2d
967f: cf        mul   ya
9680: 9a 32     subw  ya,$32
9682: fd        mov   y,a
9683: e3 52 02  bbs7  $52,$9687
9686: 1d        dec   x
9687: 9e        div   ya,x
9688: 42 9a     set2  $9a
968a: de 25 2d  cbne  $25+x,$96b9
968d: d2 1f     clr6  $1f
968f: e0        clrv
9690: 10 f0     bpl   $9682
9692: 9a 24     subw  ya,$24
9694: 0b f2     asl   $f2
9696: 2f de     bra   $9676
9698: 03 2f f0  bbs0  $2f,$968a
969b: 9a 1c     subw  ya,$1c
969d: b2 4e     clr5  $4e
969f: d1        tcall 13
96a0: 54 fc     eor   a,$fc+x
96a2: e2 2f     set7  $2f
96a4: 9a e2     subw  ya,$e2
96a6: 20        clrp
96a7: ff        stop
96a8: 13 dd 02  bbc0  $dd,$96ac
96ab: 1e cf aa  cmp   x,$aacf
96ae: 23 10 11  bbs1  $10,$96c1
96b1: ec 02 fe  mov   y,$fe02
96b4: 03 20 9a  bbs0  $20,$9650
96b7: de 12 ee  cbne  $12+x,$96a7
96ba: 11        tcall 1
96bb: f0 01     beq   $96be
96bd: 40        setp
96be: ce        pop   x
96bf: 9a 22     subw  ya,$22
96c1: ed        notc
96c2: f2 31     clr7  $31
96c4: fe 10     dbnz  y,$96d6
96c6: bd        mov   sp,x
96c7: 31        tcall 3
96c8: 9a df     subw  ya,$df
96ca: 35 3d b0  and   a,$b03d+x
96cd: 31        tcall 3
96ce: e0        clrv
96cf: 21        tcall 2
96d0: 0f        brk
96d1: 9a f1     subw  ya,$f1
96d3: 2e e0 2f  cbne  $e0,$9704
96d6: ed        notc
96d7: f4 52     mov   a,$52+x
96d9: 12 9a     clr0  $9a
96db: 1c        asl   a
96dc: a0        ei
96dd: 2f e2     bra   $96c1
96df: 33 ec f4  bbc1  $ec,$96d5
96e2: 2e 9a e0  cbne  $9a,$96c4
96e5: 00        nop
96e6: f0 33     beq   $971b
96e8: 0d        push  psw
96e9: f1        tcall 15
96ea: 0e ef 8a  tset1 $8aef
96ed: 46        eor   a,(x)
96ee: 4f be     pcall $be
96f0: da d5     movw  $d5,ya
96f2: 1b 16     asl   $16+x
96f4: 62 9a     set3  $9a
96f6: dc        dec   y
96f7: 14 0f     or    a,$0f+x
96f9: 00        nop
96fa: 11        tcall 1
96fb: ff        stop
96fc: 10 00     bpl   $96fe
96fe: 9a 11     subw  ya,$11
9700: ec d0 44  mov   y,$44d0
9703: 42 0e     set2  $0e
9705: ee        pop   y
9706: 00        nop
9707: 96 dc 04  adc   a,$04dc+y
970a: 4f bc     pcall $bc
970c: 14 41     or    a,$41+x
970e: cb dd     mov   $dd,y
9710: 9a 04     subw  ya,$04
9712: 4f df     pcall $df
9714: 1f dd 04  jmp   ($04dd+x)
9717: 41        tcall 4
9718: fe 8a     dbnz  y,$96a4
971a: ba e1     movw  ya,$e1
971c: 0f        brk
971d: e2 74     set7  $74
971f: fa c3 30  mov   ($30),($c3)
9722: 9a 20     subw  ya,$20
9724: d1        tcall 13
9725: 2f 10     bra   $9737
9727: f0 01     beq   $972a
9729: 1e cd 9a  cmp   x,$9acd
972c: 22 25     set1  $25
972e: 4f cf     pcall $cf
9730: 10 ee     bpl   $9720
9732: 03 40 9a  bbs0  $40,$96ce
9735: bb 25     inc   $25+x
9737: 21        tcall 2
9738: 0a d2 10  or1   c,$021a,2
973b: 23 2e 9a  bbs1  $2e,$96d7
973e: e0        clrv
973f: fd        mov   y,a
9740: d1        tcall 13
9741: 43 10 ed  bbs2  $10,$9730
9744: e0        clrv
9745: ff        stop
9746: 9a ff     subw  ya,$ff
9748: 23 4e cf  bbs1  $4e,$9719
974b: 10 22     bpl   $976f
974d: 0e 11 9a  tset1 $9a11
9750: f0 2f     beq   $9781
9752: e0        clrv
9753: 11        tcall 1
9754: fd        mov   y,a
9755: c1        tcall 12
9756: 32 43     clr1  $43
9758: aa ff 10  mov1  c,$021f,7
975b: 0f        brk
975c: ff        stop
975d: 13 1c d2  bbc0  $1c,$9731
9760: 21        tcall 2
9761: 9a 10     subw  ya,$10
9763: dc        dec   y
9764: 11        tcall 1
9765: f2 41     clr7  $41
9767: ff        stop
9768: fe de     dbnz  y,$9748
976a: 9a 22     subw  ya,$22
976c: 22 1f     set1  $1f
976e: cd 20     mov   x,#$20
9770: de f1 45  cbne  $f1+x,$97b7
9773: 9a eb     subw  ya,$eb
9775: 02 f0     set0  $f0
9777: 02 12     set0  $12
9779: 0e 02 fe  tset1 $fe02
977c: 9a 0f     subw  ya,$0f
977e: 11        tcall 1
977f: ee        pop   y
9780: e0        clrv
9781: 35 3f e1  and   a,$e13f+x
9784: 3f 96 10  call  $1096
9787: ee        pop   y
9788: 46        eor   a,(x)
9789: fa bd 03  mov   ($03),($bd)
978c: 2f dd     bra   $976b
978e: 9a 0f     subw  ya,$0f
9790: 24 1f     and   a,$1f
9792: 0f        brk
9793: ec f1 11  mov   y,$11f1
9796: 42 9a     set2  $9a
9798: de 01 fa  cbne  $01+x,$9794
979b: d2 13     clr6  $13
979d: 4e c2 0e  tclr1 $0ec2
97a0: 8a 13 24  eor1  c,$0482,3
97a3: 20        clrp
97a4: ff        stop
97a5: 2f e0     bra   $9787
97a7: ed        notc
97a8: 0e 9a 0e  tset1 $0e9a
97ab: f3 51 00  bbc7  $51,$97ad
97ae: 13 fb 01  bbc0  $fb,$97b1
97b1: 03 96 4e  bbs0  $96,$9801
97b4: bc        inc   a
97b5: bc        inc   a
97b6: 23 1f dc  bbs1  $1f,$9794
97b9: e0        clrv
97ba: 12 9a     clr0  $9a
97bc: 10 fe     bpl   $97bc
97be: cf        mul   ya
97bf: 11        tcall 1
97c0: 14 1e     or    a,$1e+x
97c2: f0 1f     beq   $97e3
97c4: 9a ac     subw  ya,$ac
97c6: 21        tcall 2
97c7: 23 fd 20  bbs1  $fd,$97e9
97ca: e0        clrv
97cb: 10 34     bpl   $9801
97cd: 8a ec 12  eor1  c,$025d,4
97d0: d0 2b     bne   $97fd
97d2: be        das   a
97d3: e2 2d     set7  $2d
97d5: 17 9a     or    a,($9a)+y
97d7: 22 1f     set1  $1f
97d9: 10 e0     bpl   $97bb
97db: 10 1f     bpl   $97fc
97dd: cf        mul   ya
97de: 10 9a     bpl   $977a
97e0: f4 20     mov   a,$20+x
97e2: 1d        dec   x
97e3: b2 40     clr5  $40
97e5: 02 fe     set0  $fe
97e7: fe 9a     dbnz  y,$9783
97e9: e1        tcall 14
97ea: 10 21     bpl   $980d
97ec: 10 00     bpl   $97ee
97ee: ec d0 11  mov   y,$11d0
97f1: 9a 1f     subw  ya,$1f
97f3: f2 00     clr7  $00
97f5: 1f e4 3f  jmp   ($3fe4+x)
97f8: 02 1e     set0  $1e
97fa: 9a f0     subw  ya,$f0
97fc: fd        mov   y,a
97fd: ee        pop   y
97fe: 15 fd 14  or    a,$14fd+x
9801: 32 f0     clr1  $f0
9803: 8a fe 31  eor1  c,$063f,6
9806: e2 a9     set7  $a9
9808: 32 d0     clr1  $d0
980a: 44 50     eor   a,$50
980c: 9a bd     subw  ya,$bd
980e: 24 1f     and   a,$1f
9810: 00        nop
9811: ef        sleep
9812: fe 13     dbnz  y,$9827
9814: ef        sleep
9815: 8a 64 00  eor1  c,$000c,4
9818: ed        notc
9819: bb e0     inc   $e0+x
981b: 3f b3 5f  call  $5fb3
981e: 9a 01     subw  ya,$01
9820: e0        clrv
9821: 41        tcall 4
9822: e2 31     set7  $31
9824: fe ef     dbnz  y,$9815
9826: ee        pop   y
9827: 9a d1     subw  ya,$d1
9829: 61        tcall 6
982a: b0 43     bcs   $986f
982c: 10 10     bpl   $983e
982e: 00        nop
982f: 00        nop
9830: 96 3f ef  adc   a,$ef3f+y
9833: db dd     mov   $dd+x,y
9835: d2 5f     clr6  $5f
9837: be        das   a
9838: 13 8a da  bbc0  $8a,$9814
983b: 22 ad     set1  $ad
983d: 13 3c c6  bbc0  $3c,$9805
9840: 51        tcall 5
9841: ef        sleep
9842: 9a 0e     subw  ya,$0e
9844: ed        notc
9845: f1        tcall 15
9846: e0        clrv
9847: 31        tcall 3
9848: f1        tcall 15
9849: 0d        push  psw
984a: 36 aa ee  and   a,$eeaa+y
984d: 24 0f     and   a,$0f
984f: df        daa   a
9850: 1f ff 12  jmp   ($12ff+x)
9853: 0e 9a f3  tset1 $f39a
9856: 32 02     clr1  $02
9858: 00        nop
9859: 0f        brk
985a: 0f        brk
985b: f2 fc     clr7  $fc
985d: 96 bd bd  adc   a,$bdbd+y
9860: 44 ca     eor   a,$ca
9862: 04 41     or    a,$41
9864: ee        pop   y
9865: ed        notc
9866: 9a f1     subw  ya,$f1
9868: 40        setp
9869: cd 25     mov   x,#$25
986b: 2f ff     bra   $986c
986d: fd        mov   y,a
986e: c0        di
986f: aa 00 11  mov1  c,$0220,0
9872: e1        tcall 14
9873: 1f f3 1e  jmp   ($1ef3+x)
9876: e3 40 9a  bbs7  $40,$9812
9879: bd        mov   sp,x
987a: ff        stop
987b: ef        sleep
987c: 03 1d f0  bbs0  $1d,$986e
987f: 15 1f 9a  or    a,$9a1f+x
9882: 23 fc 03  bbs1  $fc,$9887
9885: f0 2c     beq   $98b3
9887: c2 0e     set6  $0e
9889: 37 96     and   a,($96)+y
988b: 4c a1 51  lsr   $51a1
988e: fd        mov   y,a
988f: dd        mov   a,y
9890: cd 25     mov   x,#$25
9892: 2d        push  a
9893: 9a e1     subw  ya,$e1
9895: 45 fe 00  eor   a,$00fe
9898: ab 32     inc   $32
989a: e3 0b aa  bbs7  $0b,$9846
989d: 12 ef     clr0  $ef
989f: 33 ed 16  bbc1  $ed,$98b7
98a2: 0d        push  psw
98a3: e0        clrv
98a4: ff        stop
98a5: 9a 04     subw  ya,$04
98a7: 4d        push  x
98a8: af        mov   (x)+,a
98a9: 12 53     clr0  $53
98ab: e0        clrv
98ac: 3f b2 9a  call  $9ab2
98af: 5f f2 bc  jmp   $bcf2
98b2: 2f e6     bra   $989a
98b4: 6e 9e 74  dbnz  $9e,$992a
98b7: 9a bc     subw  ya,$bc
98b9: 10 f0     bpl   $98ab
98bb: 24 0b     and   a,$0b
98bd: c1        tcall 12
98be: 13 40 a6  bbc0  $40,$9866
98c1: 21        tcall 2
98c2: 0e df fe  tset1 $fedf
98c5: 00        nop
98c6: de fe 04  cbne  $fe+x,$98cc
98c9: aa 0e e2  mov1  c,$1c41,6
98cc: 30 e0     bmi   $98ae
98ce: 0e e1 32  tset1 $32e1
98d1: ec 9a d2  mov   y,$d29a
98d4: 54 2f     eor   a,$2f+x
98d6: f1        tcall 15
98d7: 0c 36 ff  asl   $ff36
98da: 0b 9a     asl   $9a
98dc: f1        tcall 15
98dd: cf        mul   ya
98de: 75 dc 13  cmp   a,$13dc+x
98e1: 0c f1 0f  asl   $0ff1
98e4: 9a 13     subw  ya,$13
98e6: 2f be     bra   $98a6
98e8: 01        tcall 0
98e9: 15 2e ed  or    a,$ed2e+x
98ec: af        mov   (x)+,a
98ed: aa 31 f0  mov1  c,$1e06,1
98f0: 0e 00 f2  tset1 $f200
98f3: 40        setp
98f4: d0 11     bne   $9907
98f6: 9a 0f     subw  ya,$0f
98f8: f0 fe     beq   $98f8
98fa: 13 1e dd  bbc0  $1e,$98d9
98fd: e2 55     set7  $55
98ff: 9a 1e     subw  ya,$1e
9901: ce        pop   x
9902: 23 50 e0  bbs1  $50,$98e4
9905: ee        pop   y
9906: fd        mov   y,a
9907: 05 8a 6d  or    a,$6d8a
990a: f3 dc ee  bbc7  $dc,$98fa
990d: 33 e1 42  bbc1  $e1,$9951
9910: cb 96     mov   $96,y
9912: ee        pop   y
9913: d0 56     bne   $996b
9915: 61        tcall 6
9916: a9 cf 10  sbc   ($10),($cf)
9919: 00        nop
991a: 9a fe     subw  ya,$fe
991c: e1        tcall 14
991d: 33 01 2e  bbc1  $01,$994d
9920: bf        mov   a,(x)+
9921: 14 4f     or    a,$4f+x
9923: 9a ed     subw  ya,$ed
9925: ff        stop
9926: 01        tcall 0
9927: 1e 04 3f  cmp   x,$3f04
992a: cc 25 a6  mov   $a625,y
992d: 21        tcall 2
992e: 23 44 2f  bbs1  $44,$995f
9931: ef        sleep
9932: ff        stop
9933: 02 2e     set0  $2e
9935: 9a a1     subw  ya,$a1
9937: 74 ff     cmp   a,$ff+x
9939: 1d        dec   x
993a: be        das   a
993b: 34 00     and   a,$00+x
993d: 31        tcall 3
993e: 96 61 a9  adc   a,$a961+y
9941: f0 dd     beq   $9920
9943: 03 40 bd  bbs0  $40,$9902
9946: 23 aa f1  bbs1  $aa,$9939
9949: 31        tcall 3
994a: bb 04     inc   $04+x
994c: 51        tcall 5
994d: ef        sleep
994e: fd        mov   y,a
994f: e2 aa     set7  $aa
9951: 22 01     set1  $01
9953: f0 fd     beq   $9952
9955: f3 2f f1  bbc7  $2f,$9948
9958: 22 aa     set1  $aa
995a: 0d        push  psw
995b: e1        tcall 14
995c: 0f        brk
995d: 13 3e ac  bbc0  $3e,$990b
9960: 35 3f 9a  and   a,$9a3f+x
9963: dd        mov   a,y
9964: cd 03     mov   x,#$03
9966: 31        tcall 3
9967: 42 de     set2  $de
9969: cb 44     mov   $44,y
996b: aa ee 12  mov1  c,$025d,6
996e: 10 ef     bpl   $995f
9970: 11        tcall 1
9971: 00        nop
9972: 12 0c     clr0  $0c
9974: aa cf 54  mov1  c,$0a99,7
9977: 2e ed e0  cbne  $ed,$9959
997a: 22 11     set1  $11
997c: 0f        brk
997d: 9a f0     subw  ya,$f0
997f: c0        di
9980: 30 ef     bmi   $9971
9982: 23 42 bf  bbs1  $42,$9943
9985: 1d        dec   x
9986: aa 02 20  mov1  c,$0400,2
9989: ec e2 43  mov   y,$43e2
998c: 0e ee e0  tset1 $e0ee
998f: 9a 44     subw  ya,$44
9991: 42 0d     set2  $0d
9993: de f3 0a  cbne  $f3+x,$999f
9996: e2 25     set7  $25
9998: 9a 1a     subw  ya,$1a
999a: 04 fe     or    a,$fe
999c: 24 3c     and   a,$3c
999e: 9b 07     dec   $07+x
99a0: 63 9a eb  bbs3  $9a,$998d
99a3: cd f4     mov   x,#$f4
99a5: 41        tcall 4
99a6: 31        tcall 3
99a7: cd 21     mov   x,#$21
99a9: 2e aa cf  cbne  $aa,$997a
99ac: 22 22     set1  $22
99ae: e0        clrv
99af: 1f d1 32  jmp   ($32d1+x)
99b2: ed        notc
99b3: 9a df     subw  ya,$df
99b5: 25 51 eb  and   a,$eb51
99b8: ad 33     cmp   y,#$33
99ba: 24 4e     and   a,$4e
99bc: 9a cf     subw  ya,$cf
99be: 20        clrp
99bf: fb b0     mov   y,$b0+x
99c1: 22 60     set1  $60
99c3: e3 fb 9a  bbs7  $fb,$995f
99c6: f5 5e dd  mov   a,$dd5e+x
99c9: cf        mul   ya
99ca: 35 4f cb  and   a,$cb4f+x
99cd: d1        tcall 13
99ce: aa 21 11  mov1  c,$0224,1
99d1: 0f        brk
99d2: f1        tcall 15
99d3: 11        tcall 1
99d4: db 03     mov   $03+x,y
99d6: 12 9a     clr0  $9a
99d8: 40        setp
99d9: 00        nop
99da: cd 44     mov   x,#$44
99dc: ee        pop   y
99dd: ee        pop   y
99de: ff        stop
99df: 56 9a 1c  eor   a,$1c9a+y
99e2: cc c2 52  mov   $52c2,y
99e5: 22 1e     set1  $1e
99e7: f2 1b     clr7  $1b
99e9: aa cf 11  mov1  c,$0239,7
99ec: 11        tcall 1
99ed: 12 0e     clr0  $0e
99ef: e1        tcall 14
99f0: 20        clrp
99f1: f0 9a     beq   $998d
99f3: 0d        push  psw
99f4: c3 42 fc  bbs6  $42,$99f2
99f7: ee        pop   y
99f8: f4 51     mov   a,$51+x
99fa: f0 aa     beq   $99a6
99fc: 0f        brk
99fd: 12 fc     clr0  $fc
99ff: d0 13     bne   $9a14
9a01: 21        tcall 2
9a02: 11        tcall 1
9a03: ee        pop   y
9a04: 9a f6     subw  ya,$f6
9a06: 0b 03     asl   $03
9a08: ec 05 30  mov   y,$3005
9a0b: de ed aa  cbne  $ed+x,$99b7
9a0e: 01        tcall 0
9a0f: 21        tcall 2
9a10: 10 00     bpl   $9a12
9a12: 10 cd     bpl   $99e1
9a14: 0f        brk
9a15: 13 9a 11  bbc0  $9a,$9a28
9a18: 42 ad     set2  $ad
9a1a: 60        clrc
9a1b: af        mov   (x)+,a
9a1c: 25 fb f2  and   a,$f2fb
9a1f: 9a 1f     subw  ya,$1f
9a21: df        daa   a
9a22: 10 14     bpl   $9a38
9a24: 2f 1e     bra   $9a44
9a26: e3 4c aa  bbs7  $4c,$99d2
9a29: de e1 42  cbne  $e1+x,$9a6d
9a2c: 02 1e     set0  $1e
9a2e: d2 2e     clr6  $2e
9a30: e0        clrv
9a31: 9a 41     subw  ya,$41
9a33: df        daa   a
9a34: 23 ec f3  bbs1  $ec,$9a29
9a37: ed        notc
9a38: 33 12 aa  bbc1  $12,$99e4
9a3b: 1f 02 fc  jmp   ($fc02+x)
9a3e: ef        sleep
9a3f: 02 10     set0  $10
9a41: 23 0e aa  bbs1  $0e,$99ed
9a44: f1        tcall 15
9a45: ed        notc
9a46: 03 30 ee  bbs0  $30,$9a36
9a49: 1f f0 10  jmp   ($10f0+x)
9a4c: 9a f1     subw  ya,$f1
9a4e: 40        setp
9a4f: 01        tcall 0
9a50: ee        pop   y
9a51: 52 cc     clr2  $cc
9a53: cc 24 9a  mov   $9a24,y
9a56: 24 72     and   a,$72
9a58: bb 10     inc   $10+x
9a5a: cf        mul   ya
9a5b: 44 0d     eor   a,$0d
9a5d: e1        tcall 14
9a5e: 9a 2d     subw  ya,$2d
9a60: d0 30     bne   $9a92
9a62: f1        tcall 15
9a63: 10 21     bpl   $9a86
9a65: e4 4b     mov   a,$4b
9a67: aa df ef  mov1  c,$1dfb,7
9a6a: 12 22     clr0  $22
9a6c: 1f 01 fb  jmp   ($fb01+x)
9a6f: e2 9a     set7  $9a
9a71: 73 1f ec  bbc3  $1f,$9a5f
9a74: bf        mov   a,(x)+
9a75: 22 30     set1  $30
9a77: 02 00     set0  $00
9a79: 9a 0d     subw  ya,$0d
9a7b: 14 0e     or    a,$0e+x
9a7d: ea c2 34  not1  $0698,2
9a80: 54 fe     eor   a,$fe+x
9a82: 9a 0d     subw  ya,$0d
9a84: c0        di
9a85: 03 30 0e  bbs0  $30,$9a95
9a88: e0        clrv
9a89: df        daa   a
9a8a: 15 9a 2c  or    a,$2c9a+x
9a8d: e0        clrv
9a8e: 22 10     set1  $10
9a90: 42 cd     set2  $cd
9a92: ca f3 9a  mov1  $135e,3,c
9a95: 55 3e f2  eor   a,$f23e+x
9a98: 0d        push  psw
9a99: bd        mov   sp,x
9a9a: 03 64 ed  bbs0  $64,$9a89
9a9d: 9a ea     subw  ya,$ea
9a9f: e2 44     set7  $44
9aa1: fd        mov   y,a
9aa2: 01        tcall 0
9aa3: 2f 02     bra   $9aa7
9aa5: 2e 9a ee  cbne  $9a,$9a95
9aa8: cd 35     mov   x,#$35
9aaa: 3f f1 20  call  $20f1
9aad: ef        sleep
9aae: 0d        push  psw
9aaf: 9a f5     subw  ya,$f5
9ab1: 50 cb     bvc   $9a7e
9ab3: d0 33     bne   $9ae8
9ab5: 20        clrp
9ab6: fd        mov   y,a
9ab7: f1        tcall 15
9ab8: 9a 22     subw  ya,$22
9aba: 11        tcall 1
9abb: 1d        dec   x
9abc: de e2 61  cbne  $e2+x,$9b1f
9abf: f0 df     beq   $9aa0
9ac1: 9a 40     subw  ya,$40
9ac3: 0f        brk
9ac4: dc        dec   y
9ac5: 17 3d     or    a,($3d)+y
9ac7: cf        mul   ya
9ac8: 00        nop
9ac9: 22 9a     set1  $9a
9acb: ee        pop   y
9acc: e1        tcall 14
9acd: 23 10 00  bbs1  $10,$9acf
9ad0: dc        dec   y
9ad1: f0 25     beq   $9af8
9ad3: 9a 1d     subw  ya,$1d
9ad5: e0        clrv
9ad6: 10 10     bpl   $9ae8
9ad8: 10 df     bpl   $9ab9
9ada: 63 db 9a  bbs3  $db,$9a76
9add: cf        mul   ya
9ade: 13 51 fe  bbc0  $51,$9ade
9ae1: e0        clrv
9ae2: 20        clrp
9ae3: f1        tcall 15
9ae4: 00        nop
9ae5: 9a ff     subw  ya,$ff
9ae7: 11        tcall 1
9ae8: 43 ec 0e  bbs2  $ec,$9af8
9aeb: e3 31 fd  bbs7  $31,$9aea
9aee: 8a 06 fa  eor1  c,$1f40,6
9af1: a2 40     set5  $40
9af3: 46        eor   a,(x)
9af4: da fd     movw  $fd,ya
9af6: 05 8a 11  or    a,$118a
9af9: 31        tcall 3
9afa: db c0     mov   $c0+x,y
9afc: 05 5d b1  or    a,$b15d
9aff: 0e 9a 22  tset1 $229a
9b02: 0e e1 50  tset1 $50e1
9b05: dd        mov   a,y
9b06: f0 e0     beq   $9ae8
9b08: 33 8a 3f  bbc1  $8a,$9b49
9b0b: de 3f af  cbne  $3f+x,$9abc
9b0e: 52 ee     clr2  $ee
9b10: 01        tcall 0
9b11: 57 9a     eor   a,($9a)+y
9b13: 1e ff de  cmp   x,$deff
9b16: 44 fc     eor   a,$fc
9b18: f3 3e bd  bbc7  $3e,$9ad7
9b1b: 9a 21     subw  ya,$21
9b1d: 13 3f ef  bbc0  $3f,$9b0e
9b20: e0        clrv
9b21: 2e 04 0e  cbne  $04,$9b31
9b24: 96 1e e0  adc   a,$e01e+y
9b27: 00        nop
9b28: 0e ee e1  tset1 $e1ee
9b2b: 32 ed     clr1  $ed
9b2d: 96 06 5d  adc   a,$5d06+y
9b30: ad ec     cmp   y,#$ec
9b32: ce        pop   x
9b33: 46        eor   a,(x)
9b34: 21        tcall 2
9b35: 24 9a     and   a,$9a
9b37: ce        pop   x
9b38: 22 e0     set1  $e0
9b3a: 00        nop
9b3b: 21        tcall 2
9b3c: 31        tcall 3
9b3d: e1        tcall 14
9b3e: 0c 9a e2  asl   $e29a
9b41: 3d        inc   x
9b42: d3 62 a9  bbc6  $62,$9aed
9b45: 02 f2     set0  $f2
9b47: 43 9a 1e  bbs2  $9a,$9b67
9b4a: df        daa   a
9b4b: 1e d4 3f  cmp   x,$3fd4
9b4e: f0 e0     beq   $9b30
9b50: 00        nop
9b51: aa 1f 01  mov1  c,$0023,7
9b54: 0e 12 fd  tset1 $fd12
9b57: 04 3e     or    a,$3e
9b59: bf        mov   a,(x)+
9b5a: 9a 3f     subw  ya,$3f
9b5c: 03 13 2c  bbs0  $13,$9b8a
9b5f: e2 1d     set7  $1d
9b61: f3 ee 9a  bbc7  $ee,$9afd
9b64: 11        tcall 1
9b65: 03 2f 02  bbs0  $2f,$9b69
9b68: 3f ad 40  call  $40ad
9b6b: b1        tcall 11
9b6c: 9a 74     subw  ya,$74
9b6e: fa a0 01  mov   ($01),($a0)
9b71: 33 42 cc  bbc1  $42,$9b3f
9b74: 11        tcall 1
9b75: 86        adc   a,(x)
9b76: ed        notc
9b77: 54 f0     eor   a,$f0+x
9b79: 1f 00 dc  jmp   ($dc00+x)
9b7c: e3 6f aa  bbs7  $6f,$9b28
9b7f: e1        tcall 14
9b80: 1f f2 31  jmp   ($31f2+x)
9b83: ec e0 12  mov   y,$12e0
9b86: 10 96     bpl   $9b1e
9b88: 55 ff 43  eor   a,$43ff+x
9b8b: f2 1e     clr7  $1e
9b8d: ee        pop   y
9b8e: f1        tcall 15
9b8f: 22 aa     set1  $aa
9b91: 01        tcall 0
9b92: 21        tcall 2
9b93: fd        mov   y,a
9b94: e1        tcall 14
9b95: 0e 24 2e  tset1 $2e24
9b98: ce        pop   x
9b99: a6        sbc   a,(x)
9b9a: cc d0 12  mov   $12d0,y
9b9d: 42 03     set2  $03
9b9f: 3f e1 10  call  $10e1
9ba2: 9a f0     subw  ya,$f0
9ba4: 21        tcall 2
9ba5: ee        pop   y
9ba6: 13 2e dc  bbc0  $2e,$9b84
9ba9: 12 e2     clr0  $e2
9bab: aa 42 ed  mov1  c,$1da8,2
9bae: df        daa   a
9baf: 01        tcall 0
9bb0: 30 01     bmi   $9bb3
9bb2: 0d        push  psw
9bb3: 12 9a     clr0  $9a
9bb5: de 4e ef  cbne  $4e+x,$9ba6
9bb8: 03 1f 11  bbs0  $1f,$9bcb
9bbb: 43 0c 9a  bbs2  $0c,$9b57
9bbe: af        mov   (x)+,a
9bbf: 10 05     bpl   $9bc6
9bc1: 6e ad ef  dbnz  $ad,$9bb2
9bc4: 22 01     set1  $01
9bc6: 9a 32     subw  ya,$32
9bc8: e1        tcall 14
9bc9: 4d        push  x
9bca: a0        ei
9bcb: 00        nop
9bcc: 01        tcall 0
9bcd: 12 0d     clr0  $0d
9bcf: 9a e2     subw  ya,$e2
9bd1: 40        setp
9bd2: ec c0 32  mov   y,$32c0
9bd5: 56 eb bd  eor   a,$bdeb+y
9bd8: 9a e1     subw  ya,$e1
9bda: 22 10     set1  $10
9bdc: 3f e3 ed  call  $ede3
9bdf: 10 02     bpl   $9be3
9be1: 9a cf     subw  ya,$cf
9be3: 43 ed 37  bbs2  $ed,$9c1c
9be6: 1d        dec   x
9be7: ec c3 32  mov   y,$32c3
9bea: 9a 31     subw  ya,$31
9bec: cb e0     mov   $e0,y
9bee: 02 2f     set0  $2f
9bf0: f4 30     mov   a,$30+x
9bf2: 2f 9a     bra   $9b8e
9bf4: ce        pop   x
9bf5: ef        sleep
9bf6: 4f e4     pcall $e4
9bf8: 3f ad 55  call  $55ad
9bfb: ed        notc
9bfc: 9a ec     subw  ya,$ec
9bfe: 03 45 4c  bbs0  $45,$9c4c
9c01: ae        pop   a
9c02: ed        notc
9c03: 14 f0     or    a,$f0+x
9c05: 9a 32     subw  ya,$32
9c07: f1        tcall 15
9c08: fc        inc   y
9c09: 0f        brk
9c0a: 04 0c     or    a,$0c
9c0c: 24 0b     and   a,$0b
9c0e: aa f2 40  mov1  c,$081e,2
9c11: ff        stop
9c12: ee        pop   y
9c13: 13 21 ed  bbc0  $21,$9c02
9c16: f0 9a     beq   $9bb2
9c18: e1        tcall 14
9c19: 31        tcall 3
9c1a: e2 31     set7  $31
9c1c: 33 ac f0  bbc1  $ac,$9c0e
9c1f: 21        tcall 2
9c20: 9a e1     subw  ya,$e1
9c22: 30 ec     bmi   $9c10
9c24: f5 3d ef  mov   a,$ef3d+x
9c27: df        daa   a
9c28: 44 9a     eor   a,$9a
9c2a: 41        tcall 4
9c2b: cb e0     mov   $e0,y
9c2d: 01        tcall 0
9c2e: 2e f1 14  cbne  $f1,$9c44
9c31: 4b 9a     lsr   $9a
9c33: 90 12     bcc   $9c47
9c35: 3f f2 1f  call  $1ff2
9c38: de 56 ed  cbne  $56+x,$9c27
9c3b: 9a 00     subw  ya,$00
9c3d: e1        tcall 14
9c3e: 21        tcall 2
9c3f: 0e cf 20  tset1 $20cf
9c42: 00        nop
9c43: fe 9a     dbnz  y,$9bdf
9c45: 02 67     set0  $67
9c47: fa ce 35  mov   ($35),($ce)
9c4a: 0c c0 11  asl   $11c0
9c4d: 9a 03     subw  ya,$03
9c4f: 3f bd 24  call  $24bd
9c52: ff        stop
9c53: 11        tcall 1
9c54: 0b e3     asl   $e3
9c56: aa 10 10  mov1  c,$0202,0
9c59: ee        pop   y
9c5a: f2 32     clr7  $32
9c5c: fd        mov   y,a
9c5d: d1        tcall 13
9c5e: 30 9a     bmi   $9bfa
9c60: c0        di
9c61: 42 fe     set2  $fe
9c63: 14 1c     or    a,$1c+x
9c65: c1        tcall 12
9c66: 62 cc     set3  $cc
9c68: aa 01 ff  mov1  c,$1fe0,1
9c6b: 22 fe     set1  $fe
9c6d: ff        stop
9c6e: 00        nop
9c6f: 13 40 aa  bbc0  $40,$9c1b
9c72: dd        mov   a,y
9c73: f3 2f e0  bbc7  $2f,$9c55
9c76: ff        stop
9c77: 11        tcall 1
9c78: 21        tcall 2
9c79: fc        inc   y
9c7a: 9a e6     subw  ya,$e6
9c7c: 6d        push  y
9c7d: bf        mov   a,(x)+
9c7e: 22 df     set1  $df
9c80: 23 1f df  bbs1  $1f,$9c61
9c83: aa 0e 03  mov1  c,$0061,6
9c86: 3f dd 14  call  $14dd
9c89: 0d        push  psw
9c8a: e4 2f     mov   a,$2f
9c8c: 9a f1     subw  ya,$f1
9c8e: 31        tcall 3
9c8f: bb 45     inc   $45+x
9c91: fc        inc   y
9c92: d0 30     bne   $9cc4
9c94: e2 aa     set7  $aa
9c96: 11        tcall 1
9c97: ed        notc
9c98: f2 10     clr7  $10
9c9a: 23 0e c0  bbs1  $0e,$9c5c
9c9d: 33 aa ed  bbc1  $aa,$9c8c
9ca0: 11        tcall 1
9ca1: f0 11     beq   $9cb4
9ca3: 1e c1 32  cmp   x,$32c1
9ca6: fe 9a     dbnz  y,$9c42
9ca8: c1        tcall 12
9ca9: 4f f3     pcall $f3
9cab: 1e e1 20  cmp   x,$20e1
9cae: ad 65     cmp   y,#$65
9cb0: 96 5e af  adc   a,$af5e+y
9cb3: 64 cc     cmp   a,$cc
9cb5: 35 33 36  and   a,$3633+x
9cb8: 60        clrc
9cb9: 9a b4     subw  ya,$b4
9cbb: 6f        ret
9cbc: ad 03     cmp   y,#$03
9cbe: 3e 03     cmp   x,$03
9cc0: fb d2     mov   y,$d2+x
9cc2: 9a 5e     subw  ya,$5e
9cc4: d4 70     mov   $70+x,a
9cc6: bb 16     inc   $16+x
9cc8: 4b a4     lsr   $a4
9cca: 3e aa     cmp   x,$aa
9ccc: 00        nop
9ccd: 11        tcall 1
9cce: ec 14 1f  mov   y,$1f14
9cd1: de 23 ef  cbne  $23+x,$9cc2
9cd4: 96 36 2f  adc   a,$2f36+y
9cd7: 04 5e     or    a,$5e
9cd9: d3 51 ca  bbc6  $51,$9ca5
9cdc: f5 96 4e  mov   a,$4e96+x
9cdf: e4 54     mov   a,$54
9ce1: 33 55 eb  bbc1  $55,$9cce
9ce4: 15 1b aa  or    a,$aa1b+x
9ce7: d0 41     bne   $9d2a
9ce9: e1        tcall 14
9cea: 1f ef 13  jmp   ($13ef+x)
9ced: ee        pop   y
9cee: 42 9a     set2  $9a
9cf0: cb e4     mov   $e4,y
9cf2: 60        clrc
9cf3: ad 54     cmp   y,#$54
9cf5: fe f0     dbnz  y,$9ce7
9cf7: 3d        inc   x
9cf8: aa d0 31  mov1  c,$063a,0
9cfb: 0d        push  psw
9cfc: e2 2e     set7  $2e
9cfe: 12 00     clr0  $00
9d00: ef        sleep
9d01: 9a 31     subw  ya,$31
9d03: a1        tcall 10
9d04: 50 db     bvc   $9ce1
9d06: d6 6d a4  mov   $a46d+y,a
9d09: 60        clrc
9d0a: aa f0 01  mov1  c,$003e,0
9d0d: 0c f5 3e  asl   $3ef5
9d10: dd        mov   a,y
9d11: 01        tcall 0
9d12: 10 aa     bpl   $9cbe
9d14: 20        clrp
9d15: ff        stop
9d16: f1        tcall 15
9d17: 2f e2     bra   $9cfb
9d19: 3f de 24  call  $24de
9d1c: aa 1c f2  mov1  c,$1e43,4
9d1f: 20        clrp
9d20: 0f        brk
9d21: f1        tcall 15
9d22: ed        notc
9d23: 24 0e     and   a,$0e
9d25: 9a cf     subw  ya,$cf
9d27: 11        tcall 1
9d28: 03 20 0e  bbs0  $20,$9d38
9d2b: d1        tcall 13
9d2c: 1e 03 9a  cmp   x,$9a03
9d2f: 1b b0     asl   $b0+x
9d31: 46        eor   a,(x)
9d32: db 36     mov   $36+x,y
9d34: 10 ee     bpl   $9d24
9d36: 11        tcall 1
9d37: aa d0 42  mov1  c,$085a,0
9d3a: ee        pop   y
9d3b: ef        sleep
9d3c: 01        tcall 0
9d3d: 11        tcall 1
9d3e: 10 fe     bpl   $9d3e
9d40: 9a 03     subw  ya,$03
9d42: 1f 22 de  jmp   ($de22+x)
9d45: f0 63     beq   $9daa
9d47: bd        mov   sp,x
9d48: 34 9a     and   a,$9a+x
9d4a: 3f ce 1e  call  $1ece
9d4d: b2 61     clr5  $61
9d4f: ee        pop   y
9d50: d0 2f     bne   $9d81
9d52: 9a 04     subw  ya,$04
9d54: 3f cf 1f  call  $1fcf
9d57: f1        tcall 15
9d58: 11        tcall 1
9d59: fb e2     mov   y,$e2+x
9d5b: 9a 5f     subw  ya,$5f
9d5d: d1        tcall 13
9d5e: 45 1d b0  eor   a,$b01d
9d61: 3d        inc   x
9d62: e4 40     mov   a,$40
9d64: 9a fc     subw  ya,$fc
9d66: 90 30     bcc   $9d98
9d68: 25 1c d1  and   a,$d11c
9d6b: 2f 01     bra   $9d6e
9d6d: 9a 2f     subw  ya,$2f
9d6f: df        daa   a
9d70: 25 0c f1  and   a,$f10c
9d73: 36 1b c1  and   a,$c11b+y
9d76: aa 0e f2  mov1  c,$1e41,6
9d79: 21        tcall 2
9d7a: fc        inc   y
9d7b: f3 0f 13  bbc7  $0f,$9d90
9d7e: fe 8a     dbnz  y,$9d0a
9d80: f5 cc 22  mov   a,$22cc+x
9d83: 1e 9f 63  cmp   x,$639f
9d86: ad 17     cmp   y,#$17
9d88: 9a 63     subw  ya,$63
9d8a: db e3     mov   $e3+x,y
9d8c: fd        mov   y,a
9d8d: 14 30     or    a,$30+x
9d8f: ca f2 9a  mov1  $135e,2,c
9d92: f0 53     beq   $9de7
9d94: de 20 0f  cbne  $20+x,$9da5
9d97: 10 0f     bpl   $9da8
9d99: e3 9a 6e  bbs7  $9a,$9e09
9d9c: bd        mov   sp,x
9d9d: 26        and   a,(x)
9d9e: 51        tcall 5
9d9f: cb 11     mov   $11,y
9da1: cd 25     mov   x,#$25
9da3: 9a 2f     subw  ya,$2f
9da5: cb 14     mov   $14,y
9da7: 1f 3f d1  jmp   ($d13f+x)
9daa: 2f ef     bra   $9d9b
9dac: aa 1f f1  mov1  c,$1e23,7
9daf: 01        tcall 0
9db0: 0f        brk
9db1: e0        clrv
9db2: 24 2e     and   a,$2e
9db4: df        daa   a
9db5: 9a 3e     subw  ya,$3e
9db7: e2 42     set7  $42
9db9: fd        mov   y,a
9dba: cf        mul   ya
9dbb: 1f 03 1d  jmp   ($1d03+x)
9dbe: 9a 14     subw  ya,$14
9dc0: 1e 00 df  cmp   x,$df00
9dc3: 21        tcall 2
9dc4: 14 0b     or    a,$0b+x
9dc6: a2 aa     set5  $aa
9dc8: 43 0e e0  bbs2  $0e,$9daa
9dcb: 1e e1 21  cmp   x,$21e1
9dce: 0f        brk
9dcf: e0        clrv
9dd0: 9a 11     subw  ya,$11
9dd2: 2f df     bra   $9db3
9dd4: 52 df     clr2  $df
9dd6: 2d        push  a
9dd7: c1        tcall 12
9dd8: 21        tcall 2
9dd9: aa 11 ec  mov1  c,$1d82,1
9ddc: 04 42     or    a,$42
9dde: ec f2 0e  mov   y,$0ef2
9de1: 12 aa     clr0  $aa
9de3: 1f fe f2  jmp   ($f2fe+x)
9de6: 0f        brk
9de7: 00        nop
9de8: e2 40     set7  $40
9dea: e1        tcall 14
9deb: aa 0d f1  mov1  c,$1e21,5
9dee: 11        tcall 1
9def: 20        clrp
9df0: de 13 41  cbne  $13+x,$9e33
9df3: cd 9a     mov   x,#$9a
9df5: 12 0e     clr0  $0e
9df7: 10 02     bpl   $9dfb
9df9: 0c f2 10  asl   $10f2
9dfc: fc        inc   y
9dfd: aa 03 2f  mov1  c,$05e0,3
9e00: f0 ee     beq   $9df0
9e02: 02 12     set0  $12
9e04: 0d        push  psw
9e05: c1        tcall 12
9e06: aa 33 3f  mov1  c,$07e6,3
9e09: cf        mul   ya
9e0a: 11        tcall 1
9e0b: f0 10     beq   $9e1d
9e0d: 00        nop
9e0e: ef        sleep
9e0f: aa 11 ff  mov1  c,$1fe2,1
9e12: 0e 24 1f  tset1 $1f24
9e15: 0f        brk
9e16: df        daa   a
9e17: 21        tcall 2
9e18: aa 11 fe  mov1  c,$1fc2,1
9e1b: f2 13     clr7  $13
9e1d: 2d        push  a
9e1e: c0        di
9e1f: 21        tcall 2
9e20: 0f        brk
9e21: 9a e0     subw  ya,$e0
9e23: 10 ff     bpl   $9e24
9e25: 20        clrp
9e26: d0 0f     bne   $9e37
9e28: 53 e0 aa  bbc2  $e0,$9dd4
9e2b: 0d        push  psw
9e2c: e1        tcall 14
9e2d: 21        tcall 2
9e2e: 10 ed     bpl   $9e1d
9e30: 03 32 fd  bbs0  $32,$9e2f
9e33: 9a e0     subw  ya,$e0
9e35: 13 1d 03  bbc0  $1d,$9e3a
9e38: fb e2     mov   y,$e2+x
9e3a: 5e af 9a  cmp   y,$9aaf
9e3d: 12 63     clr0  $63
9e3f: 00        nop
9e40: db e2     mov   $e2+x,y
9e42: 32 0e     clr1  $0e
9e44: df        daa   a
9e45: 9a 43     subw  ya,$43
9e47: 43 bb f0  bbs2  $bb,$9e39
9e4a: 42 ec     set2  $ec
9e4c: 11        tcall 1
9e4d: ff        stop
9e4e: 9a 13     subw  ya,$13
9e50: e9 f4 33  mov   x,$33f4
9e53: 1d        dec   x
9e54: f1        tcall 15
9e55: eb f5     mov   y,$f5
9e57: 9a 5f     subw  ya,$5f
9e59: ee        pop   y
9e5a: c0        di
9e5b: 44 5e     eor   a,$5e
9e5d: af        mov   (x)+,a
9e5e: 12 30     clr0  $30
9e60: 9a cf     subw  ya,$cf
9e62: 22 bd     set1  $bd
9e64: 34 dc     and   a,$dc+x
9e66: 00        nop
9e67: 25 00 aa  and   a,$aa00
9e6a: 11        tcall 1
9e6b: ec 13 0f  mov   y,$0f13
9e6e: 0f        brk
9e6f: 02 11     set0  $11
9e71: 1e 9a d0  cmp   x,$d09a
9e74: 02 2e     set0  $2e
9e76: d1        tcall 13
9e77: 2e e2 2e  cbne  $e2,$9ea7
9e7a: ae        pop   a
9e7b: 9a 34     subw  ya,$34
9e7d: 51        tcall 5
9e7e: ad 42     cmp   y,#$42
9e80: ac 44 00  inc   $0044
9e83: fc        inc   y
9e84: 9a 04     subw  ya,$04
9e86: 22 0c     set1  $0c
9e88: f3 00 00  bbc7  $00,$9e8a
9e8b: f1        tcall 15
9e8c: 0d        push  psw
9e8d: 9a f1     subw  ya,$f1
9e8f: 1f ef 02  jmp   ($02ef+x)
9e92: 4f f3     pcall $f3
9e94: 3e be     cmp   x,$be
9e96: 9a 22     subw  ya,$22
9e98: 00        nop
9e99: fe 23     dbnz  y,$9ebe
9e9b: 22 ec     set1  $ec
9e9d: 03 0f 9a  bbs0  $0f,$9e39
9ea0: 0e 12 df  tset1 $df12
9ea3: 20        clrp
9ea4: dd        mov   a,y
9ea5: e2 54     set7  $54
9ea7: 0b 9a     asl   $9a
9ea9: d4 2e     mov   $2e+x,a
9eab: c0        di
9eac: 11        tcall 1
9ead: 11        tcall 1
9eae: ef        sleep
9eaf: 32 f0     clr1  $f0
9eb1: 9a fe     subw  ya,$fe
9eb3: 22 f0     set1  $f0
9eb5: 10 2d     bpl   $9ee4
9eb7: c0        di
9eb8: 2f ff     bra   $9eb9
9eba: 9a 11     subw  ya,$11
9ebc: 11        tcall 1
9ebd: ff        stop
9ebe: 34 fc     and   a,$fc+x
9ec0: d0 13     bne   $9ed5
9ec2: 1f 8a a1  jmp   ($a18a+x)
9ec5: 62 22     set3  $22
9ec7: ac 62 bf  inc   $bf62
9eca: 21        tcall 2
9ecb: 1e 9a f0  cmp   x,$f09a
9ece: 0d        push  psw
9ecf: cf        mul   ya
9ed0: 43 30 df  bbs2  $30,$9eb1
9ed3: 01        tcall 0
9ed4: 0f        brk
9ed5: 8a d0 22  eor1  c,$045a,0
9ed8: 0e 16 2c  tset1 $2c16
9edb: ff        stop
9edc: d2 41     clr6  $41
9ede: 9a 01     subw  ya,$01
9ee0: 10 0c     bpl   $9eee
9ee2: d1        tcall 13
9ee3: 1d        dec   x
9ee4: f4 2f     mov   a,$2f+x
9ee6: 1e 8a 05  cmp   x,$058a
9ee9: 31        tcall 3
9eea: ca 04 32  mov1  $0640,4,c
9eed: ca 26 11  mov1  $0224,6,c
9ef0: 9a 1f     subw  ya,$1f
9ef2: e0        clrv
9ef3: 2f f1     bra   $9ee6
9ef5: 10 1e     bpl   $9f15
9ef7: f0 b9     beq   $9eb2
9ef9: aa 14 11  mov1  c,$0222,4
9efc: 0f        brk
9efd: f0 00     beq   $9eff
9eff: f0 10     beq   $9f11
9f01: 00        nop
9f02: 9a f0     subw  ya,$f0
9f04: 42 df     set2  $df
9f06: ff        stop
9f07: 02 11     set0  $11
9f09: 21        tcall 2
9f0a: f0 9a     beq   $9ea6
9f0c: dd        mov   a,y
9f0d: f0 e0     beq   $9eef
9f0f: 53 d0 0f  bbc2  $d0,$9f20
9f12: 12 0e     clr0  $0e
9f14: 9a e2     subw  ya,$e2
9f16: 31        tcall 3
9f17: ee        pop   y
9f18: e1        tcall 14
9f19: 3f 02 0f  call  $0f02
9f1c: 10 9a     bpl   $9eb8
9f1e: ff        stop
9f1f: 10 20     bpl   $9f41
9f21: 0e db c3  tset1 $c3db
9f24: 71        tcall 7
9f25: 13 9a da  bbc0  $9a,$9f01
9f28: 23 dd 34  bbs1  $dd,$9f5e
9f2b: 1e df 04  cmp   x,$04df
9f2e: 3e 8a     cmp   x,$8a
9f30: fd        mov   y,a
9f31: b2 31     clr5  $31
9f33: 36 0d 2e  and   a,$2e0d+y
9f36: ac ae 9a  inc   $9aae
9f39: 15 3e 00  or    a,$003e+x
9f3c: ef        sleep
9f3d: 31        tcall 3
9f3e: df        daa   a
9f3f: 33 1e 86  bbc1  $1e,$9ec7
9f42: 2d        push  a
9f43: c0        di
9f44: 21        tcall 2
9f45: 1f f3 3f  jmp   ($3ff3+x)
9f48: dc        dec   y
9f49: ac 9a 30  inc   $309a
9f4c: dd        mov   a,y
9f4d: cc 16 22  mov   $2216,y
9f50: 3e af     cmp   x,$af
9f52: 4f 9a     pcall $9a
9f54: d2 41     clr6  $41
9f56: fc        inc   y
9f57: e0        clrv
9f58: 34 0f     and   a,$0f+x
9f5a: ee        pop   y
9f5b: 11        tcall 1
9f5c: 9a 01     subw  ya,$01
9f5e: 30 f1     bmi   $9f51
9f60: 1d        dec   x
9f61: ce        pop   x
9f62: f0 44     beq   $9fa8
9f64: 0f        brk
9f65: 9a ff     subw  ya,$ff
9f67: 01        tcall 0
9f68: fe 14     dbnz  y,$9f7e
9f6a: 20        clrp
9f6b: fd        mov   y,a
9f6c: ef        sleep
9f6d: 21        tcall 2
9f6e: 9a 01     subw  ya,$01
9f70: f0 41     beq   $9fb3
9f72: ee        pop   y
9f73: ff        stop
9f74: 23 0e db  bbs1  $0e,$9f51
9f77: 9a d1     subw  ya,$d1
9f79: 33 23 fc  bbc1  $23,$9f77
9f7c: d2 0e     clr6  $0e
9f7e: 24 20     and   a,$20
9f80: 96 4f d0  adc   a,$d04f+y
9f83: 34 30     and   a,$30+x
9f85: ce        pop   x
9f86: 0f        brk
9f87: f1        tcall 15
9f88: 10 9a     bpl   $9f24
9f8a: 11        tcall 1
9f8b: ed        notc
9f8c: de 14 30  cbne  $14+x,$9fbe
9f8f: 0f        brk
9f90: e0        clrv
9f91: 1f 9a e0  jmp   ($e09a+x)
9f94: 53 0f ec  bbc2  $0f,$9f82
9f97: f1        tcall 15
9f98: 20        clrp
9f99: 0f        brk
9f9a: 24 9a     and   a,$9a
9f9c: 1e df 00  cmp   x,$00df
9f9f: 31        tcall 3
9fa0: ed        notc
9fa1: ce        pop   x
9fa2: 12 21     clr0  $21
9fa4: 9a 21     subw  ya,$21
9fa6: ed        notc
9fa7: e0        clrv
9fa8: 23 21 0d  bbs1  $21,$9fb7
9fab: dd        mov   a,y
9fac: 24 9a     and   a,$9a
9fae: 11        tcall 1
9faf: ee        pop   y
9fb0: 22 fe     set1  $fe
9fb2: 12 f2     clr0  $f2
9fb4: 2e ce 9a  cbne  $ce,$9f50
9fb7: ff        stop
9fb8: 45 0d ff  eor   a,$ff0d
9fbb: 10 ef     bpl   $9fac
9fbd: 23 30 9a  bbs1  $30,$9f59
9fc0: ff        stop
9fc1: dd        mov   a,y
9fc2: 01        tcall 0
9fc3: 11        tcall 1
9fc4: 02 41     set0  $41
9fc6: dd        mov   a,y
9fc7: f0 9a     beq   $9f63
9fc9: 03 1d ee  bbs0  $1d,$9fb9
9fcc: df        daa   a
9fcd: 52 e0     clr2  $e0
9fcf: 20        clrp
9fd0: fe 9a     dbnz  y,$9f6c
9fd2: e1        tcall 14
9fd3: 43 f0 fe  bbs2  $f0,$9fd3
9fd6: cf        mul   ya
9fd7: 33 10 01  bbc1  $10,$9fda
9fda: 96 2f ec  adc   a,$ec2f+y
9fdd: df        daa   a
9fde: 01        tcall 0
9fdf: fc        inc   y
9fe0: cd be     mov   x,#$be
9fe2: 43 9a b0  bbs2  $9a,$9f94
9fe5: 00        nop
9fe6: 2f e1     bra   $9fc9
9fe8: 31        tcall 3
9fe9: 11        tcall 1
9fea: ee        pop   y
9feb: de 9a 22  cbne  $9a+x,$a00f
9fee: 1f 23 2e  jmp   ($2e23+x)
9ff1: ce        pop   x
9ff2: 20        clrp
9ff3: 10 fe     bpl   $9ff3
9ff5: 9a 0e     subw  ya,$0e
9ff7: d4 4c     mov   $4c+x,a
9ff9: e3 00 0d  bbs7  $00,$a008
9ffc: f4 31     mov   a,$31+x
9ffe: 8a fe cb  eor1  c,$197f,6
a001: b3 63 31  bbc5  $63,$a034
a004: 12 ba     clr0  $ba
a006: c1        tcall 12
a007: 96 e0 0e  adc   a,$0ee0+y
a00a: dd        mov   a,y
a00b: fe 05     dbnz  y,$a012
a00d: 3c        rol   a
a00e: df        daa   a
a00f: f1        tcall 15
a010: 9a 0d     subw  ya,$0d
a012: 04 1f     or    a,$1f
a014: 21        tcall 2
a015: dc        dec   y
a016: f0 22     beq   $a03a
a018: 00        nop
a019: 9a 52     subw  ya,$52
a01b: cc f2 1f  mov   $1ff2,y
a01e: f0 00     beq   $a020
a020: df        daa   a
a021: 42 9a     set2  $9a
a023: cd 12     mov   x,#$12
a025: 20        clrp
a026: cf        mul   ya
a027: 43 f0 1f  bbs2  $f0,$a048
a02a: dd        mov   a,y
a02b: 9a 12     subw  ya,$12
a02d: 31        tcall 3
a02e: 01        tcall 0
a02f: 2d        push  a
a030: be        das   a
a031: 32 10     clr1  $10
a033: ff        stop
a034: 96 01 02  adc   a,$0201+y
a037: 52 dc     clr2  $dc
a039: e0        clrv
a03a: 0f        brk
a03b: e0        clrv
a03c: 33 9a e2  bbc1  $9a,$a020
a03f: 2f bd     bra   $9ffe
a041: 23 00 23  bbs1  $00,$a066
a044: 1c        asl   a
a045: b2 9b     clr5  $9b
a047: 30 ee     bmi   $a037
a049: f3 2c e3  bbc7  $2c,$a02e
a04c: 1d        dec   x
a04d: e0        clrv
a04e: 21        tcall 2
a04f: 02 00     set0  $00
a051: 00        nop
a052: 00        nop
a053: 00        nop
a054: 00        nop
a055: 00        nop
a056: 00        nop
a057: 00        nop
a058: 7a 34     addw  ya,$34
a05a: 44 22     eor   a,$22
a05c: 22 10     set1  $10
a05e: 00        nop
a05f: fe ee     dbnz  y,$a04f
a061: 7a ec     addw  ya,$ec
a063: cd cc     mov   x,#$cc
a065: cc bb cc  mov   $ccbb,y
a068: cd dc     mov   x,#$dc
a06a: 7a de     addw  ya,$de
a06c: ff        stop
a06d: ef        sleep
a06e: 11        tcall 1
a06f: 11        tcall 1
a070: 22 33     set1  $33
a072: 44 7a     eor   a,$7a
a074: 43 55 44  bbs2  $55,$a0ba
a077: 45 44 23  eor   a,$2344
a07a: 33 21 7a  bbc1  $21,$a0f6
a07d: 10 1f     bpl   $a09e
a07f: fe ee     dbnz  y,$a06f
a081: ed        notc
a082: cc cc cb  mov   $cbcc,y
a085: 7a cc     addw  ya,$cc
a087: cb cd     mov   $cd,y
a089: dd        mov   a,y
a08a: dd        mov   a,y
a08b: ef        sleep
a08c: 00        nop
a08d: f0 7a     beq   $a109
a08f: 12 23     clr0  $23
a091: 33 33 45  bbc1  $33,$a0d8
a094: 44 55     eor   a,$55
a096: 43 7a 44  bbs2  $7a,$a0dc
a099: 43 32 11  bbs2  $32,$a0ac
a09c: 21        tcall 2
a09d: 0f        brk
a09e: fe ee     dbnz  y,$a08e
a0a0: 7b ec     ror   $ec+x
a0a2: cd dc     mov   x,#$dc
a0a4: bb cc     inc   $cc+x
a0a6: cc bd dd  mov   $ddbd,y
a0a9: 00        nop
a0aa: 00        nop
a0ab: 00        nop
a0ac: 00        nop
a0ad: 00        nop
a0ae: 00        nop
a0af: 00        nop
a0b0: 00        nop
a0b1: 00        nop
a0b2: b0 53     bcs   $a107
a0b4: 1f cb 05  jmp   ($05cb+x)
a0b7: 3f 02 fb  call  $fb02
a0ba: f5 c0 10  mov   a,$10c0+x
a0bd: 0e e2 32  tset1 $32e2
a0c0: 21        tcall 2
a0c1: dc        dec   y
a0c2: f3 31 c4  bbc7  $31,$a088
a0c5: 00        nop
a0c6: ef        sleep
a0c7: 33 fd 01  bbc1  $fd,$a0ca
a0ca: ff        stop
a0cb: 13 2c c0  bbc0  $2c,$a08d
a0ce: bd        mov   sp,x
a0cf: 0f        brk
a0d0: 02 22     set0  $22
a0d2: 2f f3     bra   $a0c7
a0d4: 41        tcall 4
a0d5: 11        tcall 1
a0d6: c8 f0     cmp   x,#$f0
a0d8: 12 2c     clr0  $2c
a0da: c2 3f     set6  $3f
a0dc: 01        tcall 0
a0dd: 1f de b4  jmp   ($b4de+x)
a0e0: e1        tcall 14
a0e1: 12 20     clr0  $20
a0e3: 12 33     clr0  $33
a0e5: 00        nop
a0e6: 1f 02 b8  jmp   ($b802+x)
a0e9: c1        tcall 12
a0ea: 4d        push  x
a0eb: a0        ei
a0ec: 53 3d ce  bbc2  $3d,$a0bc
a0ef: 03 2d b4  bbs0  $2d,$a0a5
a0f2: 14 41     or    a,$41+x
a0f4: 1f 22 41  jmp   ($4122+x)
a0f7: be        das   a
a0f8: 2e e0 b8  cbne  $e0,$a0b2
a0fb: e1        tcall 14
a0fc: 1e e1 13  cmp   x,$13e1
a0ff: 1c        asl   a
a100: f2 1f     clr7  $1f
a102: ff        stop
a103: b8 42 ee  sbc   $ee,#$42
a106: ff        stop
a107: 3f 10 fd  call  $fd10
a10a: 3e f1     cmp   x,$f1
a10c: a8 4f     sbc   a,#$4f
a10e: 13 0b 02  bbc0  $0b,$a112
a111: ef        sleep
a112: 34 0e     and   a,$0e+x
a114: ff        stop
a115: a8 f0     sbc   a,#$f0
a117: 01        tcall 0
a118: c1        tcall 12
a119: 20        clrp
a11a: 01        tcall 0
a11b: ec 6f 1f  mov   y,$1f6f
a11e: 88 12     adc   a,#$12
a120: 31        tcall 3
a121: fb 54     mov   y,$54+x
a123: bf        mov   a,(x)+
a124: 0f        brk
a125: b4 5d     sbc   a,$5d+x
a127: 98 cf 1e  adc   $1e,#$cf
a12a: 12 20     clr0  $20
a12c: 0f        brk
a12d: f0 02     beq   $a131
a12f: 22 98     set1  $98
a131: 0f        brk
a132: c0        di
a133: 3e e1     cmp   x,$e1
a135: 30 ed     bmi   $a124
a137: f1        tcall 15
a138: 21        tcall 2
a139: 78 9d 65  cmp   $65,#$9d
a13c: fc        inc   y
a13d: 02 11     set0  $11
a13f: 60        clrc
a140: de 4f 78  cbne  $4f+x,$a1ba
a143: a1        tcall 10
a144: 33 bb e3  bbc1  $bb,$a129
a147: e1        tcall 14
a148: 4f f0     pcall $f0
a14a: 1d        dec   x
a14b: 78 14 12  cmp   $12,#$14
a14e: 00        nop
a14f: c0        di
a150: 13 0f 00  bbc0  $0f,$a152
a153: fe 89     dbnz  y,$a0de
a155: 0e 03 1c  tset1 $1c03
a158: d5 3c e5  mov   $e53c+x,a
a15b: ef        sleep
a15c: 5f 00 00  jmp   $0000
a15f: 00        nop
a160: 00        nop
a161: 00        nop
a162: 00        nop
a163: 00        nop
a164: 00        nop
a165: 00        nop
a166: 98 f0 02  adc   $02,#$f0
a169: 55 12 01  eor   a,$0112+x
a16c: ec bd ff  mov   y,$ffbd
a16f: 98 0f 03  adc   $03,#$0f
a172: 35 51 0e  and   a,$0e51+x
a175: 0e eb cc  tset1 $cceb
a178: 98 00 22  adc   $22,#$00
a17b: 33 44 30  bbc1  $44,$a1ad
a17e: ed        notc
a17f: dd        mov   a,y
a180: bd        mov   sp,x
a181: 98 df 14  adc   $14,#$df
a184: 44 33     eor   a,$33
a186: 32 1c     clr1  $1c
a188: bc        inc   a
a189: cd 98     mov   x,#$98
a18b: de 04 44  cbne  $04+x,$a1d1
a18e: 43 33 1c  bbs2  $33,$a1ac
a191: ac ce 98  inc   $98ce
a194: ce        pop   x
a195: f3 46 52  bbc7  $46,$a1e9
a198: 41        tcall 4
a199: 1d        dec   x
a19a: db ac     mov   $ac+x,y
a19c: 98 cf 13  adc   $13,#$cf
a19f: 45 54 42  eor   a,$4254
a1a2: ec bc ac  mov   y,$acbc
a1a5: 98 ef 15  adc   $15,#$ef
a1a8: 45 55 30  eor   a,$3055
a1ab: da bb     movw  $bb,ya
a1ad: cb 98     mov   $98,y
a1af: f0 56     beq   $a207
a1b1: 64 43     cmp   a,$43
a1b3: 2d        push  a
a1b4: aa ac de  mov1  c,$1bd5,4
a1b7: 98 15 57  adc   $57,#$15
a1ba: 44 3f     eor   a,$3f
a1bc: da aa     movw  $aa,ya
a1be: dd        mov   a,y
a1bf: 02 98     set0  $98
a1c1: 65 64 30  cmp   a,$3064
a1c4: eb bb     mov   y,$bb
a1c6: cd f3     mov   x,#$f3
a1c8: 55 98 53  eor   a,$5398+x
a1cb: 11        tcall 1
a1cc: ea cc fe  not1  $1fd9,4
a1cf: 04 45     or    a,$45
a1d1: 21        tcall 2
a1d2: 98 0f dc  adc   $dc,#$0f
a1d5: ce        pop   x
a1d6: e3 34 33  bbs7  $34,$a20b
a1d9: 1f dd 98  jmp   ($98dd+x)
a1dc: cd ef     mov   x,#$ef
a1de: 34 43     and   a,$43+x
a1e0: 12 fd     clr0  $fd
a1e2: ad e0     cmp   y,#$e0
a1e4: 98 01 44  adc   $44,#$01
a1e7: 32 ef     clr1  $ef
a1e9: bc        inc   a
a1ea: ff        stop
a1eb: 11        tcall 1
a1ec: 44 98     eor   a,$98
a1ee: 21        tcall 2
a1ef: fd        mov   y,a
a1f0: cc df 43  mov   $43df,y
a1f3: 34 30     and   a,$30+x
a1f5: 0b 98     asl   $98
a1f7: 9e        div   ya,x
a1f8: fd        mov   y,a
a1f9: 25 44 23  and   a,$2344
a1fc: e9 cc e1  mov   x,$e1cc
a1ff: 98 24 51  adc   $51,#$24
a202: 4d        push  x
a203: ce        pop   x
a204: be        das   a
a205: 05 13 6e  or    a,$6e13
a208: 98 ef ad  adc   $ad,#$ef
a20b: f1        tcall 15
a20c: 15 51 2c  or    a,$2c51+x
a20f: dd        mov   a,y
a210: bf        mov   a,(x)+
a211: 98 24 24  adc   $24,#$24
a214: 10 dd     bpl   $a1f3
a216: eb 22     mov   y,$22
a218: 25 31 98  and   a,$9831
a21b: bd        mov   sp,x
a21c: ce        pop   x
a21d: e2 35     set7  $35
a21f: 40        setp
a220: 1b ce     asl   $ce+x
a222: d0 98     bne   $a1bc
a224: 25 33 fc  and   a,$fc33
a227: ce        pop   x
a228: f0 34     beq   $a25e
a22a: 23 fc 98  bbs1  $fc,$a1c4
a22d: cc f0 45  mov   $45f0,y
a230: 33 eb dc  bbc1  $eb,$a20e
a233: f2 44     clr7  $44
a235: 98 30 ce  adc   $ce,#$30
a238: dc        dec   y
a239: f2 63     clr7  $63
a23b: 4f dc     pcall $dc
a23d: ce        pop   x
a23e: 98 03 52  adc   $52,#$03
a241: 1f cc e2  jmp   ($e2cc+x)
a244: 33 21 dd  bbc1  $21,$a223
a247: 98 df 12  adc   $12,#$df
a24a: 23 0e ee  bbs1  $0e,$a23a
a24d: e0        clrv
a24e: 44 0f     eor   a,$0f
a250: 98 ec f0  adc   $f0,#$ec
a253: 32 20     clr1  $20
a255: de e0 23  cbne  $e0+x,$a27a
a258: 20        clrp
a259: 88 ca     adc   a,#$ca
a25b: dd        mov   a,y
a25c: 45 31 dd  eor   a,$dd31
a25f: cf        mul   ya
a260: 33 3e 94  bbc1  $3e,$a1f6
a263: 0e f0 11  tset1 $11f0
a266: 00        nop
a267: ee        pop   y
a268: f2 53     clr7  $53
a26a: 0b a8     asl   $a8
a26c: 00        nop
a26d: 22 20     set1  $20
a26f: ce        pop   x
a270: e3 13 0f  bbs7  $13,$a281
a273: cf        mul   ya
a274: 98 f7 34  adc   $34,#$f7
a277: dd        mov   a,y
a278: b0 14     bcs   $a28e
a27a: 01        tcall 0
a27b: de 02 98  cbne  $02+x,$a215
a27e: 4f fb     pcall $fb
a280: 00        nop
a281: 42 2b     set2  $2b
a283: de 22 4e  cbne  $22+x,$a2d3
a286: 98 ee f4  adc   $f4,#$ee
a289: 12 ce     clr0  $ce
a28b: c3 23 ff  bbs6  $23,$a28c
a28e: e0        clrv
a28f: a8 00     sbc   a,#$00
a291: 1f 00 10  jmp   ($1000+x)
a294: fe 02     dbnz  y,$a298
a296: 22 ec     set1  $ec
a298: a8 d0     sbc   a,#$d0
a29a: 44 2d     eor   a,$2d
a29c: be        das   a
a29d: 33 2e de  bbc1  $2e,$a27d
a2a0: 22 98     set1  $98
a2a2: 1e e0 11  cmp   x,$11e0
a2a5: ff        stop
a2a6: 02 1e     set0  $1e
a2a8: cd 46     mov   x,#$46
a2aa: a8 3e     sbc   a,#$3e
a2ac: cc 14 4f  mov   $4f14,y
a2af: cd 14     mov   x,#$14
a2b1: 3f bd a4  call  $a4bd
a2b4: e3 40 cd  bbs7  $40,$a283
a2b7: 14 2e     or    a,$2e+x
a2b9: df        daa   a
a2ba: 12 0f     clr0  $0f
a2bc: 98 12 ef  adc   $ef,#$12
a2bf: 33 ea d4  bbc1  $ea,$a295
a2c2: 61        tcall 6
a2c3: bd        mov   sp,x
a2c4: 14 98     or    a,$98+x
a2c6: 1d        dec   x
a2c7: d2 12     clr6  $12
a2c9: ef        sleep
a2ca: 02 0f     set0  $0f
a2cc: cf        mul   ya
a2cd: 45 90 32  eor   a,$3290
a2d0: ee        pop   y
a2d1: 01        tcall 0
a2d2: 0e f0 fd  tset1 $fdf0
a2d5: e2 3f     set7  $3f
a2d7: 94 b0     adc   a,$b0+x
a2d9: 34 0f     and   a,$0f+x
a2db: 01        tcall 0
a2dc: 00        nop
a2dd: fe e0     dbnz  y,$a2bf
a2df: 21        tcall 2
a2e0: 89 b3 3f  adc   ($3f),($b3)
a2e3: cd 35     mov   x,#$35
a2e5: 1d        dec   x
a2e6: cf        mul   ya
a2e7: 22 1f     set1  $1f
a2e9: 00        nop
a2ea: 00        nop
a2eb: 00        nop
a2ec: 00        nop
a2ed: 00        nop
a2ee: 00        nop
a2ef: 00        nop
a2f0: 00        nop
a2f1: 00        nop
a2f2: 94 1e     adc   a,$1e+x
a2f4: c5 10 13  mov   $1310,a
a2f7: 20        clrp
a2f8: 0d        push  psw
a2f9: ef        sleep
a2fa: 06        or    a,(x)
a2fb: a4 1c     sbc   a,$1c
a2fd: 02 fe     set0  $fe
a2ff: d4 ff     mov   $ff+x,a
a301: 0f        brk
a302: f5 f0 a4  mov   a,$a4f0+x
a305: 11        tcall 1
a306: 00        nop
a307: f1        tcall 15
a308: d2 c3     clr6  $c3
a30a: de 41 20  cbne  $41+x,$a32c
a30d: 94 1e     adc   a,$1e+x
a30f: da 4c     movw  $4c,ya
a311: 1f 42 3d  jmp   ($3d42+x)
a314: c5 d0 a4  mov   $a4d0,a
a317: 21        tcall 2
a318: eb 31     mov   y,$31
a31a: f2 01     clr7  $01
a31c: f1        tcall 15
a31d: 0d        push  psw
a31e: 01        tcall 0
a31f: 90 d6     bcc   $a2f7
a321: 41        tcall 4
a322: 55 ed cc  eor   a,$cced+x
a325: ed        notc
a326: 11        tcall 1
a327: af        mov   (x)+,a
a328: a4 f2     sbc   a,$f2
a32a: fd        mov   y,a
a32b: 54 0a     eor   a,$0a+x
a32d: 02 0d     set0  $0d
a32f: e5 fd b0  mov   a,$b0fd
a332: ed        notc
a333: ee        pop   y
a334: ff        stop
a335: 02 10     set0  $10
a337: 15 29 e6  or    a,$e629+x
a33a: c4 dd     mov   $dd,a
a33c: 43 cd 13  bbs2  $cd,$a351
a33f: fd        mov   y,a
a340: 14 0d     or    a,$0d+x
a342: 04 b0     or    a,$b0
a344: 70 e1     bvs   $a327
a346: 0e df 22  tset1 $22df
a349: 1d        dec   x
a34a: f3 0b b0  bbc7  $0b,$a2fc
a34d: d2 40     clr6  $40
a34f: ce        pop   x
a350: 44 0e     eor   a,$0e
a352: 01        tcall 0
a353: ff        stop
a354: e1        tcall 14
a355: a0        ei
a356: 3f bc 0e  call  $0ebc
a359: 0d        push  psw
a35a: f5 fc f2  mov   a,$f2fc+x
a35d: 2f a4     bra   $a303
a35f: 41        tcall 4
a360: e1        tcall 14
a361: ce        pop   x
a362: e4 30     mov   a,$30
a364: de 15 dc  cbne  $15+x,$a342
a367: b4 10     sbc   a,$10+x
a369: 2f c3     bra   $a32e
a36b: 00        nop
a36c: 4d        push  x
a36d: 11        tcall 1
a36e: 1b c1     asl   $c1+x
a370: b0 ef     bcs   $a361
a372: 11        tcall 1
a373: 10 22     bpl   $a397
a375: f0 00     beq   $a377
a377: 1e 3f b4  cmp   x,$b43f
a37a: b4 1e     sbc   a,$1e+x
a37c: 22 e0     set1  $e0
a37e: ee        pop   y
a37f: 40        setp
a380: 00        nop
a381: 11        tcall 1
a382: b0 1e     bcs   $a3a2
a384: e2 3e     set7  $3e
a386: df        daa   a
a387: ff        stop
a388: 02 4e     set0  $4e
a38a: c2 b0     set6  $b0
a38c: 60        clrc
a38d: 11        tcall 1
a38e: e0        clrv
a38f: cb 3e     mov   $3e,y
a391: e1        tcall 14
a392: 4f a0     pcall $a0
a394: b0 0e     bcs   $a3a4
a396: df        daa   a
a397: ee        pop   y
a398: 13 2d ec  bbc0  $2d,$a386
a39b: ee        pop   y
a39c: cd b4     mov   x,#$b4
a39e: 6e 5b e3  dbnz  $5b,$a383
a3a1: fd        mov   y,a
a3a2: 02 20     set0  $20
a3a4: d2 30     clr6  $30
a3a6: b0 3f     bcs   $a3e7
a3a8: ef        sleep
a3a9: dc        dec   y
a3aa: 13 0e 12  bbc0  $0e,$a3be
a3ad: 0f        brk
a3ae: ec b4 31  mov   y,$31b4
a3b1: 12 ef     clr0  $ef
a3b3: ff        stop
a3b4: fd        mov   y,a
a3b5: 15 23 1e  or    a,$1e23+x
a3b8: b4 cc     sbc   a,$cc+x
a3ba: e0        clrv
a3bb: 54 3f     eor   a,$3f+x
a3bd: ac 23 04  inc   $0423
a3c0: fb b4     mov   y,$b4+x
a3c2: f0 04     beq   $a3c8
a3c4: 2d        push  a
a3c5: 1c        asl   a
a3c6: f2 32     clr7  $32
a3c8: df        daa   a
a3c9: d2 a4     clr6  $a4
a3cb: f2 25     clr7  $25
a3cd: 1b cd     asl   $cd+x
a3cf: 03 03 2d  bbs0  $03,$a3fe
a3d2: 20        clrp
a3d3: b4 e2     sbc   a,$e2+x
a3d5: ff        stop
a3d6: e0        clrv
a3d7: 11        tcall 1
a3d8: f4 2e     mov   a,$2e+x
a3da: 00        nop
a3db: f1        tcall 15
a3dc: b4 1d     sbc   a,$1d+x
a3de: f0 f0     beq   $a3d0
a3e0: 12 fd     clr0  $fd
a3e2: 0f        brk
a3e3: 42 e1     set2  $e1
a3e5: a0        ei
a3e6: 0d        push  psw
a3e7: 22 ad     set1  $ad
a3e9: 25 f1 3c  and   a,$3cf1
a3ec: 25 2e b0  and   a,$b02e
a3ef: 23 20 fd  bbs1  $20,$a3ee
a3f2: fd        mov   y,a
a3f3: cd 1d     mov   x,#$1d
a3f5: df        daa   a
a3f6: 1f b0 04  jmp   ($04b0+x)
a3f9: 50 f1     bvc   $a3ec
a3fb: fc        inc   y
a3fc: d0 42     bne   $a440
a3fe: 36 5d b4  and   a,$b45d+y
a401: 00        nop
a402: e4 d0     mov   a,$d0
a404: 21        tcall 2
a405: 32 de     clr1  $de
a407: 0d        push  psw
a408: 04 a0     or    a,$a0
a40a: ca 41 ff  mov1  $1fe8,1,c
a40d: 63 41 1f  bbs3  $41,$a42e
a410: bf        mov   a,(x)+
a411: cd b0     mov   x,#$b0
a413: 01        tcall 0
a414: 12 21     clr0  $21
a416: 21        tcall 2
a417: fe 00     dbnz  y,$a419
a419: 1d        dec   x
a41a: d0 a0     bne   $a3bc
a41c: 76 43 01  cmp   a,$0143+y
a41f: ed        notc
a420: dd        mov   a,y
a421: db be     mov   $be+x,y
a423: fe a4     dbnz  y,$a3c9
a425: 44 ee     eor   a,$ee
a427: 3f e0 c3  call  $c3e0
a42a: 2c c6 55  rol   $55c6
a42d: a0        ei
a42e: 00        nop
a42f: 35 fe 0f  and   a,$0ffe+x
a432: dd        mov   a,y
a433: fd        mov   y,a
a434: e1        tcall 14
a435: fd        mov   y,a
a436: a4 04     sbc   a,$04
a438: be        das   a
a439: 5d        mov   x,a
a43a: 5e f7 2c  cmp   y,$2cf7
a43d: 96 dd a0  adc   a,$a0dd+y
a440: a9 e2 06  sbc   ($06),($e2)
a443: 32 12     clr1  $12
a445: 11        tcall 1
a446: 9f        xcn   a
a447: 50 a0     bvc   $a3e9
a449: ef        sleep
a44a: b1        tcall 11
a44b: 0e e1 20  tset1 $20e1
a44e: ef        sleep
a44f: 41        tcall 4
a450: f0 a0     beq   $a3f2
a452: fd        mov   y,a
a453: 10 c0     bpl   $a415
a455: 34 ed     and   a,$ed+x
a457: 15 1c e2  or    a,$e21c+x
a45a: b0 20     bcs   $a47c
a45c: e0        clrv
a45d: 00        nop
a45e: ec e2 4f  mov   y,$4fe2
a461: 04 1d     or    a,$1d
a463: b0 dd     bcs   $a442
a465: 20        clrp
a466: 10 0f     bpl   $a477
a468: e0        clrv
a469: 02 0f     set0  $0f
a46b: cf        mul   ya
a46c: a0        ei
a46d: e1        tcall 14
a46e: 1f 1f 4f  jmp   ($4f1f+x)
a471: f4 4c     mov   a,$4c+x
a473: c2 fa     set6  $fa
a475: a0        ei
a476: fe e6     dbnz  y,$a45e
a478: 52 ff     clr2  $ff
a47a: ef        sleep
a47b: bc        inc   a
a47c: 0d        push  psw
a47d: 13 a0 24  bbc0  $a0,$a4a3
a480: 00        nop
a481: de e5 21  cbne  $e5+x,$a4a4
a484: 00        nop
a485: 31        tcall 3
a486: 2f b4     bra   $a43c
a488: 10 2e     bpl   $a4b8
a48a: f2 fa     clr7  $fa
a48c: 31        tcall 3
a48d: c3 51 3f  bbs6  $51,$a4ce
a490: b0 d0     bcs   $a462
a492: 2b e4     rol   $e4
a494: 01        tcall 0
a495: 4f df     pcall $df
a497: ab 00     inc   $00
a499: a4 b4     sbc   a,$b4
a49b: c0        di
a49c: 34 7b     and   a,$7b+x
a49e: e2 e0     set7  $e0
a4a0: f0 f5     beq   $a497
a4a2: a4 bb     sbc   a,$bb
a4a4: 1d        dec   x
a4a5: 1f 31 14  jmp   ($1431+x)
a4a8: 23 f0 ca  bbs1  $f0,$a474
a4ab: a0        ei
a4ac: e0        clrv
a4ad: 10 02     bpl   $a4b1
a4af: 1d        dec   x
a4b0: ed        notc
a4b1: 1b ac     asl   $ac+x
a4b3: 42 b8     set2  $b8
a4b5: 2c 23 d4  rol   $d423
a4b8: ee        pop   y
a4b9: 1e f2 03  cmp   x,$03f2
a4bc: 02 a4     set0  $a4
a4be: cf        mul   ya
a4bf: 0e 1f 1e  tset1 $1e1f
a4c2: 1b 20     asl   $20+x
a4c4: 05 31 b4  or    a,$b431
a4c7: fd        mov   y,a
a4c8: 00        nop
a4c9: f1        tcall 15
a4ca: 01        tcall 0
a4cb: 02 fe     set0  $fe
a4cd: c1        tcall 12
a4ce: 41        tcall 4
a4cf: b4 1e     sbc   a,$1e+x
a4d1: f1        tcall 15
a4d2: f0 e0     beq   $a4b4
a4d4: e3 f3 00  bbs7  $f3,$a4d6
a4d7: 10 b0     bpl   $a489
a4d9: 31        tcall 3
a4da: 11        tcall 1
a4db: 1f 4e d0  jmp   ($d04e+x)
a4de: 32 eb     clr1  $eb
a4e0: ce        pop   x
a4e1: b4 e3     sbc   a,$e3+x
a4e3: 2e 00 f0  cbne  $00,$a4d5
a4e6: 53 ec 0f  bbc2  $ec,$a4f7
a4e9: ee        pop   y
a4ea: b4 03     sbc   a,$03+x
a4ec: f1        tcall 15
a4ed: 1f 11 f1  jmp   ($f111+x)
a4f0: 25 ee dd  and   a,$ddee
a4f3: a4 be     sbc   a,$be
a4f5: 60        clrc
a4f6: 25 d3 e3  and   a,$e3d3
a4f9: ff        stop
a4fa: 3d        inc   x
a4fb: 10 b4     bpl   $a4b1
a4fd: 00        nop
a4fe: 01        tcall 0
a4ff: dd        mov   a,y
a500: 1f 11 0e  jmp   ($0e11+x)
a503: 34 30     and   a,$30+x
a505: a4 ca     sbc   a,$ca
a507: cc 15 ff  mov   $ff15,y
a50a: fe 3f     dbnz  y,$a54b
a50c: f6 bf a4  mov   a,$a4bf+y
a50f: 6f        ret
a510: 01        tcall 0
a511: 05 1a be  or    a,$be1a
a514: b4 d1     sbc   a,$d1+x
a516: 23 a4 51  bbs1  $a4,$a569
a519: c3 2c 02  bbs6  $2c,$a51d
a51c: 3c        rol   a
a51d: 30 ae     bmi   $a4cd
a51f: 03 a0 ee  bbs0  $a0,$a50f
a522: 0d        push  psw
a523: 3d        inc   x
a524: df        daa   a
a525: 1f ab e3  jmp   ($e3ab+x)
a528: 32 b4     clr1  $b4
a52a: 4f e1     pcall $e1
a52c: ce        pop   x
a52d: e0        clrv
a52e: 4f f2     pcall $f2
a530: 01        tcall 0
a531: 21        tcall 2
a532: b4 20     sbc   a,$20+x
a534: de 0f 01  cbne  $0f+x,$a537
a537: f1        tcall 15
a538: 12 4e     clr0  $4e
a53a: d1        tcall 13
a53b: a4 db     sbc   a,$db
a53d: ad 55     cmp   y,#$55
a53f: 24 03     and   a,$03
a541: ea 01 ef  not1  $1de0,1
a544: b4 10     sbc   a,$10+x
a546: 12 d1     clr0  $d1
a548: 1f ee 11  jmp   ($11ee+x)
a54b: 01        tcall 0
a54c: f1        tcall 15
a54d: b4 e4     sbc   a,$e4+x
a54f: 1d        dec   x
a550: ee        pop   y
a551: 32 1f     clr1  $1f
a553: f3 ff de  bbc7  $ff,$a533
a556: a4 2e     sbc   a,$2e
a558: 05 34 0a  or    a,$0a34
a55b: 1d        dec   x
a55c: 12 21     clr0  $21
a55e: f0 a0     beq   $a500
a560: 55 33 50  eor   a,$5033+x
a563: 11        tcall 1
a564: cf        mul   ya
a565: 22 aa     set1  $aa
a567: dc        dec   y
a568: b4 00     sbc   a,$00+x
a56a: 2f f0     bra   $a55c
a56c: 01        tcall 0
a56d: f1        tcall 15
a56e: 11        tcall 1
a56f: f0 3e     beq   $a5af
a571: a0        ei
a572: f1        tcall 15
a573: 11        tcall 1
a574: 02 f0     set0  $f0
a576: ee        pop   y
a577: dd        mov   a,y
a578: bb ff     inc   $ff+x
a57a: a4 f6     sbc   a,$f6
a57c: 3c        rol   a
a57d: 12 cd     clr0  $cd
a57f: 11        tcall 1
a580: f0 c2     beq   $a544
a582: ce        pop   x
a583: a0        ei
a584: cf        mul   ya
a585: ee        pop   y
a586: 76 16 52  cmp   a,$5216+y
a589: 65 04 fb  cmp   a,$fb04
a58c: b0 42     bcs   $a5d0
a58e: de 2e d1  cbne  $2e+x,$a561
a591: eb ec     mov   y,$ec
a593: f4 0e     mov   a,$0e+x
a595: a0        ei
a596: 14 37     or    a,$37+x
a598: 4b ee     lsr   $ee
a59a: dc        dec   y
a59b: ca f4 31  mov1  $063e,4,c
a59e: a4 22     sbc   a,$22
a5a0: d0 f2     bne   $a594
a5a2: ee        pop   y
a5a3: 0c 21 e0  asl   $e021
a5a6: 5f a0 dd  jmp   $dda0
a5a9: f1        tcall 15
a5aa: 31        tcall 3
a5ab: 02 ed     set0  $ed
a5ad: 2d        push  a
a5ae: a3 60 a0  bbs5  $60,$a550
a5b1: 04 21     or    a,$21
a5b3: 4d        push  x
a5b4: 30 bf     bmi   $a575
a5b6: c0        di
a5b7: db b0     mov   $b0+x,y
a5b9: a0        ei
a5ba: f9 10     mov   x,$10+y
a5bc: 35 64 de  and   a,$de64+x
a5bf: dd        mov   a,y
a5c0: fd        mov   y,a
a5c1: ca a4 e6  mov1  $1cd4,4,c
a5c4: 1e ff 73  cmp   x,$73ff
a5c7: b1        tcall 11
a5c8: 01        tcall 0
a5c9: d3 0c c0  bbc6  $0c,$a58b
a5cc: 01        tcall 0
a5cd: 30 01     bmi   $a5d0
a5cf: 02 0b     set0  $0b
a5d1: 0e f2 ff  tset1 $fff2
a5d4: c4 f1     mov   $f1,a
a5d6: 05 c2 2d  or    a,$2dc2
a5d9: 1f 3e 2f  jmp   ($2f3e+x)
a5dc: df        daa   a
a5dd: b4 c4     sbc   a,$c4+x
a5df: 2d        push  a
a5e0: e2 0d     set7  $0d
a5e2: 14 24     or    a,$24+x
a5e4: 3f 2e b4  call  $b42e
a5e7: c1        tcall 12
a5e8: fd        mov   y,a
a5e9: ff        stop
a5ea: e1        tcall 14
a5eb: 2e 1e f2  cbne  $1e,$a5df
a5ee: 12 a4     clr0  $a4
a5f0: 33 3c 23  bbc1  $3c,$a615
a5f3: db fd     mov   $fd+x,y
a5f5: 1a e5     decw  $e5
a5f7: fe a4     dbnz  y,$a59d
a5f9: 16 31 00  or    a,$0031+y
a5fc: 2d        push  a
a5fd: 10 2b     bpl   $a62a
a5ff: e3 fc a0  bbs7  $fc,$a5a1
a602: cc aa 99  mov   $99aa,y
a605: 22 31     set1  $31
a607: 19        or    (x),(y)
a608: cb d3     mov   $d3,y
a60a: a4 f1     sbc   a,$f1
a60c: ce        pop   x
a60d: 3d        inc   x
a60e: 41        tcall 4
a60f: fe 52     dbnz  y,$a663
a611: c3 d5 b0  bbs6  $d5,$a5c3
a614: 0f        brk
a615: 1f ff ef  jmp   ($efff+x)
a618: e0        clrv
a619: ee        pop   y
a61a: de 20 a4  cbne  $20+x,$a5c0
a61d: 14 9c     or    a,$9c+x
a61f: 24 17     and   a,$17
a621: f1        tcall 15
a622: eb c2     mov   y,$c2
a624: 31        tcall 3
a625: b4 12     sbc   a,$12+x
a627: ee        pop   y
a628: df        daa   a
a629: 02 2d     set0  $2d
a62b: 03 fc 14  bbs0  $fc,$a641
a62e: b4 0e     sbc   a,$0e+x
a630: 24 0e     and   a,$0e
a632: c2 4e     set6  $4e
a634: ff        stop
a635: ff        stop
a636: f1        tcall 15
a637: b0 e0     bcs   $a619
a639: 3e ee     cmp   x,$ee
a63b: 00        nop
a63c: 01        tcall 0
a63d: 34 2e     and   a,$2e+x
a63f: e0        clrv
a640: b4 0f     sbc   a,$0f+x
a642: 03 1d cf  bbs0  $1d,$a613
a645: 45 ee f3  eor   a,$f3ee
a648: de b0 02  cbne  $b0+x,$a64c
a64b: 2f f2     bra   $a63f
a64d: 0b ae     asl   $ae
a64f: 66        cmp   a,(x)
a650: cc 02 b4  mov   $b402,y
a653: 0e 43 ca  tset1 $ca43
a656: 21        tcall 2
a657: c5 f3 ec  mov   $ecf3,a
a65a: 32 b0     clr1  $b0
a65c: ec 35 1d  mov   y,$1d35
a65f: 2f ee     bra   $a64f
a661: cf        mul   ya
a662: 3d        inc   x
a663: e6        mov   a,(x)
a664: b0 5c     bcs   $a6c2
a666: e2 2f     set7  $2f
a668: c1        tcall 12
a669: 32 df     clr1  $df
a66b: ec ee b0  mov   y,$b0ee
a66e: 29 e6 b1  and   ($b1),($e6)
a671: 1e 03 2f  cmp   x,$2f03
a674: 70 0f     bvs   $a685
a676: a4 b3     sbc   a,$b3
a678: c4 02     mov   $02,a
a67a: f9 42     mov   x,$42+y
a67c: 20        clrp
a67d: 1f e3 a4  jmp   ($a4e3+x)
a680: 6d        push  y
a681: f0 c1     beq   $a644
a683: 00        nop
a684: b1        tcall 11
a685: 2d        push  a
a686: 00        nop
a687: 60        clrc
a688: a0        ei
a689: f0 ef     beq   $a67a
a68b: 13 45 01  bbc0  $45,$a68e
a68e: 50 f1     bvc   $a681
a690: eb b0     mov   y,$b0
a692: ee        pop   y
a693: f3 1f 0f  bbc7  $1f,$a6a4
a696: fc        inc   y
a697: cf        mul   ya
a698: f0 21     beq   $a6bb
a69a: a4 e1     sbc   a,$e1
a69c: d2 30     clr6  $30
a69e: 0f        brk
a69f: c1        tcall 12
a6a0: 1f 00 d2  jmp   ($d200+x)
a6a3: 90 ce     bcc   $a673
a6a5: 44 f0     eor   a,$f0
a6a7: 21        tcall 2
a6a8: cd ee     mov   x,#$ee
a6aa: ef        sleep
a6ab: 25 80 1e  and   a,$1e80
a6ae: df        daa   a
a6af: 44 00     eor   a,$00
a6b1: 0e fa cd  tset1 $cdfa
a6b4: bc        inc   a
a6b5: 85 11 d3  adc   a,$d311
a6b8: 22 ef     set1  $ef
a6ba: 1d        dec   x
a6bb: f2 f1     clr7  $f1
a6bd: 00        nop
a6be: 02 00     set0  $00
a6c0: 00        nop
a6c1: 00        nop
a6c2: 00        nop
a6c3: 00        nop
a6c4: 00        nop
a6c5: 00        nop
a6c6: 00        nop
a6c7: c2 03     set6  $03
a6c9: 0a 01 1e  or1   c,$03c0,1
a6cc: ff        stop
a6cd: c2 3f     set6  $3f
a6cf: bf        mov   a,(x)+
a6d0: c2 31     set6  $31
a6d2: c2 1f     set6  $1f
a6d4: b2 f2     clr5  $f2
a6d6: d2 ef     clr6  $ef
a6d8: 03 c2 ad  bbs0  $c2,$a687
a6db: f6 cc 12  mov   a,$12cc+y
a6de: fe e1     dbnz  y,$a6c1
a6e0: d4 0f     mov   $0f+x,a
a6e2: c2 c3     set6  $c3
a6e4: 2f d2     bra   $a6b8
a6e6: 1e c0 0d  cmp   x,$0dc0
a6e9: 0f        brk
a6ea: ff        stop
a6eb: c2 13     set6  $13
a6ed: dd        mov   a,y
a6ee: 21        tcall 2
a6ef: fc        inc   y
a6f0: 00        nop
a6f1: fd        mov   y,a
a6f2: 0e 12 c2  tset1 $c212
a6f5: 2d        push  a
a6f6: f0 3f     beq   $a737
a6f8: e0        clrv
a6f9: f0 00     beq   $a6fb
a6fb: 10 e0     bpl   $a6dd
a6fd: b2 d1     clr5  $d1
a6ff: 00        nop
a700: cd c4     mov   x,#$c4
a702: fd        mov   y,a
a703: b2 d1     clr5  $d1
a705: d1        tcall 13
a706: c2 fe     set6  $fe
a708: 11        tcall 1
a709: df        daa   a
a70a: 21        tcall 2
a70b: fc        inc   y
a70c: 3f ef 1e  call  $1eef
a70f: c2 ff     set6  $ff
a711: 3c        rol   a
a712: f1        tcall 15
a713: 2b 13     rol   $13
a715: 2b e1     rol   $e1
a717: 1d        dec   x
a718: c2 40     set6  $40
a71a: dc        dec   y
a71b: 31        tcall 3
a71c: cd 50     mov   x,#$50
a71e: cf        mul   ya
a71f: 3f d0 c2  call  $c2d0
a722: 1c        asl   a
a723: e3 09 14  bbs7  $09,$a739
a726: 2b f3     rol   $f3
a728: 0d        push  psw
a729: 30 d2     bmi   $a6fd
a72b: f0 20     beq   $a74d
a72d: ef        sleep
a72e: 3e d0     cmp   x,$d0
a730: 2e e0 1e  cbne  $e0,$a750
a733: c2 d0     set6  $d0
a735: 0c 22 dc  asl   $dc22
a738: f3 fc 10  bbc7  $fc,$a74a
a73b: e0        clrv
a73c: c2 f2     set6  $f2
a73e: d0 1f     bne   $a75f
a740: d1        tcall 13
a741: 01        tcall 0
a742: c1        tcall 12
a743: 00        nop
a744: e1        tcall 14
a745: b2 fc     clr5  $fc
a747: f2 ef     clr7  $ef
a749: c7 dd     mov   ($dd+x),a
a74b: f0 1e     beq   $a76b
a74d: 0f        brk
a74e: b2 bf     clr5  $bf
a750: 30 fc     bmi   $a74e
a752: 3d        inc   x
a753: ff        stop
a754: 20        clrp
a755: c0        di
a756: 0e b2 0d  tset1 $0db2
a759: 10 d3     bpl   $a72e
a75b: e0        clrv
a75c: b1        tcall 11
a75d: 1f a1 f1  jmp   ($f1a1+x)
a760: c2 e2     set6  $e2
a762: ff        stop
a763: e2 0e     set7  $0e
a765: f3 ef 02  bbc7  $ef,$a769
a768: eb c2     mov   y,$c2
a76a: 10 e0     bpl   $a74c
a76c: 31        tcall 3
a76d: ef        sleep
a76e: 3d        inc   x
a76f: d0 4e     bne   $a7bf
a771: f1        tcall 15
a772: c2 2c     set6  $2c
a774: 02 1a     set0  $1a
a776: 12 fc     clr0  $fc
a778: 12 dd     clr0  $dd
a77a: 41        tcall 4
a77b: c2 df     set6  $df
a77d: 30 c1     bmi   $a740
a77f: 3d        inc   x
a780: c3 2c c3  bbs6  $2c,$a745
a783: 1e c6 24  cmp   x,$24c6
a786: bd        mov   sp,x
a787: 52 b0     clr2  $b0
a789: 50 a0     bvc   $a72b
a78b: 6d        push  y
a78c: d2 c2     clr6  $c2
a78e: 3e e0     cmp   x,$e0
a790: 3c        rol   a
a791: 02 4c     set0  $4c
a793: 00        nop
a794: 1d        dec   x
a795: 21        tcall 2
a796: b2 19     clr5  $19
a798: 50 de     bvc   $a778
a79a: 32 df     clr1  $df
a79c: 2f c0     bra   $a75e
a79e: f0 b2     beq   $a752
a7a0: b3 cf c1  bbc5  $cf,$a763
a7a3: d0 d5     bne   $a77a
a7a5: c3 ff e1  bbs6  $ff,$a788
a7a8: b2 2d     clr5  $2d
a7aa: c1        tcall 12
a7ab: f1        tcall 15
a7ac: fc        inc   y
a7ad: e0        clrv
a7ae: 4b d3     lsr   $d3
a7b0: 1e c2 f1  cmp   x,$f1c2
a7b3: ff        stop
a7b4: 31        tcall 3
a7b5: ee        pop   y
a7b6: 33 d0 13  bbc1  $d0,$a7cb
a7b9: df        daa   a
a7ba: c2 1f     set6  $1f
a7bc: c4 00     mov   $00,a
a7be: a4 2e     sbc   a,$2e
a7c0: c3 ff d4  bbs6  $ff,$a796
a7c3: c2 de     set6  $de
a7c5: 14 de     or    a,$de+x
a7c7: 14 bf     or    a,$bf+x
a7c9: 31        tcall 3
a7ca: e0        clrv
a7cb: 2d        push  a
a7cc: c2 d1     set6  $d1
a7ce: 5c        lsr   a
a7cf: d1        tcall 13
a7d0: 2c 00 4b  rol   $4b00
a7d3: 20        clrp
a7d4: ec c2 21  mov   y,$21c2
a7d7: 0b 40     asl   $40
a7d9: ee        pop   y
a7da: 1f c0 3e  jmp   ($3ec0+x)
a7dd: d1        tcall 13
a7de: c2 1f     set6  $1f
a7e0: c2 0f     set6  $0f
a7e2: e1        tcall 14
a7e3: ed        notc
a7e4: f1        tcall 15
a7e5: ee        pop   y
a7e6: 13 c2 fe  bbc0  $c2,$a7e6
a7e9: 12 0f     clr0  $0f
a7eb: 10 e0     bpl   $a7cd
a7ed: 2d        push  a
a7ee: ff        stop
a7ef: 6d        push  y
a7f0: c2 e0     set6  $e0
a7f2: 3f f0 ff  call  $fff0
a7f5: e3 bf 04  bbs7  $bf,$a7fb
a7f8: dc        dec   y
a7f9: c2 02     set6  $02
a7fb: fe f0     dbnz  y,$a7ed
a7fd: 03 ff a3  bbs0  $ff,$a7a2
a800: f1        tcall 15
a801: a2 b2     set5  $b2
a803: e6        mov   a,(x)
a804: bf        mov   a,(x)+
a805: de 3e fc  cbne  $3e+x,$a803
a808: 12 0c     clr0  $0c
a80a: d0 c2     bne   $a7ce
a80c: 00        nop
a80d: e0        clrv
a80e: 0e 0d 2c  tset1 $2c0d
a811: 3e 2b     cmp   x,$2b
a813: 1e b2 0a  cmp   x,$0ab2
a816: 22 bd     set1  $bd
a818: 23 dd 3d  bbs1  $dd,$a857
a81b: fd        mov   y,a
a81c: 79        cmp   (x),(y)
a81d: c2 f1     set6  $f1
a81f: 3e d3     cmp   x,$d3
a821: 00        nop
a822: d3 d0 03  bbc6  $d0,$a827
a825: db c2     mov   $c2+x,y
a827: 30 0b     bmi   $a834
a829: 4f fe     pcall $fe
a82b: 3d        inc   x
a82c: c0        di
a82d: 2e c1 c2  cbne  $c1,$a7f1
a830: 1d        dec   x
a831: 01        tcall 0
a832: 3b 20     rol   $20+x
a834: 1a 10     decw  $10
a836: ff        stop
a837: 11        tcall 1
a838: c2 c1     set6  $c1
a83a: 11        tcall 1
a83b: a2 22     set5  $22
a83d: d0 1e     bne   $a85d
a83f: 02 fe     set0  $fe
a841: c2 e5     set6  $e5
a843: ed        notc
a844: d4 f1     mov   $f1+x,a
a846: c0        di
a847: c1        tcall 12
a848: 2f ee     bra   $a838
a84a: c2 4f     set6  $4f
a84c: ed        notc
a84d: 11        tcall 1
a84e: f0 f0     beq   $a840
a850: 01        tcall 0
a851: 0e 01 b2  tset1 $b201
a854: 4a fd 5b  and1  c,$0b7f,5
a857: 1d        dec   x
a858: f0 e4     beq   $a83e
a85a: b0 04     bcs   $a860
a85c: b2 cd     clr5  $cd
a85e: e4 dc     mov   a,$dc
a860: 11        tcall 1
a861: 1e 22 c3  cmp   x,$c322
a864: f3 c2 c2  bbc7  $c2,$a828
a867: 00        nop
a868: c0        di
a869: 1f 00 1d  jmp   ($1d00+x)
a86c: 21        tcall 2
a86d: 0b c2     asl   $c2
a86f: 31        tcall 3
a870: e0        clrv
a871: 40        setp
a872: cc 20 0f  mov   $0f20,y
a875: 1d        dec   x
a876: ef        sleep
a877: c2 5c     set6  $5c
a879: ee        pop   y
a87a: 30 e2     bmi   $a85e
a87c: ef        sleep
a87d: f5 de d4  mov   a,$d4de+x
a880: b2 0f     clr5  $0f
a882: d1        tcall 13
a883: c0        di
a884: 40        setp
a885: cb 45     mov   $45,y
a887: d0 b2     bne   $a83b
a889: b2 c3     clr5  $c3
a88b: 0b b1     asl   $b1
a88d: 6d        push  y
a88e: 0a 49 5f  or1   c,$0be9,1
a891: 3b c6     rol   $c6+x
a893: 12 f0     clr0  $f0
a895: 02 c0     set0  $c0
a897: 32 ec     clr1  $ec
a899: 40        setp
a89a: ef        sleep
a89b: c2 00     set6  $00
a89d: e1        tcall 14
a89e: 01        tcall 0
a89f: a2 11     set5  $11
a8a1: df        daa   a
a8a2: 1f 11 c2  jmp   ($c211+x)
a8a5: 0a 01 2d  or1   c,$05a0,1
a8a8: d0 ef     bne   $a899
a8aa: 11        tcall 1
a8ab: cd 12     mov   x,#$12
a8ad: b2 1e     clr5  $1e
a8af: 4a de 7e  and1  c,$0fdb,6
a8b2: bf        mov   a,(x)+
a8b3: 2f e2     bra   $a897
a8b5: dc        dec   y
a8b6: c6        mov   (x),a
a8b7: 13 ed 30  bbc0  $ed,$a8e9
a8ba: 0f        brk
a8bb: 01        tcall 0
a8bc: e3 1e c4  bbs7  $1e,$a882
a8bf: b2 27     clr5  $27
a8c1: b0 ee     bcs   $a8b1
a8c3: 04 1d     or    a,$1d
a8c5: d0 3f     bne   $a906
a8c7: 3f b2 cb  call  $cbb2
a8ca: 23 4d ff  bbs1  $4d,$a8cb
a8cd: 02 1e     set0  $1e
a8cf: de 41 b2  cbne  $41+x,$a883
a8d2: de 12 1b  cbne  $12+x,$a8ef
a8d5: fe 24     dbnz  y,$a8fb
a8d7: 0d        push  psw
a8d8: b1        tcall 11
a8d9: 34 b2     and   a,$b2+x
a8db: a1        tcall 10
a8dc: b3 e5 ed  bbc5  $e5,$a8cb
a8df: b3 11 0e  bbc5  $11,$a8ef
a8e2: ce        pop   x
a8e3: c2 f3     set6  $f3
a8e5: de e1 f0  cbne  $e1+x,$a8d7
a8e8: 0f        brk
a8e9: e0        clrv
a8ea: 3e fd     cmp   x,$fd
a8ec: b2 5e     clr5  $5e
a8ee: 00        nop
a8ef: fe 05     dbnz  y,$a8f6
a8f1: 0d        push  psw
a8f2: c2 4e     set6  $4e
a8f4: 1c        asl   a
a8f5: b2 fd     clr5  $fd
a8f7: 51        tcall 5
a8f8: ea 23 f1  not1  $1e24,3
a8fb: d1        tcall 13
a8fc: b3 1d b2  bbc5  $1d,$a8b0
a8ff: de 4f fe  cbne  $4f+x,$a8ff
a902: 1d        dec   x
a903: 11        tcall 1
a904: fe d3     dbnz  y,$a8d9
a906: ff        stop
a907: c2 ff     set6  $ff
a909: fe 2f     dbnz  y,$a93a
a90b: 0c 2f 1e  asl   $1e2f
a90e: ff        stop
a90f: 01        tcall 0
a910: b2 1e     clr5  $1e
a912: c0        di
a913: 2f fd     bra   $a912
a915: 2b 2f     rol   $2f
a917: 3c        rol   a
a918: f1        tcall 15
a919: b2 00     clr5  $00
a91b: e5 c0 f7  mov   a,$f7c0
a91e: ec d1 ff  mov   y,$ffd1
a921: 1e c2 e1  cmp   x,$e1c2
a924: 32 c0     clr1  $c0
a926: 02 e1     set0  $e1
a928: ff        stop
a929: 03 1c b2  bbs0  $1c,$a8dd
a92c: e3 4b f1  bbs7  $4b,$a91f
a92f: ed        notc
a930: 13 dd 22  bbc0  $dd,$a954
a933: ef        sleep
a934: b2 30     clr5  $30
a936: cf        mul   ya
a937: 3f d1 30  call  $30d1
a93a: c2 0e     set6  $0e
a93c: e4 b2     mov   a,$b2
a93e: 0d        push  psw
a93f: c3 0e e1  bbs6  $0e,$a922
a942: fd        mov   y,a
a943: 13 ec f2  bbc0  $ec,$a937
a946: b2 fe     clr5  $fe
a948: 01        tcall 0
a949: b0 11     bcs   $a95c
a94b: bf        mov   a,(x)+
a94c: 41        tcall 4
a94d: bd        mov   sp,x
a94e: 10 c2     bpl   $a912
a950: 00        nop
a951: 1e e2 2f  cmp   x,$2fe2
a954: d1        tcall 13
a955: 1f e3 1b  jmp   ($1be3+x)
a958: c2 03     set6  $03
a95a: 09 f0 1e  or    ($1e),($f0)
a95d: ff        stop
a95e: c2 3f     set6  $3f
a960: bf        mov   a,(x)+
a961: c2 31     set6  $31
a963: c2 1f     set6  $1f
a965: b2 f2     clr5  $f2
a967: d2 ef     clr6  $ef
a969: 03 c3 ad  bbs0  $c3,$a918
a96c: f6 cc 12  mov   a,$12cc+y
a96f: fe e1     dbnz  y,$a952
a971: d4 0f     mov   $0f+x,a
a973: 02 00     set0  $00
a975: 00        nop
a976: 00        nop
a977: 00        nop
a978: 00        nop
a979: 00        nop
a97a: 00        nop
a97b: 00        nop
a97c: 9a ff     subw  ya,$ff
a97e: ab be     inc   $be
a980: f2 34     clr7  $34
a982: 23 1f ec  bbs1  $1f,$a970
a985: aa dd f0  mov1  c,$1e1b,5
a988: 02 44     set0  $44
a98a: 20        clrp
a98b: fe dc     dbnz  y,$a969
a98d: df        daa   a
a98e: 9a 03     subw  ya,$03
a990: 47 53     eor   a,($53+x)
a992: 0d        push  psw
a993: dc        dec   y
a994: dd        mov   a,y
a995: f0 36     beq   $a9cd
a997: aa 33 20  mov1  c,$0406,3
a99a: ed        notc
a99b: dd        mov   a,y
a99c: df        daa   a
a99d: 24 33     and   a,$33
a99f: 21        tcall 2
a9a0: 9a 0e     subw  ya,$0e
a9a2: bb be     inc   $be+x
a9a4: f2 34     clr7  $34
a9a6: 23 10 dc  bbs1  $10,$a984
a9a9: ab de     inc   $de
a9ab: ef        sleep
a9ac: 13 33 31  bbc0  $33,$a9df
a9af: ee        pop   y
a9b0: dc        dec   y
a9b1: df        daa   a
a9b2: 00        nop
a9b3: 00        nop
a9b4: 00        nop
a9b5: 00        nop
a9b6: 00        nop
a9b7: 00        nop
a9b8: 00        nop
a9b9: 00        nop
a9ba: 00        nop
a9bb: a4 bf     sbc   a,$bf
a9bd: 10 d0     bpl   $a98f
a9bf: 10 d4     bpl   $a995
a9c1: fe 10     dbnz  y,$a9d3
a9c3: f2 a4     clr7  $a4
a9c5: 1c        asl   a
a9c6: 5b 11     lsr   $11+x
a9c8: 21        tcall 2
a9c9: 04 3f     or    a,$3f
a9cb: d6 bf a4  mov   $a4bf+y,a
a9ce: 4c 2f 0e  lsr   $0e2f
a9d1: 4d        push  x
a9d2: d0 0e     bne   $a9e2
a9d4: e1        tcall 14
a9d5: fe a4     dbnz  y,$a97b
a9d7: 20        clrp
a9d8: f1        tcall 15
a9d9: 0f        brk
a9da: 3d        inc   x
a9db: f0 10     beq   $a9ed
a9dd: 05 12 a4  or    a,$a412
a9e0: 4f 21     pcall $21
a9e2: fe 3e     dbnz  y,$aa22
a9e4: f1        tcall 15
a9e5: 0f        brk
a9e6: 0f        brk
a9e7: df        daa   a
a9e8: 94 ec     adc   a,$ec+x
a9ea: b1        tcall 11
a9eb: cc 30 c1  mov   $c130,y
a9ee: 1d        dec   x
a9ef: 2e 2b a4  cbne  $2b,$a995
a9f2: 4f 34     pcall $34
a9f4: 22 5e     set1  $5e
a9f6: 30 00     bmi   $a9f8
a9f8: 2e 11 98  cbne  $11,$a992
a9fb: c3 ec 30  bbs6  $ec,$aa2d
a9fe: 1c        asl   a
a9ff: 23 b2 4b  bbs1  $b2,$aa4c
aa02: d5 a4 fe  mov   $fea4+x,a
aa05: 11        tcall 1
aa06: c3 11 64  bbs6  $11,$aa6c
aa09: 34 f5     and   a,$f5+x
aa0b: 01        tcall 0
aa0c: 98 e5 a7  adc   $a7,#$e5
aa0f: 1b 3f     asl   $3f+x
aa11: b3 01 d2  bbc5  $01,$a9e5
aa14: 1c        asl   a
aa15: a8 13     sbc   a,#$13
aa17: de 2d 20  cbne  $2d+x,$aa39
aa1a: f0 11     beq   $aa2d
aa1c: 2d        push  a
aa1d: 5e a4 20  cmp   y,$20a4
aa20: 41        tcall 4
aa21: f4 f1     mov   a,$f1+x
aa23: 12 1e     clr0  $1e
aa25: eb e0     mov   y,$e0
aa27: a8 de     sbc   a,#$de
aa29: 30 e2     bmi   $aa0d
aa2b: 2c e1 1f  rol   $1fe1
aa2e: 1f e3 b8  jmp   ($b8e3+x)
aa31: 2e 3e e0  cbne  $3e,$aa13
aa34: 3f 0f 10  call  $100f
aa37: 01        tcall 0
aa38: 00        nop
aa39: a8 ed     sbc   a,#$ed
aa3b: 13 0d 20  bbc0  $0d,$aa5d
aa3e: e1        tcall 14
aa3f: 3d        inc   x
aa40: d1        tcall 13
aa41: 1e a8 4e  cmp   x,$4ea8
aa44: d6 d0 7b  mov   $7bd0+y,a
aa47: fd        mov   y,a
aa48: 40        setp
aa49: 0f        brk
aa4a: 2e a4 f2  cbne  $a4,$aa3e
aa4d: 21        tcall 2
aa4e: 0b c0     asl   $c0
aa50: ec de cc  mov   y,$ccde
aa53: 3e a8     cmp   x,$a8
aa55: e0        clrv
aa56: f2 2d     clr7  $2d
aa58: 03 e2 4d  bbs0  $e2,$aaa7
aa5b: ef        sleep
aa5c: 11        tcall 1
aa5d: 98 1c 5c  adc   $5c,#$1c
aa60: 24 1f     and   a,$1f
aa62: bc        inc   a
aa63: 35 ee 1f  and   a,$1fee+x
aa66: a8 e4     sbc   a,#$e4
aa68: e0        clrv
aa69: 0b 32     asl   $32
aa6b: f0 0f     beq   $aa7c
aa6d: 24 ef     and   a,$ef
aa6f: a8 fe     sbc   a,#$fe
aa71: 3e 30     cmp   x,$30
aa73: d2 01     clr6  $01
aa75: 00        nop
aa76: ef        sleep
aa77: 20        clrp
aa78: 98 0f fc  adc   $fc,#$0f
aa7b: 6d        push  y
aa7c: 3e b1     cmp   x,$b1
aa7e: f4 10     mov   a,$10+x
aa80: d3 98 43  bbc6  $98,$aac5
aa83: ee        pop   y
aa84: a6        sbc   a,(x)
aa85: a3 6c 0f  bbs5  $6c,$aa96
aa88: 22 0c     set1  $0c
aa8a: 98 d3 e3  adc   $e3,#$d3
aa8d: 01        tcall 0
aa8e: a0        ei
aa8f: 30 1a     bmi   $aaab
aa91: 3d        inc   x
aa92: 14 a8     or    a,$a8+x
aa94: 0f        brk
aa95: 12 2e     clr0  $2e
aa97: 1c        asl   a
aa98: 2e 04 fe  cbne  $04,$aa98
aa9b: 2f a4     bra   $aa41
aa9d: 1f ec dc  jmp   ($dcec+x)
aaa0: dd        mov   a,y
aaa1: cf        mul   ya
aaa2: db 2e     mov   $2e+x,y
aaa4: c1        tcall 12
aaa5: b4 ff     sbc   a,$ff+x
aaa7: 21        tcall 2
aaa8: 12 42     clr0  $42
aaaa: 42 f3     set2  $f3
aaac: f2 1f     clr7  $1f
aaae: a8 4e     sbc   a,#$4e
aab0: 3e 1d     cmp   x,$1d
aab2: 02 d0     set0  $d0
aab4: f3 ef 4d  bbc7  $ef,$ab03
aab7: a8 d4     sbc   a,#$d4
aab9: ee        pop   y
aaba: 3e 10     cmp   x,$10
aabc: 21        tcall 2
aabd: 10 e5     bpl   $aaa4
aabf: be        das   a
aac0: a8 3f     sbc   a,#$3f
aac2: 11        tcall 1
aac3: 01        tcall 0
aac4: 00        nop
aac5: 01        tcall 0
aac6: 1d        dec   x
aac7: b1        tcall 11
aac8: 1d        dec   x
aac9: a8 34     sbc   a,#$34
aacb: ef        sleep
aacc: 0f        brk
aacd: f0 0e     beq   $aadd
aacf: 00        nop
aad0: ff        stop
aad1: 43 a8 11  bbs2  $a8,$aae4
aad4: 2b d1     rol   $d1
aad6: 11        tcall 1
aad7: 01        tcall 0
aad8: 11        tcall 1
aad9: 11        tcall 1
aada: 01        tcall 0
aadb: a8 dc     sbc   a,#$dc
aadd: a5 d3 40  sbc   a,$40d3
aae0: 0f        brk
aae1: ff        stop
aae2: ff        stop
aae3: ff        stop
aae4: a8 0f     sbc   a,#$0f
aae6: f1        tcall 15
aae7: 72 e4     clr3  $e4
aae9: e9 11 00  mov   x,$0011
aaec: 21        tcall 2
aaed: b8 00 11  sbc   $11,#$00
aaf0: 00        nop
aaf1: c1        tcall 12
aaf2: ee        pop   y
aaf3: 30 3f     bmi   $ab34
aaf5: 0f        brk
aaf6: a8 ff     sbc   a,#$ff
aaf8: 0f        brk
aaf9: ff        stop
aafa: f0 f4     beq   $aaf0
aafc: 33 02 cb  bbc1  $02,$aac9
aaff: b8 10 00  sbc   $00,#$10
ab02: 11        tcall 1
ab03: 00        nop
ab04: 11        tcall 1
ab05: 00        nop
ab06: ce        pop   x
ab07: 11        tcall 1
ab08: a8 c6     sbc   a,#$c6
ab0a: 3f ff ff  call  $ffff
ab0d: f0 ff     beq   $ab0e
ab0f: f0 f3     beq   $ab04
ab11: a8 60     sbc   a,#$60
ab13: 12 bb     clr0  $bb
ab15: 21        tcall 2
ab16: 01        tcall 0
ab17: 11        tcall 1
ab18: 11        tcall 1
ab19: 01        tcall 0
ab1a: a8 1e     sbc   a,#$1e
ab1c: ea 11 f1  not1  $1e22,1
ab1f: 5f f0 ff  jmp   $fff0
ab22: ff        stop
ab23: a8 ff     sbc   a,#$ff
ab25: 0f        brk
ab26: f6 31 01  mov   a,$0131+y
ab29: ea 11 11  not1  $0222,1
ab2c: b4 11     sbc   a,$11+x
ab2e: 11        tcall 1
ab2f: 11        tcall 1
ab30: 00        nop
ab31: bd        mov   sp,x
ab32: bb bd     inc   $bd+x
ab34: ff        stop
ab35: b8 00 ff  sbc   $ff,#$00
ab38: 00        nop
ab39: ff        stop
ab3a: 00        nop
ab3b: 04 00     or    a,$00
ab3d: 01        tcall 0
ab3e: a8 cd     sbc   a,#$cd
ab40: 10 11     bpl   $ab53
ab42: 10 11     bpl   $ab55
ab44: 11        tcall 1
ab45: 1a ff     decw  $ff
ab47: a8 f0     sbc   a,#$f0
ab49: f2 5e     clr7  $5e
ab4b: ff        stop
ab4c: 0f        brk
ab4d: ff        stop
ab4e: 0f        brk
ab4f: ff        stop
ab50: b8 4f 1f  sbc   $1f,#$4f
ab53: 20        clrp
ab54: ef        sleep
ab55: 01        tcall 0
ab56: 01        tcall 0
ab57: 00        nop
ab58: 01        tcall 0
ab59: a8 2f     sbc   a,#$2f
ab5b: ed        notc
ab5c: 1d        dec   x
ab5d: 02 ff     set0  $ff
ab5f: 40        setp
ab60: ff        stop
ab61: ff        stop
ab62: a8 f0     sbc   a,#$f0
ab64: 0e 6e 2f  tset1 $2f6e
ab67: 2e 4d 0e  cbne  $4d,$ab77
ab6a: 11        tcall 1
ab6b: 98 11 22  adc   $22,#$11
ab6e: 2a 4a 03  or1   c,!($0069,2)
ab71: a1        tcall 10
ab72: 69 3d a8  cmp   ($a8),($3d)
ab75: 2e 1f 0f  cbne  $1f,$ab86
ab78: 3d        inc   x
ab79: 3f 0f 59  call  $590f
ab7c: 41        tcall 4
ab7d: a4 50     sbc   a,$50
ab7f: 60        clrc
ab80: 04 e0     or    a,$e0
ab82: ff        stop
ab83: ff        stop
ab84: cd dd     mov   x,#$dd
ab86: 98 e0 03  adc   $03,#$e0
ab89: ed        notc
ab8a: 11        tcall 1
ab8b: f3 2a 40  bbc7  $2a,$abcd
ab8e: 1e a4 34  cmp   x,$34a4
ab91: 23 50 f5  bbs1  $50,$ab88
ab94: a5 b0 c2  sbc   a,$c2b0
ab97: dd        mov   a,y
ab98: a4 fe     sbc   a,$fe
ab9a: ed        notc
ab9b: 0a fe 0f  or1   c,$01ff,6
ab9e: f2 f0     clr7  $f0
aba0: 14 a4     or    a,$a4+x
aba2: 24 13     and   a,$13
aba4: 33 24 4f  bbc1  $24,$abf5
aba7: 30 1e     bmi   $abc7
aba9: 0f        brk
abaa: a4 c2     sbc   a,$c2
abac: ee        pop   y
abad: ef        sleep
abae: bf        mov   a,(x)+
abaf: dc        dec   y
abb0: fd        mov   y,a
abb1: fd        mov   y,a
abb2: fe 98     dbnz  y,$ab4c
abb4: 3c        rol   a
abb5: 11        tcall 1
abb6: f1        tcall 15
abb7: 0e 10 2e  tset1 $2e10
abba: 4b 7b     lsr   $7b
abbc: 98 4e 10  adc   $10,#$4e
abbf: 22 e3     set1  $e3
abc1: e0        clrv
abc2: 2e 00 1f  cbne  $00,$abe3
abc5: 98 10 d0  adc   $d0,#$10
abc8: 0f        brk
abc9: 1e 1c 6a  cmp   x,$6a1c
abcc: 3c        rol   a
abcd: 12 98     clr0  $98
abcf: d6 a1 5d  mov   $5da1+y,a
abd2: f2 f1     clr7  $f1
abd4: 10 d7     bpl   $abad
abd6: c3 98 c3  bbs6  $98,$ab9b
abd9: f0 2c     beq   $ac07
abdb: 4d        push  x
abdc: 4b 3c     lsr   $3c
abde: 3f 1e 98  call  $981e
abe1: d6 c2 fe  mov   $fec2+y,a
abe4: 5b 4c     lsr   $4c+x
abe6: 3e 20     cmp   x,$20
abe8: 00        nop
abe9: 98 02 0f  adc   $0f,#$02
abec: 02 d0     set0  $d0
abee: 4e 0f 1f  tclr1 $1f0f
abf1: 01        tcall 0
abf2: 98 c5 a5  adc   $a5,#$c5
abf5: c4 b5     mov   $b5,a
abf7: de f4 d3  cbne  $f4+x,$abcc
abfa: e1        tcall 14
abfb: 98 e3 f0  adc   $f0,#$e3
abfe: 13 a6 ed  bbc0  $a6,$abed
ac01: 40        setp
ac02: e3 f0 98  bbs7  $f0,$ab9c
ac05: 00        nop
ac06: d3 fe 21  bbc6  $fe,$ac29
ac09: d0 2b     bne   $ac36
ac0b: 22 c1     set1  $c1
ac0d: 88 2e     adc   a,#$2e
ac0f: ff        stop
ac10: 1e 4b 7a  cmp   x,$7a4b
ac13: 31        tcall 3
ac14: 0f        brk
ac15: 22 94     set1  $94
ac17: 33 5f 6e  bbc1  $5f,$ac87
ac1a: 1e ff b1  cmp   x,$b1ff
ac1d: ad ea     cmp   y,#$ea
ac1f: 88 4d     adc   a,#$4d
ac21: 2b 11     rol   $11
ac23: f3 ad 15  bbc7  $ad,$ac3a
ac26: a3 2c 94  bbs5  $2c,$abbc
ac29: 45 42 44  eor   a,$4442
ac2c: 42 53     set2  $53
ac2e: 51        tcall 5
ac2f: 33 e3 94  bbc1  $e3,$abc5
ac32: 0f        brk
ac33: fd        mov   y,a
ac34: fd        mov   y,a
ac35: dc        dec   y
ac36: eb de     mov   y,$de
ac38: a0        ei
ac39: af        mov   (x)+,a
ac3a: 94 de     adc   a,$de+x
ac3c: 0f        brk
ac3d: 1e 32 03  cmp   x,$0332
ac40: 24 23     and   a,$23
ac42: 34 94     and   a,$94+x
ac44: 32 41     clr1  $41
ac46: 31        tcall 3
ac47: 10 00     bpl   $ac49
ac49: 1b 1f     asl   $1f+x
ac4b: ed        notc
ac4c: 98 f4 d1  adc   $d1,#$f4
ac4f: 0c 4e 3e  asl   $3e4e
ac52: e3 ff 1e  bbs7  $ff,$ac72
ac55: 88 5f     adc   a,#$5f
ac57: 1d        dec   x
ac58: 3e 06     cmp   x,$06
ac5a: 94 f1     adc   a,$f1+x
ac5c: d2 3b     clr6  $3b
ac5e: 94 f1     adc   a,$f1+x
ac60: e0        clrv
ac61: c1        tcall 12
ac62: de ee ef  cbne  $ee+x,$ac53
ac65: f0 e0     beq   $ac47
ac67: 98 e3 d1  adc   $d1,#$e3
ac6a: 01        tcall 0
ac6b: f2 e2     clr7  $e2
ac6d: f3 c2 e4  bbc7  $c2,$ac53
ac70: 98 d3 e0  adc   $e0,#$d3
ac73: 2f 0f     bra   $ac84
ac75: 12 d2     clr0  $d2
ac77: c4 e0     mov   $e0,a
ac79: 98 01 0c  adc   $0c,#$01
ac7c: 31        tcall 3
ac7d: d2 f0     clr6  $f0
ac7f: f3 fe 20  bbc7  $fe,$aca1
ac82: 88 1a     adc   a,#$1a
ac84: 40        setp
ac85: 31        tcall 3
ac86: c3 e2 10  bbs6  $e2,$ac98
ac89: f1        tcall 15
ac8a: e4 94     mov   a,$94
ac8c: 0e fd 0c  tset1 $0cfd
ac8f: 1c        asl   a
ac90: ff        stop
ac91: fe de     dbnz  y,$ac71
ac93: 01        tcall 0
ac94: 94 1f     adc   a,$1f+x
ac96: 0e 2f 3e  tset1 $3e2f
ac99: 41        tcall 4
ac9a: 20        clrp
ac9b: 00        nop
ac9c: 21        tcall 2
ac9d: 74 7f     cmp   a,$7f+x
ac9f: 22 3f     set1  $3f
aca1: 0e fe ec  tset1 $ecfe
aca4: 2e eb 68  cbne  $eb,$ad0e
aca7: 41        tcall 4
aca8: 20        clrp
aca9: fb 6d     mov   y,$6d+x
acab: 2c 5a 6e  rol   $6e5a
acae: f2 65     clr7  $65
acb0: 20        clrp
acb1: 24 00     and   a,$00
acb3: 41        tcall 4
acb4: 1f 0f 20  jmp   ($200f+x)
acb7: ff        stop
acb8: 00        nop
acb9: 00        nop
acba: 00        nop
acbb: 00        nop
acbc: 00        nop
acbd: 00        nop
acbe: 00        nop
acbf: 00        nop
acc0: 00        nop
acc1: 90 0f     bcc   $acd2
acc3: 1e 3e e1  cmp   x,$e13e
acc6: fe 4f     dbnz  y,$ad17
acc8: 03 e0 90  bbs0  $e0,$ac5a
accb: 02 df     set0  $df
accd: 6d        push  y
acce: b4 02     sbc   a,$02+x
acd0: fe 20     dbnz  y,$acf2
acd2: 0d        push  psw
acd3: a0        ei
acd4: 12 f2     clr0  $f2
acd6: 3e fe     cmp   x,$fe
acd8: 41        tcall 4
acd9: e0        clrv
acda: f2 ee     clr7  $ee
acdc: a0        ei
acdd: 21        tcall 2
acde: 01        tcall 0
acdf: e2 e1     set7  $e1
ace1: 4f e2     pcall $e2
ace3: 01        tcall 0
ace4: c0        di
ace5: a0        ei
ace6: 21        tcall 2
ace7: 2e 02 f1  cbne  $02,$acda
acea: 21        tcall 2
aceb: 0c 23 0d  asl   $0d23
acee: b0 f3     bcs   $ace3
acf0: 2e d1 50  cbne  $d1,$ad42
acf3: e2 3f     set7  $3f
acf5: e1        tcall 14
acf6: 3f b0 de  call  $deb0
acf9: 52 be     clr2  $be
acfb: 53 ce 32  bbc2  $ce,$ad2f
acfe: eb 06     mov   y,$06
ad00: b0 fc     bcs   $acfe
ad02: 14 dc     or    a,$dc+x
ad04: 35 0b b5  and   a,$b50b+x
ad07: 3b d6     rol   $d6+x
ad09: b0 3b     bcs   $ad46
ad0b: e3 2f b1  bbs7  $2f,$acbe
ad0e: 6d        push  y
ad0f: a2 6c     set5  $6c
ad11: c3 b0 51  bbs6  $b0,$ad64
ad14: cc 73 ce  mov   $ce73,y
ad17: 4f b0     pcall $b0
ad19: 21        tcall 2
ad1a: 0b b0     asl   $b0
ad1c: 23 ef 21  bbs1  $ef,$ad3f
ad1f: c0        di
ad20: 12 2d     clr0  $2d
ad22: e3 01 a0  bbs7  $01,$acc4
ad25: 30 c0     bmi   $ace7
ad27: f2 3e     clr7  $3e
ad29: b4 01     sbc   a,$01+x
ad2b: 0e 03 b0  tset1 $b003
ad2e: e1        tcall 14
ad2f: 31        tcall 3
ad30: b2 22     clr5  $22
ad32: ed        notc
ad33: 03 ef 41  bbs0  $ef,$ad76
ad36: c4 c4     mov   $c4,a
ad38: 20        clrp
ad39: c0        di
ad3a: 22 d0     set1  $d0
ad3c: 3d        inc   x
ad3d: e1        tcall 14
ad3e: 21        tcall 2
ad3f: c0        di
ad40: ec 01 ff  mov   y,$ff01
ad43: 1f 0f 02  jmp   ($020f+x)
ad46: 0d        push  psw
ad47: 02 b4     set0  $b4
ad49: c0        di
ad4a: 20        clrp
ad4b: ce        pop   x
ad4c: 63 bb 55  bbs3  $bb,$ada3
ad4f: a1        tcall 10
ad50: 3e b0     cmp   x,$b0
ad52: cf        mul   ya
ad53: 53 ce 12  bbc2  $ce,$ad67
ad56: 1e f0 d1  cmp   x,$d1f0
ad59: 5e b0 b1  cmp   y,$b1b0
ad5c: 3f b0 1c  call  $1cb0
ad5f: 34 ed     and   a,$ed+x
ad61: 15 bb c0  or    a,$c0bb+x
ad64: 31        tcall 3
ad65: f3 1f f2  bbc7  $1f,$ad59
ad68: 0c 03 e1  asl   $e103
ad6b: 2f c0     bra   $ad2d
ad6d: e1        tcall 14
ad6e: 3e d4     cmp   x,$d4
ad70: 2f 22     bra   $ad94
ad72: 0e 23 cf  tset1 $cf23
ad75: c0        di
ad76: 40        setp
ad77: 02 1f     set0  $1f
ad79: f4 fc     mov   a,$fc+x
ad7b: 22 01     set1  $01
ad7d: 1f c0 e3  jmp   ($e3c0+x)
ad80: 2d        push  a
ad81: e2 11     set7  $11
ad83: 20        clrp
ad84: d0 3f     bne   $adc5
ad86: d1        tcall 13
ad87: c0        di
ad88: 30 13     bmi   $ad9d
ad8a: ee        pop   y
ad8b: 41        tcall 4
ad8c: ce        pop   x
ad8d: 22 04     set1  $04
ad8f: 0c b0 16  asl   $16b0
ad92: cb 14     mov   $14,y
ad94: e5 3c f4  mov   a,$f43c
ad97: fa f2 c0  mov   ($c0),($f2)
ad9a: 01        tcall 0
ad9b: 30 cf     bmi   $ad6c
ad9d: 2f f1     bra   $ad90
ad9f: 10 13     bpl   $adb4
ada1: bc        inc   a
ada2: c0        di
ada3: 20        clrp
ada4: 10 01     bpl   $ada7
ada6: 05 fc ee  or    a,$eefc
ada9: 21        tcall 2
adaa: f0 c0     beq   $ad6c
adac: 03 02 3c  bbs0  $02,$adea
adaf: 11        tcall 1
adb0: 1f d3 de  jmp   ($ded3+x)
adb3: 50 c0     bvc   $ad75
adb5: e0        clrv
adb6: 32 c2     clr1  $c2
adb8: 2e 22 0d  cbne  $22,$adc7
adbb: 03 f2 c0  bbs0  $f2,$ad7d
adbe: 1d        dec   x
adbf: 13 dc 12  bbc0  $dc,$add3
adc2: ed        notc
adc3: 21        tcall 2
adc4: d0 1e     bne   $ade4
adc6: c0        di
adc7: f1        tcall 15
adc8: 1e 23 d0  cmp   x,$d023
adcb: 4c d2 2f  lsr   $2fd2
adce: c1        tcall 12
adcf: c0        di
add0: 10 2c     bpl   $adfe
add2: f1        tcall 15
add3: 20        clrp
add4: f4 1c     mov   a,$1c+x
add6: 22 ec     set1  $ec
add8: c0        di
add9: 33 bf 30  bbc1  $bf,$ae0b
addc: ef        sleep
addd: 0f        brk
adde: 02 20     set0  $20
ade0: 01        tcall 0
ade1: c0        di
ade2: f0 2d     beq   $ae11
ade4: f3 10 11  bbc7  $10,$adf7
ade7: 10 ff     bpl   $ade8
ade9: 21        tcall 2
adea: b0 c5     bcs   $adb1
adec: 51        tcall 5
aded: b1        tcall 11
adee: 6e c3 2d  dbnz  $c3,$ae1d
adf1: e3 29 b0  bbs7  $29,$ada3
adf4: 12 1f     clr0  $1f
adf6: 3f e2 2e  call  $2ee2
adf9: c1        tcall 12
adfa: 20        clrp
adfb: 11        tcall 1
adfc: b0 c0     bcs   $adbe
adfe: 6e ff e0  dbnz  $ff,$ade0
ae01: 33 0a 14  bbc1  $0a,$ae17
ae04: 00        nop
ae05: c0        di
ae06: e1        tcall 14
ae07: 20        clrp
ae08: f2 1f     clr7  $1f
ae0a: f5 2c 12  mov   a,$122c+x
ae0d: 0d        push  psw
ae0e: c0        di
ae0f: e4 ff     mov   a,$ff
ae11: 3f f1 0d  call  $0df1
ae14: e4 fe     mov   a,$fe
ae16: 43 b0 df  bbs2  $b0,$adf7
ae19: 20        clrp
ae1a: 2c c1 41  rol   $41c1
ae1d: f0 f1     beq   $ae10
ae1f: df        daa   a
ae20: c0        di
ae21: 20        clrp
ae22: d0 00     bne   $ae24
ae24: 1e f2 11  cmp   x,$11f2
ae27: e3 fb c0  bbs7  $fb,$ade9
ae2a: 02 0f     set0  $0f
ae2c: d0 02     bne   $ae30
ae2e: 0c 03 dd  asl   $dd03
ae31: 54 c0     eor   a,$c0+x
ae33: bf        mov   a,(x)+
ae34: 40        setp
ae35: d1        tcall 13
ae36: 00        nop
ae37: 00        nop
ae38: 1f e4 0f  jmp   ($0fe4+x)
ae3b: b0 2e     bcs   $ae6b
ae3d: b2 3f     clr5  $3f
ae3f: 05 de 21  or    a,$21de
ae42: c0        di
ae43: 2f c0     bra   $ae05
ae45: 10 e0     bpl   $ae27
ae47: 10 0c     bpl   $ae55
ae49: 21        tcall 2
ae4a: 0d        push  psw
ae4b: 31        tcall 3
ae4c: e1        tcall 14
ae4d: b0 5b     bcs   $aeaa
ae4f: f0 22     beq   $ae73
ae51: fa 16 2d  mov   ($2d),($16)
ae54: df        daa   a
ae55: 40        setp
ae56: c0        di
ae57: 00        nop
ae58: e0        clrv
ae59: 41        tcall 4
ae5a: c0        di
ae5b: 1f 00 0c  jmp   ($0c00+x)
ae5e: 03 c0 11  bbs0  $c0,$ae71
ae61: ee        pop   y
ae62: 3f e0 0f  call  $0fe0
ae65: 13 1c e4  bbc0  $1c,$ae4b
ae68: c0        di
ae69: ec 03 1f  mov   y,$1f03
ae6c: 42 01     set2  $01
ae6e: ff        stop
ae6f: 1d        dec   x
ae70: 03 c0 10  bbs0  $c0,$ae82
ae73: 02 fc     set0  $fc
ae75: 30 be     bmi   $ae35
ae77: 23 f0 2e  bbs1  $f0,$aea7
ae7a: c0        di
ae7b: e3 ea 12  bbs7  $ea,$ae8f
ae7e: 13 0a d5  bbc0  $0a,$ae55
ae81: 3b d5     rol   $d5+x
ae83: c0        di
ae84: 2b 04     rol   $04
ae86: ed        notc
ae87: 43 cd 33  bbs2  $cd,$aebc
ae8a: ff        stop
ae8b: 00        nop
ae8c: b0 6f     bcs   $aefd
ae8e: 91        tcall 9
ae8f: 4e d0 e1  tclr1 $e1d0
ae92: 41        tcall 4
ae93: bc        inc   a
ae94: 45 c0 d1  eor   a,$d1c0
ae97: 2f 01     bra   $ae9a
ae99: 1e 02 ff  cmp   x,$ff02
ae9c: 12 ff     clr0  $ff
ae9e: c0        di
ae9f: 21        tcall 2
aea0: d0 10     bne   $aeb2
aea2: 11        tcall 1
aea3: 2b d2     rol   $d2
aea5: 1f e0 c0  jmp   ($c0e0+x)
aea8: 31        tcall 3
aea9: 0e 13 c0  tset1 $c013
aeac: 21        tcall 2
aead: ce        pop   x
aeae: 22 f0     set1  $f0
aeb0: b0 43     bcs   $aef5
aeb2: ef        sleep
aeb3: 03 1d c5  bbs0  $1d,$ae7a
aeb6: 5f f2 ed  jmp   $edf2
aeb9: c4 23     mov   $23,a
aebb: bc        inc   a
aebc: 45 df 20  eor   a,$20df
aebf: fe 02     dbnz  y,$aec3
aec1: ef        sleep
aec2: b0 25     bcs   $aee9
aec4: 50 fd     bvc   $aec3
aec6: 20        clrp
aec7: ec f3 31  mov   y,$31f3
aeca: 10 c0     bpl   $ae8c
aecc: 1f 0f e1  jmp   ($e10f+x)
aecf: 11        tcall 1
aed0: 11        tcall 1
aed1: 1e 01 0b  cmp   x,$0b01
aed4: b0 c4     bcs   $ae9a
aed6: 5d        mov   x,a
aed7: f3 3c f1  bbc7  $3c,$aeca
aeda: d2 1e     clr6  $1e
aedc: 32 c0     clr1  $c0
aede: f0 00     beq   $aee0
aee0: ee        pop   y
aee1: 32 de     clr1  $de
aee3: 24 fb     and   a,$fb
aee5: f0 b0     beq   $ae97
aee7: d1        tcall 13
aee8: 40        setp
aee9: ef        sleep
aeea: 50 af     bvc   $ae9b
aeec: 2d        push  a
aeed: e3 3f b4  bbs7  $3f,$aea3
aef0: e2 3e     set7  $3e
aef2: e0        clrv
aef3: 11        tcall 1
aef4: 1d        dec   x
aef5: e5 4b e2  mov   a,$e24b
aef8: b0 16     bcs   $af10
aefa: 2a e1 25  or1   c,!($04bc,1)
aefd: 3d        inc   x
aefe: e1        tcall 14
aeff: 43 db c0  bbs2  $db,$aec1
af02: f0 02     beq   $af06
af04: 2d        push  a
af05: e2 21     set7  $21
af07: ec 01 23  mov   y,$2301
af0a: b0 ea     bcs   $aef6
af0c: 04 51     or    a,$51
af0e: dd        mov   a,y
af0f: e1        tcall 14
af10: 43 fe 11  bbs2  $fe,$af23
af13: b0 01     bcs   $af16
af15: 31        tcall 3
af16: cf        mul   ya
af17: 62 d1     set3  $d1
af19: 2e bf 63  cbne  $bf,$af7e
af1c: c0        di
af1d: de 31 df  cbne  $31+x,$aefe
af20: 20        clrp
af21: de 33 ed  cbne  $33+x,$af10
af24: 22 b0     set1  $b0
af26: d0 1d     bne   $af45
af28: c0        di
af29: 34 0c     and   a,$0c+x
af2b: e4 30     mov   a,$30
af2d: 0f        brk
af2e: a4 d2     sbc   a,$d2
af30: 54 da     eor   a,$da+x
af32: c7 6f     mov   ($6f+x),a
af34: aa 45 fe  mov1  c,$1fc8,5
af37: b0 02     bcs   $af3b
af39: 2e d1 41  cbne  $d1,$af7c
af3c: cc 13 1e  mov   $1e13,y
af3f: e2 a0     set7  $a0
af41: 5e af 63  cmp   y,$63af
af44: de 11 0f  cbne  $11+x,$af55
af47: 02 1f     set0  $1f
af49: 80        setc
af4a: b5 4f 20  sbc   a,$204f+x
af4d: cf        mul   ya
af4e: 64 ca     cmp   a,$ca
af50: 35 dc 81  and   a,$81dc+x
af53: 23 4f be  bbs1  $4f,$af13
af56: 22 1d     set1  $1d
af58: e1        tcall 14
af59: 2f 01     bra   $af5c
af5b: 02 00     set0  $00
af5d: 00        nop
af5e: 00        nop
af5f: 00        nop
af60: 00        nop
af61: 00        nop
af62: 00        nop
af63: 00        nop
af64: 82 13     set4  $13
af66: eb cf     mov   y,$cf
af68: 53 cb b1  bbc2  $cb,$af1b
af6b: 6f        ret
af6c: ba 92     movw  ya,$92
af6e: f4 3e     mov   a,$3e+x
af70: dd        mov   a,y
af71: 14 0d     or    a,$0d+x
af73: ce        pop   x
af74: 54 eb     eor   a,$eb+x
af76: 92 b1     clr4  $b1
af78: 62 da     set3  $da
af7a: d4 40     mov   $40+x,a
af7c: ca 05 3f  mov1  $07e0,5,c
af7f: 92 ac     clr4  $ac
af81: 34 1d     and   a,$1d+x
af83: af        mov   (x)+,a
af84: 32 fb     clr1  $fb
af86: d2 21     clr6  $21
af88: 92 dc     clr4  $dc
af8a: 12 0e     clr0  $0e
af8c: bf        mov   a,(x)+
af8d: 31        tcall 3
af8e: fc        inc   y
af8f: c2 2f     set6  $2f
af91: 92 dd     clr4  $dd
af93: 13 0d c0  bbc0  $0d,$af55
af96: 53 ea c3  bbc2  $ea,$af5b
af99: 40        setp
af9a: 92 cb     clr4  $cb
af9c: 15 3e ad  or    a,$ad3e+x
af9f: 33 fb c3  bbc1  $fb,$af64
afa2: 51        tcall 5
afa3: a2 ed     set5  $ed
afa5: 03 2f ce  bbs0  $2f,$af75
afa8: 34 0c     and   a,$0c+x
afaa: c1        tcall 12
afab: 42 a2     set2  $a2
afad: ec f4 40  mov   y,$40f4
afb0: cd 25     mov   x,#$25
afb2: 2c af 43  rol   $43af
afb5: a6        sbc   a,(x)
afb6: bc        inc   a
afb7: 36 2c a0  and   a,$a02c+y
afba: 64 ea     cmp   a,$ea
afbc: d4 60     mov   $60+x,a
afbe: a6        sbc   a,(x)
afbf: bb 26     inc   $26+x
afc1: 3c        rol   a
afc2: af        mov   (x)+,a
afc3: 65 f9 c4  cmp   a,$c4f9
afc6: 61        tcall 6
afc7: a2 f9     set5  $f9
afc9: b2 63     clr5  $63
afcb: ca 06 6f  mov1  $0de0,6,c
afce: 9c        dec   a
afcf: 36 a2 2b  and   a,$2ba2+y
afd2: b1        tcall 11
afd3: 53 c9 f5  bbc2  $c9,$afca
afd6: 5f ad 35  jmp   $35ad
afd9: b2 1e     clr5  $1e
afdb: e1        tcall 14
afdc: 32 ec     clr1  $ec
afde: f3 3f ce  bbc7  $3f,$afae
afe1: 23 b2 0c  bbs1  $b2,$afef
afe4: c0        di
afe5: 32 fd     clr1  $fd
afe7: e0        clrv
afe8: 10 ff     bpl   $afe9
afea: 00        nop
afeb: b6 f0 32  sbc   a,$32f0+y
afee: fc        inc   y
afef: d1        tcall 13
aff0: 53 ea d3  bbc2  $ea,$afc5
aff3: 63 b2 3d  bbs3  $b2,$b032
aff6: bd        mov   sp,x
aff7: 12 10     clr0  $10
aff9: 0f        brk
affa: ee        pop   y
affb: 03 30 ba  bbs0  $30,$afb7
affe: f2 52     clr7  $52
b000: da d4     movw  $d4,ya
b002: 72 ca     clr3  $ca
b004: e4 42     mov   a,$42
b006: b6 3f cd  sbc   a,$cd3f+y
b009: f2 33     clr7  $33
b00b: 0d        push  psw
b00c: ce        pop   x
b00d: 36 3c ca  and   a,$ca3c+y
b010: f1        tcall 15
b011: 42 ec     set2  $ec
b013: e2 32     set7  $32
b015: fd        mov   y,a
b016: e1        tcall 14
b017: 22 c6     set1  $c6
b019: 21        tcall 2
b01a: ff        stop
b01b: e0        clrv
b01c: 13 1e ce  bbc0  $1e,$afec
b01f: 14 3f     or    a,$3f+x
b021: ca d1 43  mov1  $087a,1,c
b024: fc        inc   y
b025: d1        tcall 13
b026: 42 fd     set2  $fd
b028: e1        tcall 14
b029: 21        tcall 2
b02a: ba 0f     movw  ya,$0f
b02c: ef        sleep
b02d: f1        tcall 15
b02e: 32 fd     clr1  $fd
b030: c0        di
b031: 55 fb ba  eor   a,$bafb+x
b034: b0 56     bcs   $b08c
b036: 0a b1 45  or1   c,$08b6,1
b039: 0c c0 24  asl   $24c0
b03c: aa 2b be  mov1  c,$17c5,3
b03f: 14 5f     or    a,$5f+x
b041: cc f2 73  mov   $73f2,y
b044: ca ba e1  mov1  $1c37,2,c
b047: 42 ed     set2  $ed
b049: f0 33     beq   $b07e
b04b: ed        notc
b04c: f1        tcall 15
b04d: 22 a6     set1  $a6
b04f: 3e cd     cmp   x,$cd
b051: 05 4e cf  or    a,$cf4e
b054: 02 3f     set0  $3f
b056: df        daa   a
b057: a2 de     set5  $de
b059: 23 21 ec  bbs1  $21,$b047
b05c: f3 31 eb  bbc7  $31,$b049
b05f: e4 a2     mov   a,$a2
b061: 41        tcall 4
b062: da e5     movw  $e5,ya
b064: 51        tcall 5
b065: ec f4 3f  mov   y,$3ff4
b068: ee        pop   y
b069: a6        sbc   a,(x)
b06a: 13 fc 13  bbc0  $fc,$b07f
b06d: 10 dc     bpl   $b04b
b06f: 35 0e dd  and   a,$dd0e+x
b072: a2 e3     set5  $e3
b074: 30 ec     bmi   $b062
b076: f4 41     mov   a,$41+x
b078: fc        inc   y
b079: d2 31     clr6  $31
b07b: b6 fe 03  sbc   a,$03fe+y
b07e: 20        clrp
b07f: ed        notc
b080: f3 30 ec  bbc7  $30,$b06e
b083: e3 b6 51  bbs7  $b6,$b0d6
b086: db e4     mov   $e4+x,y
b088: 51        tcall 5
b089: db e4     mov   $e4+x,y
b08b: 61        tcall 6
b08c: cb ba     mov   $ba,y
b08e: 35 2c ce  and   a,$ce2c+x
b091: 35 2c ce  and   a,$ce2c+x
b094: 26        and   a,(x)
b095: 2d        push  a
b096: ba be     movw  ya,$be
b098: 16 3e bd  or    a,$bd3e+y
b09b: 15 5e ab  or    a,$ab5e+x
b09e: 27 ba     and   a,($ba+x)
b0a0: 5d        mov   x,a
b0a1: 9c        dec   a
b0a2: 36 4d ad  and   a,$ad4d+y
b0a5: 35 3e ad  and   a,$ad3e+x
b0a8: b6 d3 63  sbc   a,$63d3+y
b0ab: db e2     mov   $e2+x,y
b0ad: 42 ec     set2  $ec
b0af: e1        tcall 14
b0b0: 43 b6 ec  bbs2  $b6,$b09e
b0b3: e1        tcall 14
b0b4: 43 eb e2  bbs2  $eb,$b098
b0b7: 53 eb d1  bbc2  $eb,$b08a
b0ba: b6 54 eb  sbc   a,$eb54+y
b0bd: d2 53     clr6  $53
b0bf: db e3     mov   $e3+x,y
b0c1: 62 ba     set3  $ba
b0c3: b2 af     clr5  $af
b0c5: 55 fb c1  eor   a,$c1fb+x
b0c8: 54 fc     eor   a,$fc+x
b0ca: c0        di
b0cb: 43 a2 da  bbs2  $a2,$b0a7
b0ce: c1        tcall 12
b0cf: 63 dd f0  bbs3  $dd,$b0c1
b0d2: 20        clrp
b0d3: df        daa   a
b0d4: 0f        brk
b0d5: aa 2e 03  mov1  c,$0065,6
b0d8: fd        mov   y,a
b0d9: 10 22     bpl   $b0fd
b0db: ec f2 52  mov   y,$52f2
b0de: ba ed     movw  ya,$ed
b0e0: f3 31 ec  bbc7  $31,$b0ce
b0e3: d3 61 db  bbc6  $61,$b0c0
b0e6: e4 b2     mov   a,$b2
b0e8: 05 61 a9  or    a,$a961
b0eb: f5 61 aa  mov   a,$aa61+x
b0ee: 06        or    a,(x)
b0ef: 60        clrc
b0f0: b6 a1 65  sbc   a,$65a1+y
b0f3: fa b2 64  mov   ($64),($b2)
b0f6: ea c2 54  not1  $0a98,2
b0f9: b2 3d     clr5  $3d
b0fb: bf        mov   a,(x)+
b0fc: 46        eor   a,(x)
b0fd: 2c bf 45  rol   $45bf
b100: 1c        asl   a
b101: c0        di
b102: b2 44     clr5  $44
b104: fc        inc   y
b105: d1        tcall 13
b106: 43 eb d1  bbs2  $eb,$b0d9
b109: 42 db     set2  $db
b10b: b2 e2     clr5  $e2
b10d: 30 cc     bmi   $b0db
b10f: f3 3f ce  bbc7  $3f,$b0df
b112: 24 2d     and   a,$2d
b114: b2 cf     clr5  $cf
b116: 34 1d     and   a,$1d+x
b118: d1        tcall 13
b119: 43 eb d2  bbs2  $eb,$b0ed
b11c: 42 b2     set2  $b2
b11e: db e4     mov   $e4+x,y
b120: 51        tcall 5
b121: cb f4     mov   $f4,y
b123: 4f bb     pcall $bb
b125: 05 b2 4f  or    a,$4fb2
b128: bc        inc   a
b129: 15 3e bd  or    a,$bd3e+x
b12c: 24 1d     and   a,$1d
b12e: cf        mul   ya
b12f: b2 33     clr5  $33
b131: 0d        push  psw
b132: d0 32     bne   $b166
b134: fd        mov   y,a
b135: e1        tcall 14
b136: 32 fd     clr1  $fd
b138: a2 d3     set5  $d3
b13a: 41        tcall 4
b13b: dc        dec   y
b13c: 04 2e     or    a,$2e
b13e: cd 13     mov   x,#$13
b140: 1e a2 df  cmp   x,$dfa2
b143: 33 fc d1  bbc1  $fc,$b116
b146: 42 ec     set2  $ec
b148: e2 41     set7  $41
b14a: a6        sbc   a,(x)
b14b: cf        mul   ya
b14c: 34 0c     and   a,$0c+x
b14e: c1        tcall 12
b14f: 42 fd     set2  $fd
b151: e2 41     set7  $41
b153: a6        sbc   a,(x)
b154: ec e3 41  mov   y,$41e3
b157: ec f3 31  mov   y,$31f3
b15a: dc        dec   y
b15b: 03 92 45  bbs0  $92,$b1a2
b15e: fb d0     mov   y,$d0+x
b160: 44 eb     eor   a,$eb
b162: d0 54     bne   $b1b8
b164: db 92     mov   $92+x,y
b166: d1        tcall 13
b167: 52 ca     clr2  $ca
b169: c2 51     set6  $51
b16b: ca e4 40  mov1  $081c,4,c
b16e: a2 ed     set5  $ed
b170: 03 20 cb  bbs0  $20,$b13d
b173: 03 20 cd  bbs0  $20,$b142
b176: 23 a6 fd  bbs1  $a6,$b175
b179: c3 51 eb  bbs6  $51,$b166
b17c: e4 31     mov   a,$31
b17e: eb 04     mov   y,$04
b180: a2 33     set5  $33
b182: fb e1     mov   y,$e1+x
b184: 32 dc     clr1  $dc
b186: 02 30     set0  $30
b188: bc        inc   a
b189: a2 03     set5  $03
b18b: 3e be     cmp   x,$be
b18d: 13 1c c0  bbc0  $1c,$b14f
b190: 33 fc 92  bbc1  $fc,$b124
b193: b1        tcall 11
b194: 74 b9     cmp   a,$b9+x
b196: c2 60     set6  $60
b198: bc        inc   a
b199: f4 3c     mov   a,$3c+x
b19b: 92 ce     clr4  $ce
b19d: 15 0c f0  or    a,$f00c+x
b1a0: 33 dc e0  bbc1  $dc,$b182
b1a3: 3f 92 bd  call  $bd92
b1a6: f3 3d df  bbc7  $3d,$b187
b1a9: 03 0c ef  bbs0  $0c,$b19a
b1ac: 24 82     and   a,$82
b1ae: da e0     movw  $e0,ya
b1b0: 51        tcall 5
b1b1: 9c        dec   a
b1b2: f2 4d     clr7  $4d
b1b4: ae        pop   a
b1b5: 03 82 0b  bbs0  $82,$b1c2
b1b8: d0 21     bne   $b1db
b1ba: cc f1 1d  mov   $1df1,y
b1bd: bf        mov   a,(x)+
b1be: 24 92     and   a,$92
b1c0: 0d        push  psw
b1c1: e0        clrv
b1c2: 22 ed     set1  $ed
b1c4: 02 30     set0  $30
b1c6: cd 02     mov   x,#$02
b1c8: 92 3f     clr4  $3f
b1ca: df        daa   a
b1cb: 13 2e de  bbc0  $2e,$b1ab
b1ce: 01        tcall 0
b1cf: fd        mov   y,a
b1d0: df        daa   a
b1d1: 86        adc   a,(x)
b1d2: 6f        ret
b1d3: bf        mov   a,(x)+
b1d4: 04 2c     or    a,$2c
b1d6: e0        clrv
b1d7: 03 fd 11  bbs0  $fd,$b1ea
b1da: 76 32 bc  cmp   a,$bc32+y
b1dd: 13 2f dd  bbc0  $2f,$b1bc
b1e0: 24 e0     and   a,$e0
b1e2: fd        mov   y,a
b1e3: 76 51 c2  cmp   a,$c251+y
b1e6: df        daa   a
b1e7: 5c        lsr   a
b1e8: 02 d3     set0  $d3
b1ea: fb 50     mov   y,$50+x
b1ec: 82 01     set4  $01
b1ee: dd        mov   a,y
b1ef: 00        nop
b1f0: 1f cf 12  jmp   ($12cf+x)
b1f3: 0b be     asl   $be
b1f5: 82 24     set4  $24
b1f7: fc        inc   y
b1f8: df        daa   a
b1f9: 53 cb c2  bbc2  $cb,$b1bd
b1fc: 6f        ret
b1fd: ba 92     movw  ya,$92
b1ff: e3 2e dd  bbs7  $2e,$b1de
b202: 15 1e cd  or    a,$cd1e+x
b205: 33 ec 93  bbc1  $ec,$b19a
b208: c1        tcall 12
b209: 52 eb     clr2  $eb
b20b: d4 40     mov   $40+x,a
b20d: ca 05 3f  mov1  $07e0,5,c
b210: 00        nop
b211: 00        nop
b212: 00        nop
b213: 00        nop
b214: 00        nop
b215: 00        nop
b216: 00        nop
b217: 00        nop
b218: 00        nop
b219: a0        ei
b21a: 4d        push  x
b21b: ef        sleep
b21c: fc        inc   y
b21d: de ea ff  cbne  $ea+x,$b21e
b220: de 0e a4  cbne  $0e+x,$b1c6
b223: 22 b2     set1  $b2
b225: 0d        push  psw
b226: 02 03     set0  $03
b228: f5 2b 23  mov   a,$232b+x
b22b: a0        ei
b22c: 11        tcall 1
b22d: 5f 31 1f  jmp   $1f31
b230: 40        setp
b231: ef        sleep
b232: fd        mov   y,a
b233: cf        mul   ya
b234: a4 0d     sbc   a,$0d
b236: 12 e1     clr0  $e1
b238: 1e 11 c3  cmp   x,$c311
b23b: c4 b5     mov   $b5,a
b23d: a4 2f     sbc   a,$2f
b23f: 42 e1     set2  $e1
b241: 0f        brk
b242: e4 df     mov   a,$df
b244: 11        tcall 1
b245: f0 94     beq   $b1db
b247: ec f0 fd  mov   y,$fdf0
b24a: 30 b4     bmi   $b200
b24c: 4c f3 fd  lsr   $fdf3
b24f: a4 2d     sbc   a,$2d
b251: 1b 6b     asl   $6b+x
b253: 63 03 3c  bbs3  $03,$b291
b256: 2f ff     bra   $b257
b258: 94 59     adc   a,$59+x
b25a: 22 e1     set1  $e1
b25c: 0c b0 0e  asl   $0eb0
b25f: d1        tcall 13
b260: 2c a4 21  rol   $21a4
b263: f0 1e     beq   $b283
b265: d3 ed 5e  bbc6  $ed,$b2c5
b268: 24 32     and   a,$32
b26a: a4 3c     sbc   a,$3c
b26c: 2d        push  a
b26d: 0f        brk
b26e: 3d        inc   x
b26f: 01        tcall 0
b270: f1        tcall 15
b271: 0d        push  psw
b272: e0        clrv
b273: a4 0f     sbc   a,$0f
b275: e0        clrv
b276: 0f        brk
b277: 22 0f     set1  $0f
b279: 1c        asl   a
b27a: 2f e1     bra   $b25d
b27c: a8 e4     sbc   a,#$e4
b27e: 0e 5c ef  tset1 $ef5c
b281: 5c        lsr   a
b282: e5 d1 12  mov   a,$12d1
b285: a4 00     sbc   a,$00
b287: fc        inc   y
b288: df        daa   a
b289: 2d        push  a
b28a: 02 ff     set0  $ff
b28c: 32 ee     clr1  $ee
b28e: b4 00     sbc   a,$00+x
b290: f0 0f     beq   $b2a1
b292: 12 04     clr0  $04
b294: 2f e1     bra   $b277
b296: 00        nop
b297: a8 e4     sbc   a,#$e4
b299: b4 f3     sbc   a,$f3+x
b29b: ee        pop   y
b29c: fd        mov   y,a
b29d: 61        tcall 6
b29e: c0        di
b29f: 3e b8     cmp   x,$b8
b2a1: f2 2c     clr7  $2c
b2a3: f2 0f     clr7  $0f
b2a5: 2e f4 e0  cbne  $f4,$b287
b2a8: 4d        push  x
b2a9: a8 ee     sbc   a,#$ee
b2ab: 22 ef     set1  $ef
b2ad: 3d        inc   x
b2ae: 2f 5c     bra   $b30c
b2b0: 1d        dec   x
b2b1: d5 a4 1e  mov   $1ea4+x,a
b2b4: e0        clrv
b2b5: ff        stop
b2b6: 07 df     or    a,($df+x)
b2b8: 0e 03 00  tset1 $0003
b2bb: a8 3e     sbc   a,#$3e
b2bd: 25 be 0f  and   a,$0fbe
b2c0: 3e 10     cmp   x,$10
b2c2: 0f        brk
b2c3: 04 a4     or    a,$a4
b2c5: 00        nop
b2c6: cb f1     mov   $f1,y
b2c8: f0 0f     beq   $b2d9
b2ca: d3 01 1c  bbc6  $01,$b2e8
b2cd: a8 32     sbc   a,#$32
b2cf: f1        tcall 15
b2d0: 00        nop
b2d1: 05 d0 fb  or    a,$fbd0
b2d4: 6b 5e     ror   $5e
b2d6: 98 1e 13  adc   $13,#$1e
b2d9: 03 aa 32  bbs0  $aa,$b30d
b2dc: 12 fd     clr0  $fd
b2de: d7 a8     mov   ($a8)+y,a
b2e0: f1        tcall 15
b2e1: 0c 1f 31  asl   $311f
b2e4: 0e 13 1e  tset1 $1e13
b2e7: 1b a4     asl   $a4+x
b2e9: 0e d2 fe  tset1 $fed2
b2ec: ee        pop   y
b2ed: 00        nop
b2ee: 0d        push  psw
b2ef: ce        pop   x
b2f0: d0 98     bne   $b28a
b2f2: 0f        brk
b2f3: c0        di
b2f4: 4e 3a 2c  tclr1 $2c3a
b2f7: 25 1f 03  and   a,$031f
b2fa: a4 53     sbc   a,$53
b2fc: 4f f1     pcall $f1
b2fe: b0 0d     bcs   $b30d
b300: fd        mov   y,a
b301: 10 0c     bpl   $b30f
b303: a4 cf     sbc   a,$cf
b305: ef        sleep
b306: ed        notc
b307: 2e f5 fe  cbne  $f5,$b307
b30a: 3e f5     cmp   x,$f5
b30c: b8 ff 13  sbc   $13,#$ff
b30f: c3 ee 3e  bbs6  $ee,$b34f
b312: 02 ff     set0  $ff
b314: 2f a4     bra   $b2ba
b316: fe ec     dbnz  y,$b304
b318: ed        notc
b319: dd        mov   a,y
b31a: d2 df     clr6  $df
b31c: 40        setp
b31d: d3 a8 df  bbc6  $a8,$b2fe
b320: 3e 12     cmp   x,$12
b322: 2d        push  a
b323: 21        tcall 2
b324: b4 1c     sbc   a,$1c+x
b326: 30 a8     bmi   $b2d0
b328: f0 12     beq   $b33c
b32a: ef        sleep
b32b: 0f        brk
b32c: 1f 2b 30  jmp   ($302b+x)
b32f: ff        stop
b330: a4 30     sbc   a,$30
b332: ff        stop
b333: 1f 13 02  jmp   ($0213+x)
b336: 24 42     and   a,$42
b338: 44 a8     eor   a,$a8
b33a: f0 3f     beq   $b37b
b33c: 11        tcall 1
b33d: b4 0e     sbc   a,$0e+x
b33f: 2d        push  a
b340: 4b 5b     lsr   $5b
b342: a8 4a     sbc   a,#$4a
b344: 3f 2f 3e  call  $3e2f
b347: d5 a0 21  mov   $21a0+x,a
b34a: c1        tcall 12
b34b: a4 35     sbc   a,$35
b34d: 25 33 33  and   a,$3333
b350: 33 62 3d  bbc1  $62,$b38f
b353: 4c b4 00  lsr   $00b4
b356: e0        clrv
b357: b0 d0     bcs   $b329
b359: cf        mul   ya
b35a: ed        notc
b35b: 2f 00     bra   $b35d
b35d: a8 0e     sbc   a,#$0e
b35f: f3 d1 01  bbc7  $d1,$b362
b362: 1f 20 d0  jmp   ($d020+x)
b365: 4f b4     pcall $b4
b367: 22 10     set1  $10
b369: 02 fe     set0  $fe
b36b: 0f        brk
b36c: a2 de     set5  $de
b36e: fe a4     dbnz  y,$b314
b370: 9f        xcn   a
b371: 1e f4 de  cmp   x,$def4
b374: 11        tcall 1
b375: 0f        brk
b376: 21        tcall 2
b377: 13 a8 1f  bbc0  $a8,$b398
b37a: f1        tcall 15
b37b: 01        tcall 0
b37c: f4 b1     mov   a,$b1+x
b37e: 30 d2     bmi   $b352
b380: 1c        asl   a
b381: b4 fe     sbc   a,$fe+x
b383: ee        pop   y
b384: 0c 1d f0  asl   $f01d
b387: 0f        brk
b388: f1        tcall 15
b389: 01        tcall 0
b38a: a4 00     sbc   a,$00
b38c: f3 02 23  bbc7  $02,$b3b1
b38f: 32 34     clr1  $34
b391: 13 04 a8  bbc0  $04,$b33b
b394: ef        sleep
b395: 30 d0     bmi   $b367
b397: f1        tcall 15
b398: 1e 10 2a  cmp   x,$2a10
b39b: 6e 98 0c  dbnz  $98,$b3a9
b39e: 7a 13     addw  ya,$13
b3a0: c2 e1     set6  $e1
b3a2: fe 35     dbnz  y,$b3d9
b3a4: a4 a4     sbc   a,$a4
b3a6: 32 31     clr1  $31
b3a8: 42 11     set2  $11
b3aa: 3c        rol   a
b3ab: 3c        rol   a
b3ac: 09 de a4  or    ($a4),($de)
b3af: bf        mov   a,(x)+
b3b0: 1a fe     decw  $fe
b3b2: c1        tcall 12
b3b3: e2 e2     set7  $e2
b3b5: 10 01     bpl   $b3b8
b3b7: a4 11     sbc   a,$11
b3b9: 34 24     and   a,$24+x
b3bb: 34 12     and   a,$12+x
b3bd: 03 03 e1  bbs0  $03,$b3a0
b3c0: a4 ce     sbc   a,$ce
b3c2: ec ed a2  mov   y,$a2ed
b3c5: cd 0f     mov   x,#$0f
b3c7: fd        mov   y,a
b3c8: f3 a8 b4  bbc7  $a8,$b37e
b3cb: c3 d3 f0  bbs6  $d3,$b3bd
b3ce: f3 00 2c  bbc7  $00,$b3fc
b3d1: 11        tcall 1
b3d2: a8 1d     sbc   a,#$1d
b3d4: 5c        lsr   a
b3d5: 02 fc     set0  $fc
b3d7: 3f 2e 2f  call  $2f2e
b3da: 10 a8     bpl   $b384
b3dc: c4 c0     mov   $c0,a
b3de: 5d        mov   x,a
b3df: 1f 01 d3  jmp   ($d301+x)
b3e2: 1c        asl   a
b3e3: 42 a4     set2  $a4
b3e5: 14 31     or    a,$31+x
b3e7: 15 c0 10  or    a,$10c0+x
b3ea: a1        tcall 10
b3eb: cb 0e     mov   $0e,y
b3ed: a8 c5     sbc   a,#$c5
b3ef: c4 ef     mov   $ef,a
b3f1: 2d        push  a
b3f2: 2e 2e 3e  cbne  $2e,$b432
b3f5: 1c        asl   a
b3f6: a4 42     sbc   a,$42
b3f8: 33 40 33  bbc1  $40,$b42d
b3fb: 20        clrp
b3fc: 12 0f     clr0  $0f
b3fe: 3b b4     rol   $b4+x
b400: f1        tcall 15
b401: df        daa   a
b402: df        daa   a
b403: d2 e0     clr6  $e0
b405: e2 e0     set7  $e0
b407: 1f a4 e0  jmp   ($e0a4+x)
b40a: 5f 2f 60  jmp   $602f
b40d: 31        tcall 3
b40e: 41        tcall 4
b40f: 40        setp
b410: 21        tcall 2
b411: a4 10     sbc   a,$10
b413: 11        tcall 1
b414: b1        tcall 11
b415: e2 a0     set7  $a0
b417: dd        mov   a,y
b418: f2 cf     clr7  $cf
b41a: 94 1c     adc   a,$1c+x
b41c: fe 1b     dbnz  y,$b439
b41e: 50 1f     bvc   $b43f
b420: 31        tcall 3
b421: 20        clrp
b422: f4 94     mov   a,$94+x
b424: 62 01     set3  $01
b426: 40        setp
b427: 3f e1 5e  call  $5ee1
b42a: 0d        push  psw
b42b: 3d        inc   x
b42c: 94 3e     adc   a,$3e+x
b42e: d3 2d ef  bbc6  $2d,$b41f
b431: 0d        push  psw
b432: 79        cmp   (x),(y)
b433: f1        tcall 15
b434: 1f 94 df  jmp   ($df94+x)
b437: ff        stop
b438: 3a 4d     incw  $4d
b43a: 00        nop
b43b: 2d        push  a
b43c: f3 f2 94  bbc7  $f2,$b3d2
b43f: 2e 2f 3e  cbne  $2f,$b47f
b442: 22 e6     set1  $e6
b444: f1        tcall 15
b445: 00        nop
b446: 20        clrp
b447: a4 02     sbc   a,$02
b449: e3 e0 ff  bbs7  $e0,$b44a
b44c: 1e 1e f2  cmp   x,$f21e
b44f: ff        stop
b450: 94 f0     adc   a,$f0+x
b452: f0 0b     beq   $b45f
b454: 11        tcall 1
b455: 00        nop
b456: 0e 2f 2e  tset1 $2e2f
b459: 84 60     adc   a,$60
b45b: 60        clrc
b45c: 21        tcall 2
b45d: 04 61     or    a,$61
b45f: e6        mov   a,(x)
b460: d3 2f 94  bbc6  $2f,$b3f6
b463: 4d        push  x
b464: 1f 0f f0  jmp   ($f00f+x)
b467: fd        mov   y,a
b468: f1        tcall 15
b469: 02 a2     set0  $a2
b46b: 94 cd     adc   a,$cd+x
b46d: 21        tcall 2
b46e: 0e 1d 10  tset1 $101d
b471: 1d        dec   x
b472: 3d        inc   x
b473: 4e 94 4e  tclr1 $4e94
b476: 40        setp
b477: fe 30     dbnz  y,$b4a9
b479: 20        clrp
b47a: 10 12     bpl   $b48e
b47c: e0        clrv
b47d: 94 2f     adc   a,$2f+x
b47f: f3 cf 2e  bbc7  $cf,$b4af
b482: e0        clrv
b483: 1e 2e f0  cmp   x,$f02e
b486: 94 ed     adc   a,$ed+x
b488: 11        tcall 1
b489: ef        sleep
b48a: 2c f3 ef  rol   $eff3
b48d: 02 f1     set0  $f1
b48f: 84 0f     adc   a,$0f
b491: 2d        push  a
b492: 40        setp
b493: c5 e4 c7  mov   $c7e4,a
b496: e3 e5 94  bbs7  $e5,$b42c
b499: d4 d0     mov   $d0+x,a
b49b: 1f 0d 5d  jmp   ($5d0d+x)
b49e: 02 d0     set0  $d0
b4a0: f0 94     beq   $b436
b4a2: ee        pop   y
b4a3: f0 11     beq   $b4b6
b4a5: ce        pop   x
b4a6: 00        nop
b4a7: f2 1e     clr7  $1e
b4a9: 10 94     bpl   $b43f
b4ab: 2e 02 f1  cbne  $02,$b49e
b4ae: f1        tcall 15
b4af: 10 23     bpl   $b4d4
b4b1: d4 11     mov   $11+x,a
b4b3: 84 2f     adc   a,$2f
b4b5: 41        tcall 4
b4b6: ee        pop   y
b4b7: 5a 50     cmpw  ya,$50
b4b9: 02 a4     set0  $a4
b4bb: b1        tcall 11
b4bc: 84 a2     adc   a,$a2
b4be: 0f        brk
b4bf: c4 ea     mov   $ea,a
b4c1: 3d        inc   x
b4c2: 0d        push  psw
b4c3: f2 2f     clr7  $2f
b4c5: 90 ce     bcc   $b495
b4c7: d0 00     bne   $b4c9
b4c9: f1        tcall 15
b4ca: f4 03     mov   a,$03+x
b4cc: 44 32     eor   a,$32
b4ce: 94 13     adc   a,$13+x
b4d0: e4 ef     mov   a,$ef
b4d2: 01        tcall 0
b4d3: 20        clrp
b4d4: e2 f0     set7  $f0
b4d6: 0f        brk
b4d7: 84 1f     adc   a,$1f
b4d9: fd        mov   y,a
b4da: 0e e3 ce  tset1 $cee3
b4dd: 0f        brk
b4de: ee        pop   y
b4df: 3c        rol   a
b4e0: 84 0f     adc   a,$0f
b4e2: 2f 2e     bra   $b512
b4e4: 5d        mov   x,a
b4e5: 10 f0     bpl   $b4d7
b4e7: 22 2f     set1  $2f
b4e9: 94 10     adc   a,$10+x
b4eb: 3e 01     cmp   x,$01
b4ed: 2f 1f     bra   $b50e
b4ef: 20        clrp
b4f0: 4e 0e 84  tclr1 $840e
b4f3: 5b 4e     lsr   $4e+x
b4f5: 01        tcall 0
b4f6: ff        stop
b4f7: ee        pop   y
b4f8: 2e 3d 0f  cbne  $3d,$b509
b4fb: 84 0d     adc   a,$0d
b4fd: f2 1a     clr7  $1a
b4ff: 24 e1     and   a,$e1
b501: f0 d4     beq   $b4d7
b503: 10 84     bpl   $b489
b505: 02 2e     set0  $2e
b507: 0e 14 f2  tset1 $f214
b50a: e1        tcall 14
b50b: 03 c3 85  bbs0  $c3,$b492
b50e: d4 f2     mov   $f2+x,a
b510: d2 d3     clr6  $d3
b512: d3 c1 00  bbc6  $c1,$b514
b515: 00        nop
b516: 00        nop
b517: 00        nop
b518: 00        nop
b519: 00        nop
b51a: 00        nop
b51b: 00        nop
b51c: 00        nop
b51d: 00        nop
b51e: 00        nop
b51f: b0 de     bcs   $b4ff
b521: 10 de     bpl   $b501
b523: df        daa   a
b524: 15 d2 1c  or    a,$1cd2+x
b527: 10 b0     bpl   $b4d9
b529: 00        nop
b52a: 3c        rol   a
b52b: cd ae     mov   x,#$ae
b52d: 23 11 0e  bbs1  $11,$b53d
b530: 0d        push  psw
b531: c0        di
b532: 13 e0 e2  bbc0  $e0,$b516
b535: 00        nop
b536: f3 00 10  bbc7  $00,$b548
b539: c0        di
b53a: c0        di
b53b: 1c        asl   a
b53c: 20        clrp
b53d: 11        tcall 1
b53e: 12 c1     clr0  $c1
b540: 1d        dec   x
b541: e2 0c     set7  $0c
b543: c0        di
b544: 00        nop
b545: e0        clrv
b546: 0d        push  psw
b547: f4 e2     mov   a,$e2+x
b549: 21        tcall 2
b54a: e2 4c     set7  $4c
b54c: c0        di
b54d: 33 ed 3b  bbc1  $ed,$b58a
b550: 10 eb     bpl   $b53d
b552: 2f e0     bra   $b534
b554: 00        nop
b555: b0 20     bcs   $b577
b557: 3d        inc   x
b558: a4 bd     sbc   a,$bd
b55a: 1e d4 6b  cmp   x,$6bd4
b55d: 05 c0 1e  or    a,$1ec0
b560: 2d        push  a
b561: 0c 3f 30  asl   $303f
b564: e1        tcall 14
b565: 0e 1f c0  tset1 $c01f
b568: 02 c0     set0  $c0
b56a: 3e f2     cmp   x,$f2
b56c: d3 20 f5  bbc6  $20,$b563
b56f: 0d        push  psw
b570: c0        di
b571: 2c 0e 01  rol   $010e
b574: ff        stop
b575: f2 f0     clr7  $f0
b577: 2e f0 c0  cbne  $f0,$b539
b57a: fb 4d     mov   y,$4d+x
b57c: e2 1d     set7  $1d
b57e: 21        tcall 2
b57f: c2 0c     set6  $0c
b581: 3e c0     cmp   x,$c0
b583: d3 de 1f  bbc6  $de,$b5a4
b586: 2f f0     bra   $b578
b588: 2d        push  a
b589: f4 ed     mov   a,$ed+x
b58b: c0        di
b58c: 10 f3     bpl   $b581
b58e: f0 32     beq   $b5c2
b590: a2 fb     set5  $fb
b592: 13 d0 c0  bbc0  $d0,$b554
b595: 1b 21     asl   $21+x
b597: 2f f1     bra   $b58a
b599: 01        tcall 0
b59a: f2 00     clr7  $00
b59c: 40        setp
b59d: b0 3d     bcs   $b5dc
b59f: d2 4b     clr6  $4b
b5a1: 01        tcall 0
b5a2: 1d        dec   x
b5a3: 1f 01 d2  jmp   ($d201+x)
b5a6: c0        di
b5a7: 0f        brk
b5a8: 0f        brk
b5a9: ff        stop
b5aa: f0 2b     beq   $b5d7
b5ac: 2f fc     bra   $b5aa
b5ae: 1e c0 fe  cmp   x,$fec0
b5b1: f0 fe     beq   $b5b1
b5b3: 4e 4d f1  tclr1 $f14d
b5b6: 2e 01 c0  cbne  $01,$b578
b5b9: 11        tcall 1
b5ba: e2 0f     set7  $0f
b5bc: 2e fe a1  cbne  $fe,$b55f
b5bf: 2e d0 c0  cbne  $d0,$b581
b5c2: 2b 3f     rol   $3f
b5c4: 00        nop
b5c5: fd        mov   y,a
b5c6: 2c ee 0f  rol   $0fee
b5c9: 01        tcall 0
b5ca: b0 f5     bcs   $b5c1
b5cc: 3e 20     cmp   x,$20
b5ce: 02 2f     set0  $2f
b5d0: fd        mov   y,a
b5d1: e6        mov   a,(x)
b5d2: c2 c0     set6  $c0
b5d4: 00        nop
b5d5: d4 ef     mov   $ef+x,a
b5d7: ff        stop
b5d8: f2 ee     clr7  $ee
b5da: 40        setp
b5db: ff        stop
b5dc: c0        di
b5dd: 02 c1     set0  $c1
b5df: 11        tcall 1
b5e0: ff        stop
b5e1: ff        stop
b5e2: 3c        rol   a
b5e3: 30 00     bmi   $b5e5
b5e5: b0 d2     bcs   $b5b9
b5e7: 20        clrp
b5e8: e4 1d     mov   a,$1d
b5ea: 01        tcall 0
b5eb: ed        notc
b5ec: 15 fb c0  or    a,$c0fb+x
b5ef: 1f eb 1f  jmp   ($1feb+x)
b5f2: 0f        brk
b5f3: 01        tcall 0
b5f4: 3a 3e     incw  $3e
b5f6: 0e c0 2f  tset1 $2fc0
b5f9: ff        stop
b5fa: 00        nop
b5fb: 4e 02 2a  tclr1 $2a02
b5fe: 10 fd     bpl   $b5fd
b600: b0 02     bcs   $b604
b602: c0        di
b603: f2 bf     clr7  $bf
b605: b1        tcall 11
b606: d0 29     bne   $b631
b608: 4a b0 1b  and1  c,$0376,0
b60b: 11        tcall 1
b60c: 16 fd 30  or    a,$30fd+y
b60f: 09 4e d1  or    ($d1),($4e)
b612: b0 f2     bcs   $b606
b614: 4b 35     lsr   $35
b616: 0d        push  psw
b617: 01        tcall 0
b618: ae        pop   a
b619: 1a 2f     decw  $2f
b61b: c0        di
b61c: d0 fe     bne   $b61c
b61e: 2c 2e ed  rol   $ed2e
b621: 0f        brk
b622: d0 f1     bne   $b615
b624: c0        di
b625: 03 a2 b1  bbs0  $a2,$b5d8
b628: d3 10 e0  bbc6  $10,$b60a
b62b: 30 0f     bmi   $b63c
b62d: c0        di
b62e: 01        tcall 0
b62f: 00        nop
b630: 11        tcall 1
b631: 0f        brk
b632: 11        tcall 1
b633: 1d        dec   x
b634: 2a 0d b0  or1   c,!($1601,5)
b637: 0d        push  psw
b638: de db 4b  cbne  $db+x,$b685
b63b: 4e ec 3c  tclr1 $3cec
b63e: df        daa   a
b63f: c0        di
b640: 2c 04 0e  rol   $0e04
b643: 3d        inc   x
b644: 01        tcall 0
b645: 3b 32     rol   $32+x
b647: c3 b0 0d  bbs6  $b0,$b656
b64a: 1d        dec   x
b64b: 0d        push  psw
b64c: 4b 20     lsr   $20
b64e: fe de     dbnz  y,$b62e
b650: 20        clrp
b651: c0        di
b652: c2 f0     set6  $f0
b654: 0e 00 ee  tset1 $ee00
b657: 13 d1 1b  bbc0  $d1,$b674
b65a: c0        di
b65b: 3c        rol   a
b65c: 02 f0     set0  $f0
b65e: 00        nop
b65f: 0d        push  psw
b660: 1a 13     decw  $13
b662: cf        mul   ya
b663: c0        di
b664: 0f        brk
b665: 2c fd 1e  rol   $1efd
b668: f1        tcall 15
b669: 10 e0     bpl   $b64b
b66b: 1f b0 f4  jmp   ($f4b0+x)
b66e: e4 fe     mov   a,$fe
b670: e0        clrv
b671: 20        clrp
b672: b2 ff     clr5  $ff
b674: e1        tcall 14
b675: c0        di
b676: 0f        brk
b677: 10 0f     bpl   $b688
b679: c1        tcall 12
b67a: 01        tcall 0
b67b: c1        tcall 12
b67c: f1        tcall 15
b67d: cf        mul   ya
b67e: c0        di
b67f: fd        mov   y,a
b680: 0e f0 d1  tset1 $d1f0
b683: c2 1d     set6  $1d
b685: 2e 1d b0  cbne  $1d,$b637
b688: 3f 03 ef  call  $ef03
b68b: 01        tcall 0
b68c: 1b e2     asl   $e2+x
b68e: 4f f9     pcall $f9
b690: b0 7c     bcs   $b70e
b692: ef        sleep
b693: 1f 94 1c  jmp   ($1c94+x)
b696: 1a f4     decw  $f4
b698: c2 b0     set6  $b0
b69a: 11        tcall 1
b69b: ed        notc
b69c: f2 b2     clr7  $b2
b69e: c0        di
b69f: fc        inc   y
b6a0: 0d        push  psw
b6a1: 5e c0 1e  cmp   y,$1ec0
b6a4: 2f 0e     bra   $b6b4
b6a6: 0b 1f     asl   $1f
b6a8: 1f 21 ff  jmp   ($ff21+x)
b6ab: c0        di
b6ac: f1        tcall 15
b6ad: f1        tcall 15
b6ae: f1        tcall 15
b6af: e2 b0     set7  $b0
b6b1: 30 e3     bmi   $b696
b6b3: ff        stop
b6b4: c0        di
b6b5: 1f f1 0f  jmp   ($0ff1+x)
b6b8: 10 bf     bpl   $b679
b6ba: 2d        push  a
b6bb: f2 0e     clr7  $0e
b6bd: c0        di
b6be: f0 b2     beq   $b672
b6c0: fe f1     dbnz  y,$b6b3
b6c2: 0d        push  psw
b6c3: 21        tcall 2
b6c4: df        daa   a
b6c5: ef        sleep
b6c6: b0 c2     bcs   $b68a
b6c8: cf        mul   ya
b6c9: 0e c4 90  tset1 $90c4
b6cc: d2 00     clr6  $00
b6ce: 94 c0     adc   a,$c0+x
b6d0: ef        sleep
b6d1: 10 20     bpl   $b6f3
b6d3: 2e 11 e1  cbne  $11,$b6b6
b6d6: 3d        inc   x
b6d7: 0e c0 0d  tset1 $0dc0
b6da: f2 c0     clr7  $c0
b6dc: df        daa   a
b6dd: e2 c1     set7  $c1
b6df: f0 d0     beq   $b6b1
b6e1: c0        di
b6e2: 00        nop
b6e3: fe 5e     dbnz  y,$b743
b6e5: d2 df     clr6  $df
b6e7: 00        nop
b6e8: 00        nop
b6e9: 0d        push  psw
b6ea: b0 e0     bcs   $b6cc
b6ec: c3 af 2d  bbs6  $af,$b71b
b6ef: f1        tcall 15
b6f0: b3 2d 21  bbc5  $2d,$b713
b6f3: b0 1c     bcs   $b711
b6f5: 3f ee 3a  call  $3aee
b6f8: 6a dc 21  and1  c,!($043b,4)
b6fb: df        daa   a
b6fc: b0 3a     bcs   $b738
b6fe: 4c 2c 3d  lsr   $3d2c
b701: f2 fc     clr7  $fc
b703: 4e ee b0  tclr1 $b0ee
b706: ef        sleep
b707: ee        pop   y
b708: 1c        asl   a
b709: 2d        push  a
b70a: d1        tcall 13
b70b: f4 d0     mov   a,$d0+x
b70d: 4c b0 22  lsr   $22b0
b710: fd        mov   y,a
b711: 2e 1e 2e  cbne  $1e,$b741
b714: 5e ff 3e  cmp   y,$3eff
b717: b0 f1     bcs   $b70a
b719: fc        inc   y
b71a: e6        mov   a,(x)
b71b: ee        pop   y
b71c: 01        tcall 0
b71d: 0e c1 fd  tset1 $fdc1
b720: b0 ea     bcs   $b70c
b722: 3b d1     rol   $d1+x
b724: 0c 23 bf  asl   $bf23
b727: ef        sleep
b728: 00        nop
b729: b0 5a     bcs   $b785
b72b: 03 d0 1a  bbs0  $d0,$b747
b72e: 41        tcall 4
b72f: e1        tcall 14
b730: c0        di
b731: 1f a0 ee  jmp   ($eea0+x)
b734: ed        notc
b735: 22 b1     set1  $b1
b737: 09 7e 9f  or    ($9f),($7e)
b73a: 39        and   (x),(y)
b73b: b0 f1     bcs   $b72e
b73d: c0        di
b73e: e1        tcall 14
b73f: ff        stop
b740: fe 01     dbnz  y,$b743
b742: c2 1e     set6  $1e
b744: a0        ei
b745: e3 96 2c  bbs7  $96,$b773
b748: 13 a2 1e  bbc0  $a2,$b768
b74b: b3 91 b0  bbc5  $91,$b6fd
b74e: ef        sleep
b74f: 01        tcall 0
b750: e1        tcall 14
b751: ff        stop
b752: 00        nop
b753: 5c        lsr   a
b754: 10 c4     bpl   $b71a
b756: b0 0f     bcs   $b767
b758: f0 4e     beq   $b7a8
b75a: 40        setp
b75b: fd        mov   y,a
b75c: 4d        push  x
b75d: c1        tcall 12
b75e: ee        pop   y
b75f: b0 e2     bcs   $b743
b761: c2 2f     set6  $2f
b763: 01        tcall 0
b764: fd        mov   y,a
b765: 14 d1     or    a,$d1+x
b767: 1f b0 1e  jmp   ($1eb0+x)
b76a: 2c 2d 1e  rol   $1e2d
b76d: 5b 31     lsr   $31+x
b76f: 00        nop
b770: 12 b0     clr0  $b0
b772: ee        pop   y
b773: 3f f0 e2  call  $e2f0
b776: e2 d4     set7  $d4
b778: fe e2     dbnz  y,$b75c
b77a: a0        ei
b77b: da 2e     movw  $2e,ya
b77d: d1        tcall 13
b77e: ec a7 b3  mov   y,$b3a7
b781: 3b 0e     rol   $0e+x
b783: a0        ei
b784: 2c 2b f1  rol   $f12b
b787: 00        nop
b788: b1        tcall 11
b789: e2 f0     set7  $f0
b78b: c1        tcall 12
b78c: a0        ei
b78d: 40        setp
b78e: d3 d3 c4  bbc6  $d3,$b754
b791: b5 90 e6  sbc   a,$e690+x
b794: af        mov   (x)+,a
b795: b0 2f     bcs   $b7c6
b797: d2 ff     clr6  $ff
b799: 06        or    a,(x)
b79a: d2 f1     clr6  $f1
b79c: e2 fe     set7  $fe
b79e: a0        ei
b79f: 02 d1     set0  $d1
b7a1: d6 b6 b1  mov   $b1b6+y,a
b7a4: 1f b6 cd  jmp   ($cdb6+x)
b7a7: a0        ei
b7a8: e1        tcall 14
b7a9: d2 b5     clr6  $b5
b7ab: b3 fb 2e  bbc5  $fb,$b7db
b7ae: 19        or    (x),(y)
b7af: 6e a0 0e  dbnz  $a0,$b7bf
b7b2: ff        stop
b7b3: 5c        lsr   a
b7b4: c5 fe e0  mov   $e0fe,a
b7b7: e0        clrv
b7b8: e0        clrv
b7b9: a0        ei
b7ba: a4 0d     sbc   a,$0d
b7bc: e3 c0 4c  bbs7  $c0,$b80a
b7bf: 34 0e     and   a,$0e+x
b7c1: f1        tcall 15
b7c2: a0        ei
b7c3: c2 fe     set6  $fe
b7c5: f0 b1     beq   $b778
b7c7: 5a 00     cmpw  ya,$00
b7c9: 1b 3c     asl   $3c+x
b7cb: a0        ei
b7cc: f0 0b     beq   $b7d9
b7ce: 4f 0f     pcall $0f
b7d0: ef        sleep
b7d1: d1        tcall 13
b7d2: 0c 10 a0  asl   $a010
b7d5: e2 d3     set7  $d3
b7d7: d4 e0     mov   $e0+x,a
b7d9: 0e 21 f5  tset1 $f521
b7dc: d4 a0     mov   $a0+x,a
b7de: 12 24     clr0  $24
b7e0: 02 11     set0  $11
b7e2: c1        tcall 12
b7e3: c3 d2 d1  bbs6  $d2,$b7b6
b7e6: a0        ei
b7e7: 4a d4 dd  and1  c,$1bba,4
b7ea: 6b f3     ror   $f3
b7ec: b1        tcall 11
b7ed: fc        inc   y
b7ee: 00        nop
b7ef: a0        ei
b7f0: f9 7c     mov   x,$7c+y
b7f2: 4d        push  x
b7f3: 59        eor   (x),(y)
b7f4: 5e 0e 1b  cmp   y,$1b0e
b7f7: 30 b0     bmi   $b7a9
b7f9: 0f        brk
b7fa: 1d        dec   x
b7fb: 4e 3f 0e  tclr1 $0e3f
b7fe: 11        tcall 1
b7ff: f0 1d     beq   $b81e
b801: a0        ei
b802: 01        tcall 0
b803: c4 0b     mov   $0b,a
b805: e2 c1     set7  $c1
b807: 1d        dec   x
b808: 0f        brk
b809: fb b0     mov   y,$b0+x
b80b: 0c 2e 0e  asl   $0e2e
b80e: ef        sleep
b80f: 0e 0e 3d  tset1 $3d0e
b812: 11        tcall 1
b813: a0        ei
b814: 0c 3f 12  asl   $123f
b817: 31        tcall 3
b818: d5 01 f2  mov   $f201+x,a
b81b: ef        sleep
b81c: a0        ei
b81d: 31        tcall 3
b81e: c6        mov   (x),a
b81f: b0 12     bcs   $b833
b821: d1        tcall 13
b822: 3f e0 ed  call  $ede0
b825: a0        ei
b826: 3b e1     rol   $e1+x
b828: de b4 a0  cbne  $b4+x,$b7ca
b82b: 01        tcall 0
b82c: d2 e3     clr6  $e3
b82e: a0        ei
b82f: 01        tcall 0
b830: 1d        dec   x
b831: 10 c3     bpl   $b7f6
b833: df        daa   a
b834: 10 2e     bpl   $b864
b836: 1d        dec   x
b837: a0        ei
b838: 4d        push  x
b839: 1e 1c 1e  cmp   x,$1e1c
b83c: e0        clrv
b83d: fe fe     dbnz  y,$b83d
b83f: c0        di
b840: a0        ei
b841: ef        sleep
b842: 00        nop
b843: f2 c0     clr7  $c0
b845: 0e d1 f0  tset1 $f0d1
b848: 0f        brk
b849: a0        ei
b84a: c0        di
b84b: 1d        dec   x
b84c: 41        tcall 4
b84d: f1        tcall 15
b84e: 1e 11 04  cmp   x,$0411
b851: de a0 d2  cbne  $a0+x,$b825
b854: fa 11 f0  mov   ($f0),($11)
b857: cf        mul   ya
b858: fe cf     dbnz  y,$b829
b85a: 4b a0     lsr   $a0
b85c: fd        mov   y,a
b85d: 10 2e     bpl   $b88d
b85f: 00        nop
b860: fe 13     dbnz  y,$b875
b862: c1        tcall 12
b863: 02 a0     set0  $a0
b865: e0        clrv
b866: d1        tcall 13
b867: 00        nop
b868: f0 c3     beq   $b82d
b86a: f1        tcall 15
b86b: d2 1e     clr6  $1e
b86d: a0        ei
b86e: 1e 1e d2  cmp   x,$d21e
b871: 1a 2c     decw  $2c
b873: 10 ef     bpl   $b864
b875: f2 a0     clr7  $a0
b877: b2 ef     clr5  $ef
b879: 02 c1     set0  $c1
b87b: f0 a3     beq   $b820
b87d: 0c 04 a0  asl   $a004
b880: d0 0c     bne   $b88e
b882: 0f        brk
b883: 0c 31 ff  asl   $ff31
b886: 20        clrp
b887: f1        tcall 15
b888: 90 fe     bcc   $b888
b88a: 24 e5     and   a,$e5
b88c: e0        clrv
b88d: d5 ec d1  mov   $d1ec+x,a
b890: 91        tcall 9
b891: a0        ei
b892: 2d        push  a
b893: 10 1f     bpl   $b8b4
b895: 1d        dec   x
b896: 00        nop
b897: ef        sleep
b898: 3c        rol   a
b899: f3 90 c0  bbc7  $90,$b85b
b89c: 0b e1     asl   $e1
b89e: ea 2c b0  not1  $1605,4
b8a1: e1        tcall 14
b8a2: 2f a0     bra   $b844
b8a4: 21        tcall 2
b8a5: 0e 2f f1  tset1 $f12f
b8a8: 00        nop
b8a9: 12 e2     clr0  $e2
b8ab: 0b a0     asl   $a0
b8ad: 1d        dec   x
b8ae: 0e 2a 2e  tset1 $2e2a
b8b1: b2 02     clr5  $02
b8b3: f0 e1     beq   $b896
b8b5: a0        ei
b8b6: f3 c3 00  bbc7  $c3,$b8b8
b8b9: ef        sleep
b8ba: 01        tcall 0
b8bb: d2 ed     clr6  $ed
b8bd: 4f a0     pcall $a0
b8bf: e0        clrv
b8c0: 2e 13 ff  cbne  $13,$b8c1
b8c3: 30 f4     bmi   $b8b9
b8c5: c3 10 a0  bbs6  $10,$b867
b8c8: 12 10     clr0  $10
b8ca: e0        clrv
b8cb: c4 a1     mov   $a1,a
b8cd: d0 0f     bne   $b8de
b8cf: e1        tcall 14
b8d0: 90 e1     bcc   $b8b3
b8d2: ff        stop
b8d3: 4d        push  x
b8d4: 3d        inc   x
b8d5: e0        clrv
b8d6: bf        mov   a,(x)+
b8d7: d0 fb     bne   $b8d4
b8d9: 90 ef     bcc   $b8ca
b8db: 0e 96 ee  tset1 $ee96
b8de: e1        tcall 14
b8df: 01        tcall 0
b8e0: b4 4c     sbc   a,$4c+x
b8e2: a0        ei
b8e3: 3d        inc   x
b8e4: 2f fe     bra   $b8e4
b8e6: 1f 0f f0  jmp   ($f00f+x)
b8e9: ff        stop
b8ea: f3 90 e0  bbc7  $90,$b8cc
b8ed: c4 c0     mov   $c0,a
b8ef: c3 c3 d1  bbs6  $c3,$b8c2
b8f2: 0b 5c     asl   $5c
b8f4: 90 e0     bcc   $b8d6
b8f6: d1        tcall 13
b8f7: f3 af 2b  bbc7  $af,$b924
b8fa: 15 a2 1e  or    a,$1ea2+x
b8fd: 90 c3     bcc   $b8c2
b8ff: e0        clrv
b900: df        daa   a
b901: e2 ab     set7  $ab
b903: 1d        dec   x
b904: 3f 94 90  call  $9094
b907: c2 d1     set6  $d1
b909: 5e 20 5f  cmp   y,$5f20
b90c: 0f        brk
b90d: 41        tcall 4
b90e: de 90 31  cbne  $90+x,$b941
b911: d3 b2 cc  bbc6  $b2,$b8df
b914: 2e 0c d1  cbne  $0c,$b8e7
b917: e0        clrv
b918: 90 1d     bcc   $b937
b91a: 1f 2f fa  jmp   ($fa2f+x)
b91d: 4f fb     pcall $fb
b91f: 5c        lsr   a
b920: c3 90 1d  bbs6  $90,$b93f
b923: ee        pop   y
b924: 1d        dec   x
b925: 3a f0     incw  $f0
b927: 1e f1 dc  cmp   x,$dcf1
b92a: a0        ei
b92b: 21        tcall 2
b92c: 00        nop
b92d: f0 0f     beq   $b93e
b92f: fe 1f     dbnz  y,$b950
b931: df        daa   a
b932: 0d        push  psw
b933: 90 3f     bcc   $b974
b935: de 0c d3  cbne  $0c+x,$b90a
b938: df        daa   a
b939: 0d        push  psw
b93a: 5d        mov   x,a
b93b: 2d        push  a
b93c: 90 00     bcc   $b93e
b93e: b2 c1     clr5  $c1
b940: 1f e2 e0  jmp   ($e0e2+x)
b943: 0d        push  psw
b944: 1e a0 ff  cmp   x,$ffa0
b947: 1c        asl   a
b948: 1f 00 fe  jmp   ($fe00+x)
b94b: 0f        brk
b94c: e1        tcall 14
b94d: f0 90     beq   $b8df
b94f: 30 f1     bmi   $b942
b951: ff        stop
b952: b4 de     sbc   a,$de+x
b954: 1f f1 ec  jmp   ($ecf1+x)
b957: 90 5f     bcc   $b9b8
b959: d1        tcall 13
b95a: 00        nop
b95b: d1        tcall 13
b95c: ed        notc
b95d: 1d        dec   x
b95e: ef        sleep
b95f: fe 90     dbnz  y,$b8f1
b961: fe 0e     dbnz  y,$b971
b963: d3 1f fd  bbc6  $1f,$b962
b966: e0        clrv
b967: ce        pop   x
b968: 21        tcall 2
b969: 80        setc
b96a: fd        mov   y,a
b96b: d2 12     clr6  $12
b96d: dd        mov   a,y
b96e: 30 93     bmi   $b903
b970: 0c e7 90  asl   $90e7
b973: b4 1c     sbc   a,$1c+x
b975: 20        clrp
b976: 1d        dec   x
b977: 00        nop
b978: ff        stop
b979: ef        sleep
b97a: ff        stop
b97b: 90 c1     bcc   $b93e
b97d: 2b 0f     rol   $0f
b97f: f0 fe     beq   $b97f
b981: e1        tcall 14
b982: 1b 04     asl   $04+x
b984: 80        setc
b985: be        das   a
b986: 4c 4f ee  lsr   $ee4f
b989: 1e e1 14  cmp   x,$14e1
b98c: de 90 02  cbne  $90+x,$b990
b98f: fd        mov   y,a
b990: fd        mov   y,a
b991: 0e 2d 5f  tset1 $5f2d
b994: f4 cf     mov   a,$cf+x
b996: 90 1a     bcc   $b9b2
b998: 4e ee 0f  tclr1 $0fee
b99b: 1e f1 e0  cmp   x,$e0f1
b99e: e2 90     set7  $90
b9a0: 1f c0 3f  jmp   ($3fc0+x)
b9a3: ea 51 b4  not1  $168a,1
b9a6: de 4d 90  cbne  $4d+x,$b938
b9a9: e4 df     mov   a,$df
b9ab: 11        tcall 1
b9ac: 0c f1 0d  asl   $0df1
b9af: 1f f0 90  jmp   ($90f0+x)
b9b2: 2b f3     rol   $f3
b9b4: fd        mov   y,a
b9b5: 2f e1     bra   $b998
b9b7: 0e 2f c0  tset1 $c02f
b9ba: 90 ff     bcc   $b9bb
b9bc: d0 2e     bne   $b9ec
b9be: f1        tcall 15
b9bf: 01        tcall 0
b9c0: c1        tcall 12
b9c1: f0 fe     beq   $b9c1
b9c3: 90 c3     bcc   $b988
b9c5: bf        mov   a,(x)+
b9c6: fe e3     dbnz  y,$b9ab
b9c8: c0        di
b9c9: f1        tcall 15
b9ca: f3 e1 90  bbc7  $e1,$b95c
b9cd: 00        nop
b9ce: 10 01     bpl   $b9d1
b9d0: 13 1c 3e  bbc0  $1c,$ba10
b9d3: 32 de     clr1  $de
b9d5: 90 0c     bcc   $b9e3
b9d7: 0e d2 cc  tset1 $ccd2
b9da: e1        tcall 14
b9db: ce        pop   x
b9dc: b2 df     clr5  $df
b9de: 90 f1     bcc   $b9d1
b9e0: c3 d0 3a  bbs6  $d0,$ba1c
b9e3: 02 f0     set0  $f0
b9e5: ff        stop
b9e6: 20        clrp
b9e7: 80        setc
b9e8: 10 f1     bpl   $b9db
b9ea: 2e 03 00  cbne  $03,$b9ec
b9ed: 1e 1c 2c  cmp   x,$2c1c
b9f0: 80        setc
b9f1: 0f        brk
b9f2: 91        tcall 9
b9f3: ea e0 d0  not1  $1a1c,0
b9f6: c0        di
b9f7: e2 e4     set7  $e4
b9f9: 90 c1     bcc   $b9bc
b9fb: d1        tcall 13
b9fc: ee        pop   y
b9fd: 22 ef     set1  $ef
b9ff: fd        mov   y,a
ba00: 1f d1 80  jmp   ($80d1+x)
ba03: e9 10 c0  mov   x,$c010
ba06: c5 ee fd  mov   $fdee,a
ba09: 33 c2 90  bbc1  $c2,$b99b
ba0c: f2 1f     clr7  $1f
ba0e: 12 ef     clr0  $ef
ba10: 1d        dec   x
ba11: 2e d3 0e  cbne  $d3,$ba21
ba14: 90 20     bcc   $ba36
ba16: c0        di
ba17: 00        nop
ba18: 02 de     set0  $de
ba1a: 02 cf     set0  $cf
ba1c: 0f        brk
ba1d: 80        setc
ba1e: 2a cf ee  or1   c,!($1dd9,7)
ba21: cd 10     mov   x,#$10
ba23: f0 1c     beq   $ba41
ba25: 1e 81 30  cmp   x,$3081
ba28: e1        tcall 14
ba29: f3 0f 12  bbc7  $0f,$ba3d
ba2c: d1        tcall 13
ba2d: de 5c 02  cbne  $5c+x,$ba31
ba30: 00        nop
ba31: 00        nop
ba32: 00        nop
ba33: 00        nop
ba34: 00        nop
ba35: 00        nop
ba36: 00        nop
ba37: 00        nop
ba38: ba 00     movw  ya,$00
ba3a: 00        nop
ba3b: 00        nop
ba3c: 00        nop
ba3d: 00        nop
ba3e: 23 1b e4  bbs1  $1b,$ba24
ba41: aa 5d c2  mov1  c,$184b,5
ba44: 31        tcall 3
ba45: f0 12     beq   $ba59
ba47: 10 01     bpl   $ba4a
ba49: 11        tcall 1
ba4a: 76 54 12  cmp   a,$1254+y
ba4d: 11        tcall 1
ba4e: 10 fe     bpl   $ba4e
ba50: dc        dec   y
ba51: ef        sleep
ba52: dc        dec   y
ba53: ba 03     movw  ya,$03
ba55: 3d        inc   x
ba56: b2 30     clr5  $30
ba58: f0 00     beq   $ba5a
ba5a: 01        tcall 0
ba5b: 00        nop
ba5c: aa f1 00  mov1  c,$001e,1
ba5f: f0 01     beq   $ba62
ba61: 63 b9 15  bbs3  $b9,$ba78
ba64: 1d        dec   x
ba65: 8a b6 5f  eor1  c,$0bf6,6
ba68: cf        mul   ya
ba69: 21        tcall 2
ba6a: ef        sleep
ba6b: f0 ff     beq   $ba6c
ba6d: ef        sleep
ba6e: 7a ed     addw  ya,$ed
ba70: cd dc     mov   x,#$dc
ba72: cc cb bb  mov   $bbcb,y
ba75: cb aa     mov   $aa,y
ba77: 8a ed dd  eor1  c,$1bbd,5
ba7a: dd        mov   a,y
ba7b: cd dd     mov   x,#$dd
ba7d: cd cc     mov   x,#$cc
ba7f: de ba 0f  cbne  $ba+x,$ba90
ba82: f2 60     clr7  $60
ba84: ab 03     inc   $03
ba86: 20        clrp
ba87: ef        sleep
ba88: 01        tcall 0
ba89: aa 10 ff  mov1  c,$1fe2,0
ba8c: 00        nop
ba8d: 0f        brk
ba8e: 27 5d     and   a,($5d+x)
ba90: bc        inc   a
ba91: d3 a6 25  bbc6  $a6,$bab8
ba94: 41        tcall 4
ba95: ff        stop
ba96: 01        tcall 0
ba97: 22 0f     set1  $0f
ba99: 01        tcall 0
ba9a: 10 76     bpl   $bb12
ba9c: 0f        brk
ba9d: 0f        brk
ba9e: 00        nop
ba9f: fe dc     dbnz  y,$ba7d
baa1: bb cc     inc   $cc+x
baa3: db aa     mov   $aa+x,y
baa5: 04 5f     or    a,$5f
baa7: ac 14 20  inc   $2014
baaa: ef        sleep
baab: 02 10     set0  $10
baad: aa ff 01  mov1  c,$003f,7
bab0: 0f        brk
bab1: 15 2e dd  or    a,$dd2e+x
bab4: f2 31     clr7  $31
bab6: 8a c9 d2  eor1  c,$1a59,1
bab9: 32 0e     clr1  $0e
babb: ef        sleep
babc: 00        nop
babd: 0f        brk
babe: ee        pop   y
babf: 7a fe     addw  ya,$fe
bac1: dd        mov   a,y
bac2: dc        dec   y
bac3: cd cc     mov   x,#$cc
bac5: cb bc     mov   $bc,y
bac7: cb 8a     mov   $8a,y
bac9: dd        mov   a,y
baca: ed        notc
bacb: dd        mov   a,y
bacc: ed        notc
bacd: cd dd     mov   x,#$dd
bacf: cd de     mov   x,#$de
bad1: aa ff 14  mov1  c,$029f,7
bad4: 50 ca     bvc   $baa0
bad6: bf        mov   a,(x)+
bad7: 23 22 fe  bbs1  $22,$bad7
bada: aa ef 01  mov1  c,$003d,7
badd: 11        tcall 1
bade: 02 43     set0  $43
bae0: fe de     dbnz  y,$bac0
bae2: f1        tcall 15
bae3: 9a 56     subw  ya,$56
bae5: 41        tcall 4
bae6: 0f        brk
bae7: ff        stop
bae8: 13 31 11  bbc0  $31,$bafb
baeb: 00        nop
baec: 7a 02     addw  ya,$02
baee: 36 33 10  and   a,$1033+y
baf1: 01        tcall 0
baf2: 10 12     bpl   $bb06
baf4: 1f 9a 15  jmp   ($159a+x)
baf7: 71        tcall 7
baf8: ca cf 24  mov1  $0499,7,c
bafb: 31        tcall 3
bafc: ff        stop
bafd: ff        stop
bafe: 9a 01     subw  ya,$01
bb00: 10 02     bpl   $bb04
bb02: 53 fd de  bbc2  $fd,$bae2
bb05: e0        clrv
bb06: 23 8a 30  bbs1  $8a,$bb38
bb09: fe ee     dbnz  y,$baf9
bb0b: f0 11     beq   $bb1e
bb0d: 0f        brk
bb0e: ee        pop   y
bb0f: ef        sleep
bb10: 7a de     addw  ya,$de
bb12: ee        pop   y
bb13: cb cc     mov   $cc,y
bb15: cb cc     mov   $cc,y
bb17: cb ab     mov   $ab,y
bb19: 7a ab     addw  ya,$ab
bb1b: ba aa     movw  ya,$aa
bb1d: aa aa 9a  mov1  c,$1355,2
bb20: 99        adc   (x),(y)
bb21: aa 9a ef  mov1  c,$1df3,2
bb24: 36 61 c9  and   a,$c961+y
bb27: ab d0     inc   $d0
bb29: 24 32     and   a,$32
bb2b: 9a 0f     subw  ya,$0f
bb2d: ef        sleep
bb2e: f1        tcall 15
bb2f: 57 40     eor   a,($40)+y
bb31: ef        sleep
bb32: fe ef     dbnz  y,$bb23
bb34: 9a 13     subw  ya,$13
bb36: 44 31     eor   a,$31
bb38: 01        tcall 0
bb39: 00        nop
bb3a: f1        tcall 15
bb3b: 11        tcall 1
bb3c: 12 7a     clr0  $7a
bb3e: 62 22     set3  $22
bb40: 00        nop
bb41: 00        nop
bb42: 21        tcall 2
bb43: 21        tcall 2
bb44: 21        tcall 2
bb45: 0f        brk
bb46: 9a 14     subw  ya,$14
bb48: 42 fe     set2  $fe
bb4a: de ef 13  cbne  $ef+x,$bb5f
bb4d: 21        tcall 2
bb4e: 10 9a     bpl   $baea
bb50: ff        stop
bb51: f0 24     beq   $bb77
bb53: 30 ff     bmi   $bb54
bb55: fe ff     dbnz  y,$bb56
bb57: 00        nop
bb58: 7a 66     addw  ya,$66
bb5a: 62 0e     set3  $0e
bb5c: dd        mov   a,y
bb5d: dd        mov   a,y
bb5e: ef        sleep
bb5f: 00        nop
bb60: ff        stop
bb61: 7a ec     addw  ya,$ec
bb63: bc        inc   a
bb64: dd        mov   a,y
bb65: dd        mov   a,y
bb66: dd        mov   a,y
bb67: cd dc     mov   x,#$dc
bb69: ba 7a     movw  ya,$7a
bb6b: bb aa     inc   $aa+x
bb6d: aa bb bb  mov1  c,$1777,3
bb70: b9        sbc   (x),(y)
bb71: 9a aa     subw  ya,$aa
bb73: 9a f0     subw  ya,$f0
bb75: 23 31 fe  bbs1  $31,$bb75
bb78: dc        dec   y
bb79: de ef 12  cbne  $ef+x,$bb8d
bb7c: 8a 33 33  eor1  c,$0666,3
bb7f: 47 53     eor   a,($53+x)
bb81: 0f        brk
bb82: ff        stop
bb83: 0f        brk
bb84: ff        stop
bb85: 8a 02 45  eor1  c,$08a0,2
bb88: 55 43 21  eor   a,$2143+x
bb8b: 00        nop
bb8c: 10 00     bpl   $bb8e
bb8e: 6a 64 54  and1  c,!($0a8c,4)
bb91: 66        cmp   a,(x)
bb92: 53 30 ff  bbc2  $30,$bb93
bb95: 00        nop
bb96: 01        tcall 0
bb97: 8a 24 43  eor1  c,$0864,4
bb9a: 1f dd ee  jmp   ($eedd+x)
bb9d: ef        sleep
bb9e: 11        tcall 1
bb9f: 12 7a     clr0  $7a
bba1: 31        tcall 3
bba2: 26        and   a,(x)
bba3: 64 1e     cmp   a,$1e
bba5: ee        pop   y
bba6: ee        pop   y
bba7: dd        mov   a,y
bba8: ef        sleep
bba9: 7a 03     addw  ya,$03
bbab: 44 23     eor   a,$23
bbad: 31        tcall 3
bbae: 0f        brk
bbaf: fe ec     dbnz  y,$bb9d
bbb1: e0        clrv
bbb2: 7a fd     addw  ya,$fd
bbb4: ce        pop   x
bbb5: 01        tcall 0
bbb6: 0f        brk
bbb7: 0f        brk
bbb8: 0f        brk
bbb9: ff        stop
bbba: da 8a     movw  $8a,ya
bbbc: df        daa   a
bbbd: ec ce f0  mov   y,$f0ce
bbc0: ff        stop
bbc1: de ee dd  cbne  $ee+x,$bba0
bbc4: 7a d1     addw  ya,$d1
bbc6: 45 54 0d  eor   a,$0d54
bbc9: a9 aa aa  sbc   ($aa),($aa)
bbcc: cf        mul   ya
bbcd: 8a 01 35  eor1  c,$06a0,1
bbd0: 54 32     eor   a,$32+x
bbd2: 00        nop
bbd3: 00        nop
bbd4: 00        nop
bbd5: 00        nop
bbd6: 7a 0e     addw  ya,$0e
bbd8: f1        tcall 15
bbd9: 35 66 66  and   a,$6666+x
bbdc: 63 20 0f  bbs3  $20,$bbed
bbdf: 6a db ab  and1  c,!($157b,3)
bbe2: d2 34     clr6  $34
bbe4: 32 13     clr1  $13
bbe6: 33 12 7a  bbc1  $12,$bc62
bbe9: 11        tcall 1
bbea: 10 ec     bpl   $bbd8
bbec: ce        pop   x
bbed: 00        nop
bbee: ed        notc
bbef: de ff 7a  cbne  $ff+x,$bc6b
bbf2: 02 43     set0  $43
bbf4: 32 1f     clr1  $1f
bbf6: ff        stop
bbf7: ff        stop
bbf8: fe ee     dbnz  y,$bbe8
bbfa: 7a ef     addw  ya,$ef
bbfc: 12 45     clr0  $45
bbfe: 66        cmp   a,(x)
bbff: 53 22 ec  bbc2  $22,$bbed
bc02: f2 7a     clr7  $7a
bc04: fa be 14  mov   ($14),($be)
bc07: 55 45 54  eor   a,$5445+x
bc0a: 33 09 8a  bbc1  $09,$bb96
bc0d: ef        sleep
bc0e: db df     mov   $df+x,y
bc10: 12 21     clr0  $21
bc12: fe ff     dbnz  y,$bc13
bc14: ef        sleep
bc15: 6a de f3  and1  c,!($1e7b,6)
bc18: 32 0d     clr1  $0d
bc1a: cb aa     mov   $aa,y
bc1c: aa bc 6a  mov1  c,$0d57,4
bc1f: e1        tcall 14
bc20: 46        eor   a,(x)
bc21: 65 42 11  cmp   a,$1142
bc24: 10 00     bpl   $bc26
bc26: 10 7a     bpl   $bca2
bc28: ff        stop
bc29: ff        stop
bc2a: f1        tcall 15
bc2b: 12 34     clr0  $34
bc2d: 43 1f fe  bbs2  $1f,$bc2d
bc30: 7a ed     addw  ya,$ed
bc32: cb e1     mov   $e1,y
bc34: 11        tcall 1
bc35: 00        nop
bc36: 00        nop
bc37: 01        tcall 0
bc38: 20        clrp
bc39: 7a fe     addw  ya,$fe
bc3b: cb ab     mov   $ab,y
bc3d: cf        mul   ya
bc3e: 12 1e     clr0  $1e
bc40: dd        mov   a,y
bc41: de 5a 9d  cbne  $5a+x,$bbe0
bc44: d1        tcall 13
bc45: 0f        brk
bc46: ff        stop
bc47: ff        stop
bc48: ec bb bb  mov   y,$bbbb
bc4b: 7a f0     addw  ya,$f0
bc4d: 12 45     clr0  $45
bc4f: 76 74 42  cmp   a,$4274+y
bc52: 0c 14 8a  asl   $8a14
bc55: 0e ef 14  tset1 $14ef
bc58: 44 43     eor   a,$43
bc5a: 44 32     eor   a,$32
bc5c: 1d        dec   x
bc5d: 8a f1 da  eor1  c,$1b5e,1
bc60: d0 34     bne   $bc96
bc62: 42 00     set2  $00
bc64: 0f        brk
bc65: f0 6a     beq   $bcd1
bc67: dc        dec   y
bc68: f0 ff     beq   $bc69
bc6a: fe ed     dbnz  y,$bc59
bc6c: ed        notc
bc6d: dc        dec   y
bc6e: de 5a dd  cbne  $5a+x,$bc4d
bc71: dd        mov   a,y
bc72: dd        mov   a,y
bc73: ed        notc
bc74: dc        dec   y
bc75: ee        pop   y
bc76: ec dc 6a  mov   y,$6adc
bc79: dc        dec   y
bc7a: cd de     mov   x,#$de
bc7c: 02 46     set0  $46
bc7e: 52 fc     clr2  $fc
bc80: ba 7a     movw  ya,$7a
bc82: cc bb d1  mov   $d1bb,y
bc85: 11        tcall 1
bc86: 10 f0     bpl   $bc78
bc88: 11        tcall 1
bc89: 10 8a     bpl   $bc15
bc8b: fe dd     dbnz  y,$bc6a
bc8d: cc e0 11  mov   $11e0,y
bc90: 0f        brk
bc91: ff        stop
bc92: ff        stop
bc93: 6a 9a ee  and1  c,!($1dd3,2)
bc96: de ff ff  cbne  $ff+x,$bc97
bc99: ee        pop   y
bc9a: ee        pop   y
bc9b: dd        mov   a,y
bc9c: 8a 00 01  eor1  c,$0020,0
bc9f: 34 33     and   a,$33+x
bca1: 43 11 0f  bbs2  $11,$bcb2
bca4: 12 8a     clr0  $8a
bca6: 0e ef 25  tset1 $25ef
bca9: 54 54     eor   a,$54+x
bcab: 44 53     eor   a,$53
bcad: 1d        dec   x
bcae: 8a f1 db  eor1  c,$1b7e,1
bcb1: d1        tcall 13
bcb2: 35 43 10  and   a,$1043+x
bcb5: 00        nop
bcb6: 00        nop
bcb7: 5a 9a     cmpw  ya,$9a
bcb9: d0 ce     bne   $bc89
bcbb: cd cc     mov   x,#$cc
bcbd: bc        inc   a
bcbe: bb ba     inc   $ba+x
bcc0: 5a ab     cmpw  ya,$ab
bcc2: ba ab     movw  ya,$ab
bcc4: aa bb bc  mov1  c,$1797,3
bcc7: cb aa     mov   $aa,y
bcc9: 6a cc bb  and1  c,!($1779,4)
bccc: cd 02     mov   x,#$02
bcce: 44 42     eor   a,$42
bcd0: fb 99     mov   y,$99+x
bcd2: 7a db     addw  ya,$db
bcd4: ab e0     inc   $e0
bcd6: 11        tcall 1
bcd7: 1f 00 11  jmp   ($1100+x)
bcda: 10 8a     bpl   $bc66
bcdc: fe dc     dbnz  y,$bcba
bcde: cc e0 11  mov   $11e0,y
bce1: 0f        brk
bce2: ff        stop
bce3: ff        stop
bce4: 6a 9a ce  and1  c,!($19d3,2)
bce7: de ff ee  cbne  $ff+x,$bcd7
bcea: ff        stop
bceb: ed        notc
bcec: cd 8a     mov   x,#$8a
bcee: 00        nop
bcef: 11        tcall 1
bcf0: 23 44 42  bbs1  $44,$bd34
bcf3: 12 0f     clr0  $0f
bcf5: 03 8a 0e  bbs0  $8a,$bd05
bcf8: d0 25     bne   $bd1f
bcfa: 55 44 45  eor   a,$4544+x
bcfd: 44 1d     eor   a,$1d
bcff: 8a e1 eb  eor1  c,$1d7c,1
bd02: d0 46     bne   $bd4a
bd04: 42 10     set2  $10
bd06: 00        nop
bd07: 00        nop
bd08: 5a db     cmpw  ya,$db
bd0a: bf        mov   a,(x)+
bd0b: de cd cc  cbne  $cd+x,$bcd9
bd0e: bc        inc   a
bd0f: ca ba 5a  mov1  $0b57,2,c
bd12: ba ba     movw  ya,$ba
bd14: aa ba bb  mov1  c,$1777,2
bd17: bb cc     inc   $cc+x
bd19: b9        sbc   (x),(y)
bd1a: 6a cb bb  and1  c,!($1779,3)
bd1d: dd        mov   a,y
bd1e: 01        tcall 0
bd1f: 45 42 ec  eor   a,$ec42
bd22: 99        adc   (x),(y)
bd23: 7a cc     addw  ya,$cc
bd25: ab d0     inc   $d0
bd27: 22 0f     set1  $0f
bd29: f0 12     beq   $bd3d
bd2b: 10 8b     bpl   $bcb8
bd2d: fe dc     dbnz  y,$bd0b
bd2f: cc ef 12  mov   $12ef,y
bd32: 1f ef ef  jmp   ($efef+x)
bd35: 02 00     set0  $00
bd37: 00        nop
bd38: 00        nop
bd39: 00        nop
bd3a: 00        nop
bd3b: 00        nop
bd3c: 00        nop
bd3d: 00        nop
bd3e: b6 20 fe  sbc   a,$fe20+y
bd41: c0        di
bd42: f2 12     clr7  $12
bd44: 30 2d     bmi   $bd73
bd46: 0d        push  psw
bd47: b6 ef f2  sbc   a,$f2ef+y
bd4a: 04 02     or    a,$02
bd4c: ff        stop
bd4d: 0c eb 20  asl   $20eb
bd50: a6        sbc   a,(x)
bd51: 65 03 c3  cmp   a,$c303
bd54: e1        tcall 14
bd55: ad 2f     cmp   y,#$2f
bd57: 60        clrc
bd58: 6f        ret
bd59: ba 1e     movw  ya,$1e
bd5b: f1        tcall 15
bd5c: c5 f4 e0  mov   $e0f4,a
bd5f: 0e 2d 3c  tset1 $3c2d
bd62: b6 ff 01  sbc   a,$01ff+y
bd65: 03 f2 f0  bbs0  $f2,$bd57
bd68: ed        notc
bd69: ec 10 b2  mov   y,$b210
bd6c: df        daa   a
bd6d: 01        tcall 0
bd6e: 02 12     set0  $12
bd70: fe ee     dbnz  y,$bd60
bd72: 11        tcall 1
bd73: 32 ba     clr1  $ba
bd75: 2d        push  a
bd76: 00        nop
bd77: d4 f4     mov   $f4+x,a
bd79: e2 ff     set7  $ff
bd7b: 0d        push  psw
bd7c: 3e a6     cmp   x,$a6
bd7e: fb 13     mov   y,$13+x
bd80: 16 f5 cf  or    a,$cff5+y
bd83: ac c9 40  inc   $40c9
bd86: b6 42 11  sbc   a,$1142+y
bd89: f1        tcall 15
bd8a: f2 df     clr7  $df
bd8c: 00        nop
bd8d: 21        tcall 2
bd8e: 2f ba     bra   $bd4a
bd90: 2d        push  a
bd91: 1f e3 13  jmp   ($13e3+x)
bd94: d3 d1 ff  bbc6  $d1,$bd95
bd97: 2e a6 fa  cbne  $a6,$bd93
bd9a: 11        tcall 1
bd9b: 16 f5 c0  or    a,$c0f5+y
bd9e: 9e        div   ya,x
bd9f: ba 51     movw  ya,$51
bda1: b6 42 11  sbc   a,$1142+y
bda4: 01        tcall 0
bda5: f2 cf     clr7  $cf
bda7: f0 22     beq   $bdcb
bda9: 1f b6 1e  jmp   ($1eb6+x)
bdac: fe df     dbnz  y,$bd8d
bdae: 03 25 f1  bbs0  $25,$bda1
bdb1: 0f        brk
bdb2: 00        nop
bdb3: b6 fd 10  sbc   a,$10fd+y
bdb6: 14 f2     or    a,$f2+x
bdb8: e0        clrv
bdb9: c0        di
bdba: ee        pop   y
bdbb: 20        clrp
bdbc: b6 43 1f  sbc   a,$1f43+y
bdbf: 00        nop
bdc0: f1        tcall 15
bdc1: df        daa   a
bdc2: 01        tcall 0
bdc3: 13 10 b6  bbc0  $10,$bd7b
bdc6: 1e ee ef  cmp   x,$efee
bdc9: 03 16 f0  bbs0  $16,$bdbb
bdcc: ff        stop
bdcd: f0 b6     beq   $bd85
bdcf: 0d        push  psw
bdd0: 20        clrp
bdd1: 23 01 f0  bbs1  $01,$bdc3
bdd4: cf        mul   ya
bdd5: ef        sleep
bdd6: 21        tcall 2
bdd7: a6        sbc   a,(x)
bdd8: 74 1c     cmp   a,$1c+x
bdda: fe d3     dbnz  y,$bdaf
bddc: c1        tcall 12
bddd: 14 27     or    a,$27+x
bddf: 2f b6     bra   $bd97
bde1: 0e fe ff  tset1 $fffe
bde4: 02 04     set0  $04
bde6: ef        sleep
bde7: e0        clrv
bde8: 01        tcall 0
bde9: a6        sbc   a,(x)
bdea: 0d        push  psw
bdeb: 41        tcall 4
bdec: 46        eor   a,(x)
bded: 11        tcall 1
bdee: e0        clrv
bdef: af        mov   (x)+,a
bdf0: bf        mov   a,(x)+
bdf1: 12 ba     clr0  $ba
bdf3: 1e fe 4f  cmp   x,$4ffe
bdf6: 01        tcall 0
bdf7: e1        tcall 14
bdf8: 02 e4     set0  $e4
bdfa: df        daa   a
bdfb: a6        sbc   a,(x)
bdfc: 0d        push  psw
bdfd: ec ed 02  mov   y,$02ed
be00: d3 d0 e2  bbc6  $d0,$bde4
be03: f5 aa dc  mov   a,$dcaa+x
be06: 5e 22 fd  cmp   y,$fd22
be09: f2 b5     clr7  $b5
be0b: c2 01     set6  $01
be0d: a6        sbc   a,(x)
be0e: f2 3c     clr7  $3c
be10: 10 13     bpl   $be25
be12: 10 05     bpl   $be19
be14: 06        or    a,(x)
be15: 1f a6 0e  jmp   ($0ea6+x)
be18: ed        notc
be19: fb af     mov   y,$af+x
be1b: 25 ff d4  and   a,$d4ff
be1e: 03 a6 2f  bbs0  $a6,$be4f
be21: 31        tcall 3
be22: 24 5f     and   a,$5f
be24: e0        clrv
be25: bf        mov   a,(x)+
be26: aa b2 a6  mov1  c,$14d6,2
be29: 21        tcall 2
be2a: 3b 11     rol   $11+x
be2c: 23 30 f5  bbs1  $30,$be23
be2f: f5 31 aa  mov   a,$aa31+x
be32: ff        stop
be33: fe 0d     dbnz  y,$be42
be35: 64 d3     cmp   a,$d3
be37: c0        di
be38: d6 d3 ba  mov   $bad3+y,a
be3b: 0e 11 00  tset1 $0011
be3e: 1d        dec   x
be3f: 02 d0     set0  $d0
be41: e4 f2     mov   a,$f2
be43: a6        sbc   a,(x)
be44: 10 2d     bpl   $be73
be46: f1        tcall 15
be47: 33 41 e5  bbc1  $41,$be2e
be4a: 04 32     or    a,$32
be4c: ba e1     movw  ya,$e1
be4e: ee        pop   y
be4f: 21        tcall 2
be50: 11        tcall 1
be51: f0 f0     beq   $be43
be53: e4 f1     mov   a,$f1
be55: aa 0e d3  mov1  c,$1a61,6
be58: 1f 5b ef  jmp   ($ef5b+x)
be5b: b3 14 c6  bbc5  $14,$be23
be5e: a6        sbc   a,(x)
be5f: ff        stop
be60: 1e f1 42  cmp   x,$42f1
be63: 52 e5     clr2  $e5
be65: 24 23     and   a,$23
be67: ba c1     movw  ya,$c1
be69: e1        tcall 14
be6a: 2f 10     bra   $be7c
be6c: 1f 00 e3  jmp   ($e300+x)
be6f: f1        tcall 15
be70: aa 00 b4  mov1  c,$1680,0
be73: 3c        rol   a
be74: 5c        lsr   a
be75: ce        pop   x
be76: f3 13 c4  bbc7  $13,$be3c
be79: aa d0 f1  mov1  c,$1e3a,0
be7c: f3 4c 2e  bbc7  $4c,$beac
be7f: b5 20 e3  sbc   a,$e320+x
be82: a6        sbc   a,(x)
be83: ab 9d     inc   $9d
be85: fe ee     dbnz  y,$be75
be87: 1e e1 e3  cmp   x,$e3e1
be8a: 45 aa e2  eor   a,$e2aa
be8d: 93 5c 3e  bbc4  $5c,$becd
be90: db 31     mov   $31+x,y
be92: 21        tcall 2
be93: c3 aa 0f  bbs6  $aa,$bea4
be96: d4 f1     mov   $f1+x,a
be98: 5d        mov   x,a
be99: 0f        brk
be9a: d1        tcall 13
be9b: 4f e4     pcall $e4
be9d: a6        sbc   a,(x)
be9e: da ad     movw  $ad,ya
bea0: fe ed     dbnz  y,$be8f
bea2: 1d        dec   x
bea3: d1        tcall 13
bea4: 12 55     clr0  $55
bea6: ba e1     movw  ya,$e1
bea8: e1        tcall 14
bea9: 3e 00     cmp   x,$00
beab: fc        inc   y
beac: 21        tcall 2
bead: 11        tcall 1
beae: e1        tcall 14
beaf: aa ef e5  mov1  c,$1cbd,7
beb2: 1e 5e e0  cmp   x,$e05e
beb5: 0e 40 d3  tset1 $d340
beb8: aa dc f4  mov1  c,$1e9b,4
bebb: 10 fd     bpl   $beba
bebd: 4d        push  x
bebe: 01        tcall 0
bebf: 3f 31 a6  call  $a631
bec2: 23 10 22  bbs1  $10,$bee6
bec5: 11        tcall 1
bec6: 2a bc f0  or1   c,!($1e17,4)
bec9: cd aa     mov   x,#$aa
becb: f2 d3     clr7  $d3
becd: 3f 3f ee  call  $ee3f
bed0: 1e 31 e2  cmp   x,$e231
bed3: aa 0d c2  mov1  c,$1841,5
bed6: 11        tcall 1
bed7: fd        mov   y,a
bed8: 4d        push  x
bed9: 1f 60 10  jmp   ($1060+x)
bedc: aa b1 f1  mov1  c,$1e36,1
bedf: 01        tcall 0
bee0: 0f        brk
bee1: 5a fe     cmpw  ya,$fe
bee3: 12 ff     clr0  $ff
bee5: aa e3 d4  mov1  c,$1a9c,3
bee8: 22 00     set1  $00
beea: de 2e 10  cbne  $2e+x,$befc
beed: 10 a6     bpl   $be95
beef: 32 cd     clr1  $cd
bef1: ad ec     cmp   y,#$ec
bef3: db ed     mov   $ed+x,y
bef5: 56 56 aa  eor   a,$aa56+y
bef8: c0        di
bef9: d4 e1     mov   $e1+x,a
befb: 0f        brk
befc: 5e ee fe  cmp   y,$feee
beff: 3f 9a c3  call  $c39a
bf02: f5 66 a3  mov   a,$a366+x
bf05: bc        inc   a
bf06: 00        nop
bf07: 3b 5e     rol   $5e+x
bf09: aa 32 a2  mov1  c,$1446,2
bf0c: de 10 ff  cbne  $10+x,$bf0d
bf0f: 4f 51     pcall $51
bf11: f1        tcall 15
bf12: aa df e3  mov1  c,$1c7b,7
bf15: ef        sleep
bf16: 21        tcall 2
bf17: 20        clrp
bf18: ef        sleep
bf19: 0b 01     asl   $01
bf1b: aa f1 13  mov1  c,$027e,1
bf1e: 23 e1 dd  bbs1  $e1,$befd
bf21: f2 3a     clr7  $3a
bf23: 40        setp
bf24: aa 32 b0  mov1  c,$1606,2
bf27: fd        mov   y,a
bf28: e0        clrv
bf29: 2f 21     bra   $bf4c
bf2b: 41        tcall 4
bf2c: 1f aa ee  jmp   ($eeaa+x)
bf2f: d3 1c 32  bbc6  $1c,$bf63
bf32: 03 dd 2a  bbs0  $dd,$bf5e
bf35: f1        tcall 15
bf36: aa 10 04  mov1  c,$0082,0
bf39: 14 0f     or    a,$0f+x
bf3b: de d2 4a  cbne  $d2+x,$bf87
bf3e: 50 9a     bvc   $beda
bf40: 16 bb fa  or    a,$fabb+y
bf43: 94 3f     adc   a,$3f+x
bf45: 40        setp
bf46: 77 39     cmp   a,($39)+y
bf48: aa fd e1  mov1  c,$1c3f,5
bf4b: 4b 33     lsr   $33
bf4d: f3 eb 2b  bbc7  $eb,$bf7a
bf50: f1        tcall 15
bf51: aa 10 12  mov1  c,$0242,0
bf54: 16 0e dd  or    a,$dd0e+y
bf57: f1        tcall 15
bf58: 59        eor   (x),(y)
bf59: 42 aa     set2  $aa
bf5b: 03 ec 0c  bbs0  $ec,$bf69
bf5e: d4 00     mov   $00+x,a
bf60: 2f 44     bra   $bfa6
bf62: 1d        dec   x
bf63: aa ee e0  mov1  c,$1c1d,6
bf66: 5c        lsr   a
bf67: 14 f2     or    a,$f2+x
bf69: fb 2a     mov   y,$2a+x
bf6b: 01        tcall 0
bf6c: ba 00     movw  ya,$00
bf6e: 11        tcall 1
bf6f: 12 0f     clr0  $0f
bf71: ff        stop
bf72: 0e 3e 12  tset1 $123e
bf75: aa 01 fc  mov1  c,$1f80,1
bf78: fc        inc   y
bf79: e4 f0     mov   a,$f0
bf7b: 20        clrp
bf7c: 61        tcall 6
bf7d: 2d        push  a
bf7e: aa ed ef  mov1  c,$1dfd,5
bf81: 6f        ret
bf82: f4 f1     mov   a,$f1+x
bf84: 1a 0c     decw  $0c
bf86: 00        nop
bf87: ba 1f     movw  ya,$1f
bf89: 11        tcall 1
bf8a: 21        tcall 2
bf8b: 1f fe ff  jmp   ($fffe+x)
bf8e: 4f f2     pcall $f2
bf90: aa 10 1b  mov1  c,$0362,0
bf93: ee        pop   y
bf94: e2 f0     set7  $f0
bf96: 32 31     clr1  $31
bf98: 3d        inc   x
bf99: aa ed ef  mov1  c,$1dfd,5
bf9c: 61        tcall 6
bf9d: c5 f1 1b  mov   $1bf1,a
bfa0: ee        pop   y
bfa1: e0        clrv
bfa2: ba 1f     movw  ya,$1f
bfa4: 22 10     set1  $10
bfa6: 1f fe 0f  jmp   ($0ffe+x)
bfa9: 30 f2     bmi   $bf9d
bfab: aa 1f 1b  mov1  c,$0363,7
bfae: df        daa   a
bfaf: d3 0f 34  bbc6  $0f,$bfe5
bfb2: 11        tcall 1
bfb3: 3c        rol   a
bfb4: aa 0c e0  mov1  c,$1c01,4
bfb7: 52 b6     clr2  $b6
bfb9: ff        stop
bfba: 2c de f0  rol   $f0de
bfbd: aa 2c 63  mov1  c,$0c65,4
bfc0: 12 1e     clr0  $1e
bfc2: fe b1     dbnz  y,$bf75
bfc4: 43 e2 aa  bbs2  $e2,$bf70
bfc7: 1e 3b cf  cmp   x,$cf3b
bfca: e2 0f     set7  $0f
bfcc: 44 f2     eor   a,$f2
bfce: 4b aa     lsr   $aa
bfd0: 1c        asl   a
bfd1: df        daa   a
bfd2: 54 d3     eor   a,$d3+x
bfd4: 0e 2d be  tset1 $be2d
bfd7: 01        tcall 0
bfd8: aa 1d 63  mov1  c,$0c63,5
bfdb: 02 2c     set0  $2c
bfdd: f0 a2     beq   $bf81
bfdf: 34 e1     and   a,$e1+x
bfe1: aa 2d 3c  mov1  c,$0785,5
bfe4: bf        mov   a,(x)+
bfe5: f1        tcall 15
bfe6: 00        nop
bfe7: 44 f1     eor   a,$f1
bfe9: 3c        rol   a
bfea: aa 0f b0  mov1  c,$1601,7
bfed: 44 00     eor   a,$00
bfef: 1e 1d ce  cmp   x,$ce1d
bff2: f0 aa     beq   $bf9e
bff4: 2f 53     bra   $c049
bff6: 01        tcall 0
bff7: 2c f2 91  rol   $91f2
bffa: 34 1f     and   a,$1f+x
bffc: aa 2d 1d  mov1  c,$03a5,5
bfff: de e1 11  cbne  $e1+x,$c012
c002: 24 02     and   a,$02
c004: 1c        asl   a
c005: aa e4 af  mov1  c,$15fc,4
c008: 42 3f     set2  $3f
c00a: 0f        brk
c00b: 0e ce e1  tset1 $e1ce
c00e: aa 3f 32  mov1  c,$0647,7
c011: 20        clrp
c012: 2d        push  a
c013: e4 ae     mov   a,$ae
c015: 42 4f     set2  $4f
c017: aa ff 1d  mov1  c,$03bf,7
c01a: de e0 30  cbne  $e0+x,$c04c
c01d: 15 11 fe  or    a,$fe11+x
c020: aa d5 be  mov1  c,$17da,5
c023: 5f 50 ff  jmp   $ff50
c026: 0d        push  psw
c027: d0 c0     bne   $bfe9
c029: aa 4f 22  mov1  c,$0449,7
c02c: 41        tcall 4
c02d: fe c5     dbnz  y,$bff4
c02f: dc        dec   y
c030: 5e 71 aa  cmp   y,$aa71
c033: d0 0c     bne   $c041
c035: d1        tcall 13
c036: cf        mul   ya
c037: 5f 23 22  jmp   $2223
c03a: ee        pop   y
c03b: aa c5 fb  mov1  c,$1f78,5
c03e: 5e 54 c0  cmp   y,$c054
c041: fc        inc   y
c042: e1        tcall 14
c043: b1        tcall 11
c044: aa 4e 32  mov1  c,$0649,6
c047: 22 fe     set1  $fe
c049: c4 0b     mov   $0b,a
c04b: 5d        mov   x,a
c04c: 55 aa b0  eor   a,$b0aa+x
c04f: 1b d1     asl   $d1+x
c051: c1        tcall 12
c052: 3e 33     cmp   x,$33
c054: 22 ed     set1  $ed
c056: ba f1     movw  ya,$f1
c058: 1d        dec   x
c059: 3f 13 d1  call  $d113
c05c: 1d        dec   x
c05d: e0        clrv
c05e: e2 ba     set7  $ba
c060: 1f 11 12  jmp   ($1211+x)
c063: 0d        push  psw
c064: f1        tcall 15
c065: 1e 2f 05  cmp   x,$052f
c068: aa bf 29  mov1  c,$0537,7
c06b: d1        tcall 13
c06c: e1        tcall 14
c06d: 2e 32 14  cbne  $32,$c083
c070: fc        inc   y
c071: ba f0     movw  ya,$f0
c073: 2e 1f 15  cbne  $1f,$c08a
c076: df        daa   a
c077: 1d        dec   x
c078: f0 e2     beq   $c05c
c07a: ba 00     movw  ya,$00
c07c: 11        tcall 1
c07d: 02 0d     set0  $0d
c07f: 00        nop
c080: 10 00     bpl   $c082
c082: f6 aa ae  mov   a,$aeaa+y
c085: 2a ef f2  or1   c,!($1e5d,7)
c088: 1d        dec   x
c089: 42 12     set2  $12
c08b: 1b ba     asl   $ba+x
c08d: f1        tcall 15
c08e: 11        tcall 1
c08f: ff        stop
c090: 04 fe     or    a,$fe
c092: 2d        push  a
c093: ff        stop
c094: f3 ba ff  bbc7  $ba,$c095
c097: 21        tcall 2
c098: 00        nop
c099: 2d        push  a
c09a: 0f        brk
c09b: 21        tcall 2
c09c: ff        stop
c09d: 05 aa be  or    a,$beaa
c0a0: 3a ed     incw  $ed
c0a2: 04 0c     or    a,$0c
c0a4: 51        tcall 5
c0a5: 11        tcall 1
c0a6: 2c ba f0  rol   $f0ba
c0a9: 03 ff 03  bbs0  $ff,$c0ae
c0ac: 0e 2c ff  tset1 $ff2c
c0af: 03 aa de  bbs0  $aa,$c08f
c0b2: 32 11     clr1  $11
c0b4: 2c 0f f5  rol   $f50f
c0b7: 0b 27     asl   $27
c0b9: aa fc 2b  mov1  c,$057f,4
c0bc: fd        mov   y,a
c0bd: 04 ed     or    a,$ed
c0bf: 51        tcall 5
c0c0: 11        tcall 1
c0c1: 1d        dec   x
c0c2: ba 00     movw  ya,$00
c0c4: e4 0e     mov   a,$0e
c0c6: 02 1e     set0  $1e
c0c8: 1d        dec   x
c0c9: 1e f3 aa  cmp   x,$aaf3
c0cc: de 32 11  cbne  $32+x,$c0df
c0cf: 0e 1f d6  tset1 $d61f
c0d2: 1a 34     decw  $34
c0d4: aa 1d 0c  mov1  c,$0183,5
c0d7: 0d        push  psw
c0d8: f4 ee     mov   a,$ee+x
c0da: 40        setp
c0db: 22 fe     set1  $fe
c0dd: aa 1f d6  mov1  c,$1ac3,7
c0e0: 29 24 2e  and   ($2e),($24)
c0e3: fd        mov   y,a
c0e4: 0c f4 aa  asl   $aaf4
c0e7: d0 30     bne   $c119
c0e9: 22 fd     set1  $fd
c0eb: 3e d5     cmp   x,$d5
c0ed: 3b 03     rol   $03+x
c0ef: aa 3f de  mov1  c,$1bc7,7
c0f2: 0c 03 d0  asl   $d003
c0f5: 3f 42 de  call  $de42
c0f8: aa 4e c3  mov1  c,$1869,6
c0fb: 5c        lsr   a
c0fc: 01        tcall 0
c0fd: 40        setp
c0fe: b0 fc     bcs   $c0fc
c100: 12 aa     clr0  $aa
c102: c2 2f     set6  $2f
c104: 33 de 4e  bbc1  $de,$c154
c107: d2 4e     clr6  $4e
c109: e1        tcall 14
c10a: aa 42 a0  mov1  c,$1408,2
c10d: fd        mov   y,a
c10e: 01        tcall 0
c10f: c4 2d     mov   $2d,a
c111: 42 df     set2  $df
c113: ba 2f     movw  ya,$2f
c115: f0 11     beq   $c128
c117: f0 21     beq   $c13a
c119: c1        tcall 12
c11a: 0e 00 aa  tset1 $aa00
c11d: c6        mov   (x),a
c11e: 0e 34 bf  tset1 $bf34
c121: 40        setp
c122: df        daa   a
c123: 24 de     and   a,$de
c125: ba 22     movw  ya,$22
c127: c2 fd     set6  $fd
c129: 10 e2     bpl   $c10d
c12b: 1e 31 e0  cmp   x,$e031
c12e: ba 10     movw  ya,$10
c130: f0 f4     beq   $c126
c132: ef        sleep
c133: 22 c1     set1  $c1
c135: 0d        push  psw
c136: 2f ba     bra   $c0f2
c138: e2 1f     set7  $1f
c13a: 11        tcall 1
c13b: e1        tcall 14
c13c: 11        tcall 1
c13d: fe f5     dbnz  y,$c134
c13f: fd        mov   y,a
c140: ba 32     movw  ya,$32
c142: b2 0e     clr5  $0e
c144: 0f        brk
c145: e4 0e     mov   a,$0e
c147: 21        tcall 2
c148: e1        tcall 14
c149: b6 22 10  sbc   a,$1022+y
c14c: e4 20     mov   a,$20
c14e: 14 01     or    a,$01+x
c150: 1e fd ba  cmp   x,$bafd
c153: e3 0f 22  bbs7  $0f,$c177
c156: d1        tcall 13
c157: 01        tcall 0
c158: 0e e5 1b  tset1 $1be5
c15b: ba 33     movw  ya,$33
c15d: c0        di
c15e: 0f        brk
c15f: 1e d4 1e  cmp   x,$1ed4
c162: 11        tcall 1
c163: f1        tcall 15
c164: b6 12 31  sbc   a,$3112+y
c167: d2 30     clr6  $30
c169: 14 11     or    a,$11+x
c16b: 1e fd ba  cmp   x,$bafd
c16e: e3 0f 22  bbs7  $0f,$c192
c171: e0        clrv
c172: 01        tcall 0
c173: 1d        dec   x
c174: d5 2c aa  mov   $aa2c+x,a
c177: 44 c1     eor   a,$c1
c179: fb 1e     mov   y,$1e+x
c17b: c6        mov   (x),a
c17c: 1e 31 d2  cmp   x,$d231
c17f: b6 11 21  sbc   a,$2111+y
c182: e2 3f     set7  $3f
c184: 04 32     or    a,$32
c186: 0e fd aa  tset1 $aafd
c189: c6        mov   (x),a
c18a: 1f 12 e3  jmp   ($e312+x)
c18d: f0 2d     beq   $c1bc
c18f: 97 69     adc   a,($69)+y
c191: aa 14 1f  mov1  c,$03e2,4
c194: dc        dec   y
c195: 2d        push  a
c196: c5 1f 22  mov   $221f,a
c199: f1        tcall 15
c19a: a6        sbc   a,(x)
c19b: 22 51     set1  $51
c19d: a0        ei
c19e: 72 15     clr3  $15
c1a0: 54 0e     eor   a,$0e+x
c1a2: fa ba e2  mov   ($e2),($ba)
c1a5: 10 11     bpl   $c1b8
c1a7: f1        tcall 15
c1a8: f0 1f     beq   $c1c9
c1aa: d2 4d     clr6  $4d
c1ac: aa 02 3f  mov1  c,$07e0,2
c1af: dd        mov   a,y
c1b0: 2b c5     rol   $c5
c1b2: 20        clrp
c1b3: 11        tcall 1
c1b4: 01        tcall 0
c1b5: a6        sbc   a,(x)
c1b6: 22 51     set1  $51
c1b8: be        das   a
c1b9: 54 23     eor   a,$23+x
c1bb: 56 0f fa  eor   a,$fa0f+y
c1be: aa c5 2f  mov1  c,$05f8,5
c1c1: 11        tcall 1
c1c2: 12 e0     clr0  $e0
c1c4: 2d        push  a
c1c5: a3 6f aa  bbs5  $6f,$c171
c1c8: 00        nop
c1c9: 31        tcall 3
c1ca: bd        mov   sp,x
c1cb: 2c c4 12  rol   $12c4
c1ce: 10 02     bpl   $c1d2
c1d0: aa f0 2c  mov1  c,$059e,0
c1d3: c1        tcall 12
c1d4: 51        tcall 5
c1d5: 1e 34 9d  cmp   x,$9d34
c1d8: 1d        dec   x
c1d9: aa c4 11  mov1  c,$0238,4
c1dc: 2f 22     bra   $c200
c1de: ef        sleep
c1df: 2d        push  a
c1e0: b3 32 ba  bbc5  $32,$c19c
c1e3: 00        nop
c1e4: 12 cf     clr0  $cf
c1e6: 1d        dec   x
c1e7: f2 10     clr7  $10
c1e9: 1f 11 aa  jmp   ($aa11+x)
c1ec: e0        clrv
c1ed: 3c        rol   a
c1ee: b2 41     clr5  $41
c1f0: 2d        push  a
c1f1: 27 ab     and   a,($ab+x)
c1f3: 1c        asl   a
c1f4: aa c4 21  mov1  c,$0438,4
c1f7: 3d        inc   x
c1f8: 13 ff 3c  bbc0  $ff,$c236
c1fb: b2 23     clr5  $23
c1fd: ba 2e     movw  ya,$2e
c1ff: 04 dd     or    a,$dd
c201: 1e e2 11  cmp   x,$11e2
c204: 1f 02 ba  jmp   ($ba02+x)
c207: e0        clrv
c208: 2f c1     bra   $c1cb
c20a: 21        tcall 2
c20b: 2e 04 dd  cbne  $04,$c1ea
c20e: 2e aa 94  cbne  $aa,$c1a4
c211: 31        tcall 3
c212: 3e 05     cmp   x,$05
c214: df        daa   a
c215: 3c        rol   a
c216: a3 31 ba  bbs5  $31,$c1d2
c219: 2f f5     bra   $c210
c21b: dd        mov   a,y
c21c: 1e d2 11  cmp   x,$11d2
c21f: 2f f3     bra   $c214
c221: ba ff     movw  ya,$ff
c223: 1e d2 2f  cmp   x,$2fd2
c226: 30 e4     bmi   $c20c
c228: fc        inc   y
c229: 1e aa a4  cmp   x,$a4aa
c22c: 31        tcall 3
c22d: 3f d7 ed  call  $edd7
c230: 3e 92     cmp   x,$92
c232: 4f ba     pcall $ba
c234: 30 e4     bmi   $c21a
c236: 0b 0f     asl   $0f
c238: d2 11     clr6  $11
c23a: 20        clrp
c23b: e2 b6     set7  $b6
c23d: 10 21     bpl   $c260
c23f: de 0f 24  cbne  $0f+x,$c265
c242: 15 5f fe  or    a,$fe5f+x
c245: ba d2     movw  ya,$d2
c247: 10 21     bpl   $c26a
c249: d2 1f     clr6  $1f
c24b: 00        nop
c24c: c1        tcall 12
c24d: 20        clrp
c24e: b6 24 14  sbc   a,$1424+y
c251: 5f ff bc  jmp   $bcff
c254: ee        pop   y
c255: 01        tcall 0
c256: f0 ba     beq   $c212
c258: 2f 0f     bra   $c269
c25a: d0 3f     bne   $c29b
c25c: 22 d4     set1  $d4
c25e: 2a e1 ba  or1   c,!($175c,1)
c261: d1        tcall 13
c262: 2f 21     bra   $c285
c264: f0 2f     beq   $c295
c266: 0f        brk
c267: d0 30     bne   $c299
c269: ba 03     movw  ya,$03
c26b: d3 3b d1  bbc6  $3b,$c23e
c26e: d1        tcall 13
c26f: 20        clrp
c270: 11        tcall 1
c271: f0 ba     beq   $c22d
c273: 10 00     bpl   $c275
c275: de 31 12  cbne  $31+x,$c289
c278: e2 3b     set7  $3b
c27a: d1        tcall 13
c27b: aa a1 5f  mov1  c,$0bf4,1
c27e: 33 e0 10  bbc1  $e0,$c290
c281: f1        tcall 15
c282: ac 63 ba  inc   $ba63
c285: 03 e1 3c  bbs0  $e1,$c2c3
c288: c1        tcall 12
c289: e0        clrv
c28a: 30 02     bmi   $c28e
c28c: f0 ba     beq   $c248
c28e: 01        tcall 0
c28f: f0 ee     beq   $c27f
c291: 31        tcall 3
c292: f3 00 3c  bbc7  $00,$c2d0
c295: d1        tcall 13
c296: aa bd 71  mov1  c,$0e37,5
c299: 13 ff 10  bbc0  $ff,$c2ab
c29c: 0f        brk
c29d: da 63     movw  $63,ya
c29f: ba f3     movw  ya,$f3
c2a1: 00        nop
c2a2: 3d        inc   x
c2a3: c1        tcall 12
c2a4: ee        pop   y
c2a5: 31        tcall 3
c2a6: 02 f0     set0  $f0
c2a8: ba 1f     movw  ya,$1f
c2aa: 00        nop
c2ab: fd        mov   y,a
c2ac: 22 f3     set1  $f3
c2ae: 0f        brk
c2af: 3f b0 ba  call  $bab0
c2b2: ff        stop
c2b3: 20        clrp
c2b4: 03 0f 1f  bbs0  $0f,$c2d5
c2b7: 00        nop
c2b8: fd        mov   y,a
c2b9: 21        tcall 2
c2ba: ba 02     movw  ya,$02
c2bc: 2e 4e b0  cbne  $4e,$c26e
c2bf: 0d        push  psw
c2c0: 31        tcall 3
c2c1: 02 0e     set0  $0e
c2c3: b6 11 01  sbc   a,$0111+y
c2c6: 0c e0 02  asl   $02e0
c2c9: 53 44 ff  bbc2  $44,$c2ca
c2cc: ba ee     movw  ya,$ee
c2ce: 32 f1     clr1  $f1
c2d0: 1e 2f f2  cmp   x,$f22f
c2d3: fc        inc   y
c2d4: 13 ba f2  bbc0  $ba,$c2c8
c2d7: 3d        inc   x
c2d8: 21        tcall 2
c2d9: ce        pop   x
c2da: 0d        push  psw
c2db: 31        tcall 3
c2dc: 01        tcall 0
c2dd: 1f b6 11  jmp   ($11b6+x)
c2e0: f1        tcall 15
c2e1: 1c        asl   a
c2e2: e0        clrv
c2e3: 01        tcall 0
c2e4: 53 35 fe  bbc2  $35,$c2e4
c2e7: ba 0e     movw  ya,$0e
c2e9: 21        tcall 2
c2ea: f2 1f     clr7  $1f
c2ec: 01        tcall 0
c2ed: e1        tcall 14
c2ee: 1b 04     asl   $04+x
c2f0: ba f1     movw  ya,$f1
c2f2: 3f f3 ce  call  $cef3
c2f5: 1c        asl   a
c2f6: 22 01     set1  $01
c2f8: 1f ba 01  jmp   ($01ba+x)
c2fb: e0        clrv
c2fc: 2c f3 01  rol   $01f3
c2ff: 4e f3 dd  tclr1 $ddf3
c302: aa 1b 16  mov1  c,$02c3,3
c305: e2 3f     set7  $3f
c307: f2 fc     clr7  $fc
c309: 3c        rol   a
c30a: e5 ba f1  mov   a,$f1ba
c30d: 41        tcall 4
c30e: c3 dd 2d  bbs6  $dd,$c33d
c311: 02 10     set0  $10
c313: 10 b6     bpl   $c2cb
c315: 01        tcall 0
c316: 10 0f     bpl   $c327
c318: d0 00     bne   $c31a
c31a: 45 23 2d  eor   a,$2d23
c31d: aa 4d d7  mov1  c,$1ae9,5
c320: 00        nop
c321: 12 e1     clr0  $e1
c323: 1d        dec   x
c324: fe e3     dbnz  y,$c309
c326: ba 10     movw  ya,$10
c328: 32 c2     clr1  $c2
c32a: 0b 10     asl   $10
c32c: e2 1f     set7  $1f
c32e: 12 ba     clr0  $ba
c330: f0 0f     beq   $c341
c332: f0 f1     beq   $c325
c334: 10 23     bpl   $c359
c336: c0        di
c337: 3b aa     rol   $aa+x
c339: 00        nop
c33a: b3 5e 13  bbc5  $5e,$c34f
c33d: ff        stop
c33e: 2d        push  a
c33f: fe f0     dbnz  y,$c331
c341: ba 21     movw  ya,$21
c343: 13 df 3b  bbc0  $df,$c380
c346: f2 ef     clr7  $ef
c348: 30 02     bmi   $c34c
c34a: ba f0     movw  ya,$f0
c34c: 0f        brk
c34d: 0f        brk
c34e: f0 21     beq   $c371
c350: 04 ed     or    a,$ed
c352: 3d        inc   x
c353: aa c4 dd  mov1  c,$1bb8,4
c356: 60        clrc
c357: 02 0e     set0  $0e
c359: 3e fd     cmp   x,$fd
c35b: f1        tcall 15
c35c: ba 11     movw  ya,$11
c35e: 13 fb 5e  bbc0  $fb,$c3be
c361: d1        tcall 13
c362: fe 31     dbnz  y,$c395
c364: f2 ba     clr7  $ba
c366: 0f        brk
c367: 00        nop
c368: f0 f0     beq   $c35a
c36a: 11        tcall 1
c36b: 12 1b     clr0  $1b
c36d: 21        tcall 2
c36e: b6 ef ec  sbc   a,$ecef+y
c371: e0        clrv
c372: f0 10     beq   $c384
c374: 01        tcall 0
c375: 0f        brk
c376: ef        sleep
c377: ba 11     movw  ya,$11
c379: 02 2b     set0  $2b
c37b: 12 c0     clr0  $c0
c37d: 1d        dec   x
c37e: 13 00 ba  bbc0  $00,$c33a
c381: 1f f1 f0  jmp   ($f0f1+x)
c384: f0 11     beq   $c397
c386: 10 4b     bpl   $c3d3
c388: f3 b6 ee  bbc7  $b6,$c378
c38b: fd        mov   y,a
c38c: c0        di
c38d: 00        nop
c38e: 11        tcall 1
c38f: 01        tcall 0
c390: 0f        brk
c391: ee        pop   y
c392: ba 21     movw  ya,$21
c394: 01        tcall 0
c395: 3d        inc   x
c396: c5 de 2e  mov   $2ede,a
c399: f4 0f     mov   a,$0f+x
c39b: ba 10     movw  ya,$10
c39d: e2 0f     set7  $0f
c39f: ff        stop
c3a0: 12 1f     clr0  $1f
c3a2: 3e c5     cmp   x,$c5
c3a4: aa ca 4f  mov1  c,$09f9,2
c3a7: b6 2e 30  sbc   a,$302e+y
c3aa: c1        tcall 12
c3ab: 1d        dec   x
c3ac: 00        nop
c3ad: b6 01 22  sbc   a,$2201+y
c3b0: 43 d3 1d  bbs2  $d3,$c3cf
c3b3: ff        stop
c3b4: cf        mul   ya
c3b5: 1f b6 01  jmp   ($01b6+x)
c3b8: f0 1f     beq   $c3d9
c3ba: ff        stop
c3bb: f1        tcall 15
c3bc: 22 34     set1  $34
c3be: d1        tcall 13
c3bf: b6 2d f0  sbc   a,$f02d+y
c3c2: de 0f 12  cbne  $0f+x,$c3d6
c3c5: ff        stop
c3c6: 0f        brk
c3c7: f0 b6     beq   $c37f
c3c9: f0 22     beq   $c3ed
c3cb: 34 e1     and   a,$e1+x
c3cd: 3d        inc   x
c3ce: e0        clrv
c3cf: de 10 b6  cbne  $10+x,$c387
c3d2: 01        tcall 0
c3d3: ff        stop
c3d4: 0f        brk
c3d5: f0 f0     beq   $c3c7
c3d7: 33 24 ef  bbc1  $24,$c3c8
c3da: a6        sbc   a,(x)
c3db: 6c d0 bb  ror   $bbd0
c3de: 2f f2     bra   $c3d2
c3e0: 0e 0e d1  tset1 $d10e
c3e3: b6 00 22  sbc   a,$2200+y
c3e6: 13 0f 4e  bbc0  $0f,$c436
c3e9: e0        clrv
c3ea: ed        notc
c3eb: 10 aa     bpl   $c397
c3ed: f2 ee     clr7  $ee
c3ef: 2e 03 fe  cbne  $03,$c3ef
c3f2: 61        tcall 6
c3f3: d3 bc a6  bbc6  $bc,$c39b
c3f6: 7e b0     cmp   y,$b0
c3f8: da 10     movw  $10,ya
c3fa: e1        tcall 14
c3fb: 0d        push  psw
c3fc: 0f        brk
c3fd: e0        clrv
c3fe: a6        sbc   a,(x)
c3ff: 1f 47 24  jmp   ($2447+x)
c402: 2b 60     rol   $60
c404: c0        di
c405: ea 00 a6  not1  $14c0,0
c408: e1        tcall 14
c409: 0d        push  psw
c40a: ff        stop
c40b: e0        clrv
c40c: 2f 36     bra   $c444
c40e: 22 4c     set1  $4c
c410: a6        sbc   a,(x)
c411: 42 b1     set2  $b1
c413: fa e1 e1  mov   ($e1),($e1)
c416: 0d        push  psw
c417: fe e0     dbnz  y,$c3f9
c419: a6        sbc   a,(x)
c41a: 30 37     bmi   $c453
c41c: 11        tcall 1
c41d: 4d        push  x
c41e: 23 c0 0a  bbs1  $c0,$c42a
c421: e1        tcall 14
c422: a6        sbc   a,(x)
c423: e0        clrv
c424: 0d        push  psw
c425: ef        sleep
c426: e0        clrv
c427: 31        tcall 3
c428: 27 2f     and   a,($2f+x)
c42a: 4d        push  x
c42b: a6        sbc   a,(x)
c42c: 14 c0     or    a,$c0+x
c42e: 1b d1     asl   $d1+x
c430: e0        clrv
c431: 0c ef f0  asl   $f0ef
c434: a6        sbc   a,(x)
c435: 42 16     set2  $16
c437: 3f 3e f5  call  $f53e
c43a: df        daa   a
c43b: 1b d2     asl   $d2+x
c43d: aa c1 1c  mov1  c,$0398,1
c440: 11        tcall 1
c441: 01        tcall 0
c442: 3e f5     cmp   x,$f5
c444: db 5d     mov   $5d+x,y
c446: a6        sbc   a,(x)
c447: f5 ff 1b  mov   a,$1bff+x
c44a: c2 ef     set6  $ef
c44c: 0d        push  psw
c44d: ef        sleep
c44e: f0 a6     beq   $c3f6
c450: 43 15 3d  bbs2  $15,$c48f
c453: 10 d5     bpl   $c42a
c455: 00        nop
c456: 2c c2 a6  rol   $a6c2
c459: ee        pop   y
c45a: 0c df f0  asl   $f0df
c45d: 34 15     and   a,$15+x
c45f: 3e 00     cmp   x,$00
c461: a6        sbc   a,(x)
c462: d4 20     mov   $20+x,a
c464: 2c c2 ed  rol   $edc2
c467: 0d        push  psw
c468: de f1 a6  cbne  $f1+x,$c410
c46b: 44 14     eor   a,$14
c46d: 3e 00     cmp   x,$00
c46f: c4 30     mov   $30,a
c471: 2d        push  a
c472: b1        tcall 11
c473: a6        sbc   a,(x)
c474: ee        pop   y
c475: 0d        push  psw
c476: df        daa   a
c477: f1        tcall 15
c478: 34 14     and   a,$14+x
c47a: 3e f1     cmp   x,$f1
c47c: a6        sbc   a,(x)
c47d: d2 30     clr6  $30
c47f: 3d        inc   x
c480: b1        tcall 11
c481: fd        mov   y,a
c482: 0d        push  psw
c483: df        daa   a
c484: f1        tcall 15
c485: a6        sbc   a,(x)
c486: 34 14     and   a,$14+x
c488: 3e e0     cmp   x,$e0
c48a: d3 41 2e  bbc6  $41,$c4ba
c48d: b1        tcall 11
c48e: aa df 3d  mov1  c,$07bb,7
c491: f2 01     clr7  $01
c493: 31        tcall 3
c494: d1        tcall 13
c495: 0c f2 a6  asl   $a6f2
c498: e3 51 3e  bbs7  $51,$c4d8
c49b: b0 fd     bcs   $c49a
c49d: 0d        push  psw
c49e: ce        pop   x
c49f: f1        tcall 15
c4a0: a6        sbc   a,(x)
c4a1: 35 33 2e  and   a,$2e33+x
c4a4: ef        sleep
c4a5: e1        tcall 14
c4a6: 51        tcall 5
c4a7: 3f b0 9a  call  $9ab0
c4aa: dd        mov   a,y
c4ab: 4b e5     lsr   $e5
c4ad: 04 52     or    a,$52
c4af: bf        mov   a,(x)+
c4b0: fb d3     mov   y,$d3+x
c4b2: a6        sbc   a,(x)
c4b3: e1        tcall 14
c4b4: 42 40     set2  $40
c4b6: b0 ec     bcs   $c4a4
c4b8: fd        mov   y,a
c4b9: cf        mul   ya
c4ba: f1        tcall 15
c4bb: aa 22 ef  mov1  c,$1de4,2
c4be: fd        mov   y,a
c4bf: 00        nop
c4c0: 11        tcall 1
c4c1: 5e 1c c5  cmp   y,$c51c
c4c4: 9a dc     subw  ya,$dc
c4c6: 5b e6     lsr   $e6+x
c4c8: f4 52     mov   a,$52+x
c4ca: ce        pop   x
c4cb: fa e0 a6  mov   ($a6),($e0)
c4ce: f1        tcall 15
c4cf: 43 30 b0  bbs2  $30,$c481
c4d2: fd        mov   y,a
c4d3: fc        inc   y
c4d4: bf        mov   a,(x)+
c4d5: f2 aa     clr7  $aa
c4d7: 21        tcall 2
c4d8: ef        sleep
c4d9: ee        pop   y
c4da: 0f        brk
c4db: 22 4f     set1  $4f
c4dd: 0d        push  psw
c4de: b4 9a     sbc   a,$9a+x
c4e0: fc        inc   y
c4e1: 5a f7     cmpw  ya,$f7
c4e3: f4 41     mov   a,$41+x
c4e5: ed        notc
c4e6: dc        dec   y
c4e7: 0b aa     asl   $aa
c4e9: 33 21 fe  bbc1  $21,$c4e9
c4ec: b4 ef     sbc   a,$ef+x
c4ee: 2e e4 f3  cbne  $e4,$c4e3
c4f1: aa 3f ff  mov1  c,$1fe7,7
c4f4: fe fe     dbnz  y,$c4f4
c4f6: 24 13     and   a,$13
c4f8: ed        notc
c4f9: c4 aa     mov   $aa,a
c4fb: ee        pop   y
c4fc: 3e e4     cmp   x,$e4
c4fe: f3 3f ff  bbc7  $3f,$c4ff
c501: ee        pop   y
c502: 0e aa 24  tset1 $24aa
c505: 13 ec e3  bbc0  $ec,$c4ea
c508: ee        pop   y
c509: 2e f5 e2  cbne  $f5,$c4ed
c50c: aa 22 ef  mov1  c,$1de4,2
c50f: ee        pop   y
c510: f0 22     beq   $c534
c512: 3f 1d b4  call  $b41d
c515: 9b fb     dec   $fb+x
c517: 5b f6     lsr   $f6+x
c519: e5 60 dd  mov   a,$dd60
c51c: ec 0b 02  mov   y,$020b
c51f: 00        nop
c520: 00        nop
c521: 00        nop
c522: 00        nop
c523: 00        nop
c524: 00        nop
c525: 00        nop
c526: 00        nop
c527: 5a 1b     cmpw  ya,$1b
c529: 1e d0 fc  cmp   x,$fcd0
c52c: df        daa   a
c52d: e0        clrv
c52e: ef        sleep
c52f: 21        tcall 2
c530: 4a f3 73  and1  c,$0e7e,3
c533: 11        tcall 1
c534: 12 0e     clr0  $0e
c536: 15 2f 54  or    a,$542f+x
c539: 5a 13     cmpw  ya,$13
c53b: 30 11     bmi   $c54e
c53d: 21        tcall 2
c53e: 10 ff     bpl   $c53f
c540: ff        stop
c541: ed        notc
c542: 5a ed     cmpw  ya,$ed
c544: bc        inc   a
c545: cc cd 00  mov   $00cd,y
c548: 33 45 21  bbc1  $45,$c56b
c54b: 4a 20 fb  and1  c,$1f64,0
c54e: bd        mov   sp,x
c54f: f1        tcall 15
c550: 00        nop
c551: 13 43 46  bbc0  $43,$c599
c554: 5a 23     cmpw  ya,$23
c556: 32 22     clr1  $22
c558: 01        tcall 0
c559: 21        tcall 2
c55a: ff        stop
c55b: 0d        push  psw
c55c: ce        pop   x
c55d: 5a dc     cmpw  ya,$dc
c55f: cb bb     mov   $bb,y
c561: 99        adc   (x),(y)
c562: c2 66     set6  $66
c564: 67 34     cmp   a,($34+x)
c566: 4a 3d cb  and1  c,$1967,5
c569: ca f0 d1  mov1  $1a3e,0,c
c56c: 31        tcall 3
c56d: 46        eor   a,(x)
c56e: 44 5a     eor   a,$5a
c570: 63 34 22  bbs3  $34,$c594
c573: 21        tcall 2
c574: 00        nop
c575: 1f de fd  jmp   ($fdde+x)
c578: 6a dd fe  and1  c,!($1fdb,5)
c57b: cc de f0  mov   $f0de,y
c57e: 24 33     and   a,$33
c580: 12 5a     clr0  $5a
c582: 0e de de  tset1 $dede
c585: ee        pop   y
c586: 02 22     set0  $22
c588: 34 44     and   a,$44+x
c58a: 5a 44     cmpw  ya,$44
c58c: 33 33 20  bbc1  $33,$c5ae
c58f: 10 0f     bpl   $c5a0
c591: ed        notc
c592: fe 5a     dbnz  y,$c5ee
c594: dc        dec   y
c595: ab cc     inc   $cc
c597: aa df 00  mov1  c,$001b,7
c59a: 25 64 5a  and   a,$5a64
c59d: 20        clrp
c59e: 0d        push  psw
c59f: 9e        div   ya,x
c5a0: f0 1f     beq   $c5c1
c5a2: 14 43     or    a,$43+x
c5a4: 34 5a     and   a,$5a+x
c5a6: 44 54     eor   a,$54
c5a8: 21        tcall 2
c5a9: 12 10     clr0  $10
c5ab: 0f        brk
c5ac: 11        tcall 1
c5ad: fd        mov   y,a
c5ae: 6a ef fe  and1  c,!($1fdd,7)
c5b1: ed        notc
c5b2: ed        notc
c5b3: dc        dec   y
c5b4: cd f1     mov   x,#$f1
c5b6: 33 6a 34  bbc1  $6a,$c5ec
c5b9: 21        tcall 2
c5ba: 1f ee e0  jmp   ($e0ee+x)
c5bd: 21        tcall 2
c5be: 01        tcall 0
c5bf: 22 5a     set1  $5a
c5c1: 32 35     clr1  $35
c5c3: 33 22 21  bbc1  $22,$c5e6
c5c6: 01        tcall 0
c5c7: 20        clrp
c5c8: f0 6a     beq   $c634
c5ca: 0f        brk
c5cb: ee        pop   y
c5cc: ff        stop
c5cd: ed        notc
c5ce: db bb     mov   $bb+x,y
c5d0: bd        mov   sp,x
c5d1: 12 6a     clr0  $6a
c5d3: 56 63 11  eor   a,$1163+y
c5d6: 1e de ef  cmp   x,$efde
c5d9: 01        tcall 0
c5da: 21        tcall 2
c5db: 5a 12     cmpw  ya,$12
c5dd: 34 34     and   a,$34+x
c5df: 64 22     cmp   a,$22
c5e1: 01        tcall 0
c5e2: 10 11     bpl   $c5f5
c5e4: 6a 00 00  and1  c,!($0000,0)
c5e7: fe df     dbnz  y,$c5c8
c5e9: ff        stop
c5ea: de dc cd  cbne  $dc+x,$c5b9
c5ed: 6a cd f2  and1  c,!($1e59,5)
c5f0: 54 44     eor   a,$44+x
c5f2: 30 ff     bmi   $c5f3
c5f4: ee        pop   y
c5f5: ee        pop   y
c5f6: 5a 27     cmpw  ya,$27
c5f8: 31        tcall 3
c5f9: 34 24     and   a,$24+x
c5fb: 53 22 22  bbc2  $22,$c61f
c5fe: 10 5a     bpl   $c65a
c600: 01        tcall 0
c601: 22 1f     set1  $1f
c603: 00        nop
c604: ee        pop   y
c605: ee        pop   y
c606: fd        mov   y,a
c607: ba 7a     movw  ya,$7a
c609: ed        notc
c60a: cc df 13  mov   $13df,y
c60d: 32 21     clr1  $21
c60f: 10 10     bpl   $c621
c611: 5a c9     cmpw  ya,$c9
c613: b1        tcall 11
c614: 65 10 13  cmp   a,$1310
c617: 34 33     and   a,$33+x
c619: 23 5a 32  bbs1  $5a,$c64d
c61c: 10 24     bpl   $c642
c61e: 42 23     set2  $23
c620: 0e 0e ec  tset1 $ec0e
c623: 7a ff     addw  ya,$ff
c625: ff        stop
c626: fe ed     dbnz  y,$c615
c628: dc        dec   y
c629: dd        mov   a,y
c62a: f2 55     clr7  $55
c62c: 6a 64 42  and1  c,!($084c,4)
c62f: fd        mov   y,a
c630: cf        mul   ya
c631: 11        tcall 1
c632: f1        tcall 15
c633: f0 22     beq   $c657
c635: 5a 34     cmpw  ya,$34
c637: 53 34 22  bbc2  $34,$c65b
c63a: 33 33 22  bbc1  $33,$c65e
c63d: 21        tcall 2
c63e: 7a 0f     addw  ya,$0f
c640: 0f        brk
c641: ff        stop
c642: ff        stop
c643: fe f0     dbnz  y,$c635
c645: fc        inc   y
c646: dc        dec   y
c647: 8a cd f2  eor1  c,$1e59,5
c64a: 55 21 0f  eor   a,$0f21+x
c64d: f1        tcall 15
c64e: 00        nop
c64f: ff        stop
c650: 6a d2 10  and1  c,!($021a,2)
c653: 11        tcall 1
c654: 34 22     and   a,$22+x
c656: 22 22     set1  $22
c658: 31        tcall 3
c659: 5a 10     cmpw  ya,$10
c65b: 10 12     bpl   $c66f
c65d: 0f        brk
c65e: cc dc ac  mov   $acdc,y
c661: ef        sleep
c662: 8a 0f fe  eor1  c,$1fc1,7
c665: ee        pop   y
c666: dc        dec   y
c667: f5 63 0f  mov   a,$0f63+x
c66a: 12 6a     clr0  $6a
c66c: 2b fc     rol   $fc
c66e: cf        mul   ya
c66f: 0f        brk
c670: 01        tcall 0
c671: 24 42     and   a,$42
c673: 12 5a     clr0  $5a
c675: 66        cmp   a,(x)
c676: 42 33     set2  $33
c678: ef        sleep
c679: 33 0d df  bbc1  $0d,$c65a
c67c: fc        inc   y
c67d: 9a 00     subw  ya,$00
c67f: f0 00     beq   $c681
c681: f0 ff     beq   $c682
c683: fe e0     dbnz  y,$c665
c685: 42 7a     set2  $7a
c687: 0e 44 2f  tset1 $2f44
c68a: ee        pop   y
c68b: ef        sleep
c68c: 01        tcall 0
c68d: f0 12     beq   $c6a1
c68f: 6a 22 22  and1  c,!($0444,2)
c692: 32 22     clr1  $22
c694: 11        tcall 1
c695: f0 24     beq   $c6bb
c697: 1f 8a 00  jmp   ($008a+x)
c69a: 0f        brk
c69b: f0 0f     beq   $c6ac
c69d: f0 0e     beq   $c6ad
c69f: ee        pop   y
c6a0: ed        notc
c6a1: 8a e2 52  eor1  c,$0a5c,2
c6a4: f0 22     beq   $c6c8
c6a6: 00        nop
c6a7: f0 f0     beq   $c699
c6a9: 00        nop
c6aa: 5a e2     cmpw  ya,$e2
c6ac: 64 33     cmp   a,$33
c6ae: 65 42 42  cmp   a,$4242
c6b1: 11        tcall 1
c6b2: 24 7a     and   a,$7a
c6b4: 01        tcall 0
c6b5: 10 00     bpl   $c6b7
c6b7: ef        sleep
c6b8: ff        stop
c6b9: ff        stop
c6ba: fe dc     dbnz  y,$c698
c6bc: 8a ee d0  eor1  c,$1a1d,6
c6bf: 44 10     eor   a,$10
c6c1: f0 11     beq   $c6d4
c6c3: 00        nop
c6c4: ff        stop
c6c5: 5a 13     cmpw  ya,$13
c6c7: 20        clrp
c6c8: 13 65 35  bbc0  $65,$c6ff
c6cb: 51        tcall 5
c6cc: 26        and   a,(x)
c6cd: 4f 6a     pcall $6a
c6cf: f1        tcall 15
c6d0: 32 00     clr1  $00
c6d2: 00        nop
c6d3: 00        nop
c6d4: fe dd     dbnz  y,$c6b3
c6d6: ba 7a     movw  ya,$7a
c6d8: dd        mov   a,y
c6d9: cd f0     mov   x,#$f0
c6db: 36 41 fd  and   a,$fd41+y
c6de: f2 2f     clr7  $2f
c6e0: 5a 00     cmpw  ya,$00
c6e2: ad 23     cmp   y,#$23
c6e4: 33 45 63  bbc1  $45,$c749
c6e7: 14 63     or    a,$63+x
c6e9: 5a 13     cmpw  ya,$13
c6eb: 2f 05     bra   $c6f2
c6ed: 52 0e     clr2  $0e
c6ef: be        das   a
c6f0: 0d        push  psw
c6f1: be        das   a
c6f2: 8a 00 ee  eor1  c,$1dc0,0
c6f5: ed        notc
c6f6: df        daa   a
c6f7: 13 43 0f  bbc0  $43,$c708
c6fa: ef        sleep
c6fb: 6a 26 2f  and1  c,!($05e4,6)
c6fe: ef        sleep
c6ff: f0 f1     beq   $c6f2
c701: 13 34 21  bbc0  $34,$c724
c704: 5a 33     cmpw  ya,$33
c706: 33 31 f1  bbc1  $31,$c6f9
c709: 56 31 0c  eor   a,$0c31+y
c70c: ad 7a     cmp   y,#$7a
c70e: fe e0     dbnz  y,$c6f0
c710: fe dd     dbnz  y,$c6ef
c712: bb c2     inc   $c2+x
c714: 77 31     cmp   a,($31)+y
c716: 7a 0d     addw  ya,$0d
c718: cf        mul   ya
c719: 43 1f f0  bbs2  $1f,$c70b
c71c: ff        stop
c71d: 02 11     set0  $11
c71f: 6a 44 10  and1  c,!($0208,4)
c722: 13 11 01  bbc0  $11,$c725
c725: 02 33     set0  $33
c727: 00        nop
c728: 7a ff     addw  ya,$ff
c72a: ff        stop
c72b: ee        pop   y
c72c: ff        stop
c72d: fe db     dbnz  y,$c70a
c72f: ab f5     inc   $f5
c731: 8a 42 10  eor1  c,$0208,2
c734: 0e f0 31  tset1 $31f0
c737: 0f        brk
c738: 00        nop
c739: 00        nop
c73a: 6a f1 23  and1  c,!($047e,1)
c73d: 23 22 21  bbs1  $22,$c760
c740: 12 1e     clr0  $1e
c742: f4 7a     mov   a,$7a+x
c744: 21        tcall 2
c745: 00        nop
c746: ff        stop
c747: ff        stop
c748: ee        pop   y
c749: f0 fc     beq   $c747
c74b: cc 8a dc  mov   $dc8a,y
c74e: f4 63     mov   a,$63+x
c750: 0f        brk
c751: ef        sleep
c752: 02 20     set0  $20
c754: f0 5a     beq   $c7b0
c756: 5e 90 35  cmp   y,$3590
c759: 66        cmp   a,(x)
c75a: 41        tcall 4
c75b: 25 55 63  and   a,$6355
c75e: 6a ee 24  and1  c,!($049d,6)
c761: 30 0f     bmi   $c772
c763: fe fd     dbnz  y,$c762
c765: ee        pop   y
c766: f0 8a     beq   $c6f2
c768: fe fe     dbnz  y,$c768
c76a: dd        mov   a,y
c76b: df        daa   a
c76c: 26        and   a,(x)
c76d: 40        setp
c76e: ef        sleep
c76f: 23 6a 1d  bbs1  $6a,$c78e
c772: ef        sleep
c773: df        daa   a
c774: f1        tcall 15
c775: 01        tcall 0
c776: 34 20     and   a,$20+x
c778: 13 6a 22  bbc0  $6a,$c79c
c77b: 33 ff 24  bbc1  $ff,$c7a1
c77e: 20        clrp
c77f: f0 ef     beq   $c770
c781: de 8a 0f  cbne  $8a+x,$c792
c784: 0f        brk
c785: 0e fe ed  tset1 $edfe
c788: ee        pop   y
c789: 05 60 7a  or    a,$7a60
c78c: af        mov   (x)+,a
c78d: 76 0e fe  cmp   a,$fe0e+y
c790: ff        stop
c791: 00        nop
c792: 11        tcall 1
c793: 12 5a     clr0  $5a
c795: 20        clrp
c796: 27 43     and   a,($43+x)
c798: 32 25     clr1  $25
c79a: 45 20 ec  eor   a,$ec20
c79d: 7a f0     addw  ya,$f0
c79f: ff        stop
c7a0: 00        nop
c7a1: fe ff     dbnz  y,$c7a2
c7a3: da cf     movw  $cf,ya
c7a5: fb 8a     mov   y,$8a+x
c7a7: d0 54     bne   $c7fd
c7a9: f0 32     beq   $c7dd
c7ab: 10 ff     bpl   $c7ac
c7ad: ff        stop
c7ae: 01        tcall 0
c7af: 6a 10 22  and1  c,!($0442,0)
c7b2: 02 22     set0  $22
c7b4: 12 00     clr0  $00
c7b6: 36 30 7a  and   a,$7a30+y
c7b9: f0 00     beq   $c7bb
c7bb: 0f        brk
c7bc: ef        sleep
c7bd: 11        tcall 1
c7be: fd        mov   y,a
c7bf: de dc 8a  cbne  $dc+x,$c74b
c7c2: f1        tcall 15
c7c3: 0d        push  psw
c7c4: bf        mov   a,(x)+
c7c5: 54 01     eor   a,$01+x
c7c7: 32 0f     clr1  $0f
c7c9: f0 5a     beq   $c825
c7cb: bb 04     inc   $04+x
c7cd: 02 31     set0  $31
c7cf: 16 40 24  or    a,$2440+y
c7d2: 23 6a 46  bbs1  $6a,$c81a
c7d5: 3e d0     cmp   x,$d0
c7d7: 0f        brk
c7d8: ff        stop
c7d9: e0        clrv
c7da: 20        clrp
c7db: ba 7a     movw  ya,$7a
c7dd: ed        notc
c7de: cd 02     mov   x,#$02
c7e0: 0b af     asl   $af
c7e2: 33 56 31  bbc1  $56,$c815
c7e5: 6a 21 cc  and1  c,!($1984,1)
c7e8: e0        clrv
c7e9: 20        clrp
c7ea: 01        tcall 0
c7eb: 20        clrp
c7ec: 13 20 6a  bbc0  $20,$c858
c7ef: 01        tcall 0
c7f0: 13 55 0e  bbc0  $55,$c800
c7f3: f0 f0     beq   $c7e5
c7f5: fd        mov   y,a
c7f6: f1        tcall 15
c7f7: 7a 00     addw  ya,$00
c7f9: ed        notc
c7fa: dc        dec   y
c7fb: cd 12     mov   x,#$12
c7fd: fa b1 44  mov   ($44),($b1)
c800: 7a 77     addw  ya,$77
c802: 1f 01 ed  jmp   ($ed01+x)
c805: f1        tcall 15
c806: 10 01     bpl   $c809
c808: 10 6a     bpl   $c874
c80a: 03 21 01  bbs0  $21,$c80d
c80d: 35 43 0e  and   a,$0e43+x
c810: f0 0f     beq   $c821
c812: 7a ee     addw  ya,$ee
c814: 01        tcall 0
c815: 0f        brk
c816: ed        notc
c817: cc de fd  mov   $fdde,y
c81a: d0 8a     bne   $c7a6
c81c: 31        tcall 3
c81d: f1        tcall 15
c81e: 53 0f 0f  bbc2  $0f,$c82f
c821: ff        stop
c822: 00        nop
c823: 10 6a     bpl   $c88f
c825: 32 1f     clr1  $1f
c827: 33 0f 24  bbc1  $0f,$c84d
c82a: 44 41     eor   a,$41
c82c: ef        sleep
c82d: 7a 00     addw  ya,$00
c82f: ff        stop
c830: ef        sleep
c831: ef        sleep
c832: 00        nop
c833: fd        mov   y,a
c834: cc ef 8a  mov   $8aef,y
c837: fe e1     dbnz  y,$c81a
c839: 20        clrp
c83a: 04 51     or    a,$51
c83c: ff        stop
c83d: 00        nop
c83e: ff        stop
c83f: 6a f3 11  and1  c,!($023e,3)
c842: 31        tcall 3
c843: 02 40     set0  $40
c845: 02 33     set0  $33
c847: 35 6a 3f  and   a,$3f6a+x
c84a: e0        clrv
c84b: 00        nop
c84c: fc        inc   y
c84d: ce        pop   x
c84e: ed        notc
c84f: de ea 8a  cbne  $ea+x,$c7db
c852: ee        pop   y
c853: f0 fe     beq   $c853
c855: 02 0f     set0  $0f
c857: 25 30 f0  and   a,$f030
c85a: 6a fc c0  and1  c,!($181f,4)
c85d: 31        tcall 3
c85e: 13 3f f2  bbc0  $3f,$c852
c861: 21        tcall 2
c862: 23 6a 33  bbs1  $6a,$c897
c865: 43 1f 1f  bbs2  $1f,$c886
c868: e0        clrv
c869: 0c dd ec  asl   $ecdd
c86c: 8a ff ff  eor1  c,$1fff,7
c86f: ff        stop
c870: ff        stop
c871: ee        pop   y
c872: 02 f1     set0  $f1
c874: 54 6a     eor   a,$6a+x
c876: 0e 2f db  tset1 $db2f
c879: e1        tcall 14
c87a: 21        tcall 2
c87b: 33 0f 12  bbc1  $0f,$c88f
c87e: 6a 01 56  and1  c,!($0ac0,1)
c881: 22 32     set1  $32
c883: ff        stop
c884: 1f f0 fe  jmp   ($fef0+x)
c887: 7a ff     addw  ya,$ff
c889: fd        mov   y,a
c88a: de 0d ce  cbne  $0d+x,$c85a
c88d: 1e 9b 33  cmp   x,$339b
c890: 8a f2 63  eor1  c,$0c7e,2
c893: 0f        brk
c894: 00        nop
c895: fe 01     dbnz  y,$c898
c897: 00        nop
c898: 20        clrp
c899: 6a df 50  and1  c,!($0a1b,7)
c89c: f4 65     mov   a,$65+x
c89e: 23 20 f0  bbs1  $20,$c890
c8a1: ff        stop
c8a2: 6a 11 ee  and1  c,!($1dc2,1)
c8a5: ee        pop   y
c8a6: da be     movw  $be,ya
c8a8: d9 b0     mov   $b0+y,x
c8aa: 09 8a cc  or    ($cc),($8a)
c8ad: 02 25     set0  $25
c8af: 61        tcall 6
c8b0: 0f        brk
c8b1: ff        stop
c8b2: ff        stop
c8b3: 01        tcall 0
c8b4: 6a 22 3f  and1  c,!($07e4,2)
c8b7: e0        clrv
c8b8: 31        tcall 3
c8b9: 26        and   a,(x)
c8ba: 63 23 2f  bbs3  $23,$c8eb
c8bd: 6a d0 10  and1  c,!($021a,0)
c8c0: 0f        brk
c8c1: ef        sleep
c8c2: ee        pop   y
c8c3: ba be     movw  ya,$be
c8c5: ca 8a f1  mov1  $1e31,2,c
c8c8: 1d        dec   x
c8c9: ab 04     inc   $04
c8cb: 65 31 0f  cmp   a,$0f31
c8ce: fe 7a     dbnz  y,$c94a
c8d0: ef        sleep
c8d1: 11        tcall 1
c8d2: 21        tcall 2
c8d3: 00        nop
c8d4: f1        tcall 15
c8d5: 11        tcall 1
c8d6: 24 21     and   a,$21
c8d8: 6a 23 0e  and1  c,!($01c4,3)
c8db: f1        tcall 15
c8dc: 00        nop
c8dd: 0d        push  psw
c8de: ee        pop   y
c8df: fe ab     dbnz  y,$c88c
c8e1: 9a 0f     subw  ya,$0f
c8e3: f0 00     beq   $c8e5
c8e5: 0f        brk
c8e6: dd        mov   a,y
c8e7: f3 43 10  bbc7  $43,$c8f9
c8ea: 6a ae cb  and1  c,!($1975,6)
c8ed: bf        mov   a,(x)+
c8ee: 24 41     and   a,$41
c8f0: fe f2     dbnz  y,$c8e4
c8f2: 34 6a     and   a,$6a+x
c8f4: 66        cmp   a,(x)
c8f5: 30 23     bmi   $c91a
c8f7: 0e 01 00  tset1 $0001
c8fa: fd        mov   y,a
c8fb: de 9a 0f  cbne  $9a+x,$c90c
c8fe: 00        nop
c8ff: ff        stop
c900: f0 01     beq   $c903
c902: 0e dd f4  tset1 $f4dd
c905: 9a 62     subw  ya,$62
c907: f0 00     beq   $c909
c909: ff        stop
c90a: f1        tcall 15
c90b: 10 00     bpl   $c90d
c90d: 00        nop
c90e: 7a 10     addw  ya,$10
c910: 04 42     or    a,$42
c912: 01        tcall 0
c913: 10 f0     bpl   $c905
c915: 10 00     bpl   $c917
c917: 8a ff 00  eor1  c,$001f,7
c91a: ff        stop
c91b: f0 ee     beq   $c90b
c91d: f0 10     beq   $c92f
c91f: fb 9a     mov   y,$9a+x
c921: dd        mov   a,y
c922: 25 41 0f  and   a,$0f41
c925: 00        nop
c926: ff        stop
c927: 00        nop
c928: 11        tcall 1
c929: 7a 1c     addw  ya,$1c
c92b: f0 11     beq   $c93e
c92d: 44 30     eor   a,$30
c92f: f1        tcall 15
c930: 10 f0     bpl   $c922
c932: 7a 01     addw  ya,$01
c934: 1f ef ff  jmp   ($ffef+x)
c937: ee        pop   y
c938: ff        stop
c939: dc        dec   y
c93a: e0        clrv
c93b: 9a 00     subw  ya,$00
c93d: fe cf     dbnz  y,$c90e
c93f: 45 20 00  eor   a,$0020
c942: 0f        brk
c943: f0 7a     beq   $c9bf
c945: f0 24     beq   $c96b
c947: 1e e0 22  cmp   x,$22e0
c94a: 44 10     eor   a,$10
c94c: 11        tcall 1
c94d: 6a fd 02  and1  c,!($005f,5)
c950: 01        tcall 0
c951: 1e cd ee  cmp   x,$eecd
c954: cd ec     mov   x,#$ec
c956: 9a ff     subw  ya,$ff
c958: 01        tcall 0
c959: 0f        brk
c95a: ed        notc
c95b: d1        tcall 13
c95c: 55 10 f0  eor   a,$f010+x
c95f: 7a ce     addw  ya,$ce
c961: e0        clrv
c962: 02 32     set0  $32
c964: ee        pop   y
c965: f1        tcall 15
c966: 24 53     and   a,$53
c968: 6a 0e 13  and1  c,!($0261,6)
c96b: fd        mov   y,a
c96c: 01        tcall 0
c96d: 21        tcall 2
c96e: 0d        push  psw
c96f: de dc 9a  cbne  $dc+x,$c90b
c972: f0 0f     beq   $c983
c974: f0 00     beq   $c976
c976: 00        nop
c977: dc        dec   y
c978: d4 63     mov   $63+x,a
c97a: 6a f0 da  and1  c,!($1b5e,0)
c97d: ce        pop   x
c97e: de 14 52  cbne  $14+x,$c9d2
c981: bb 05     inc   $05+x
c983: 7a 35     addw  ya,$35
c985: 41        tcall 4
c986: f0 11     beq   $c999
c988: ff        stop
c989: 11        tcall 1
c98a: 10 fe     bpl   $c98a
c98c: 9a 00     subw  ya,$00
c98e: ff        stop
c98f: 00        nop
c990: ff        stop
c991: 00        nop
c992: 00        nop
c993: 0e cc 9a  tset1 $9acc
c996: 16 51 0f  or    a,$0f51+y
c999: 0f        brk
c99a: 0f        brk
c99b: 00        nop
c99c: 10 00     bpl   $c99e
c99e: 7a fe     addw  ya,$fe
c9a0: 13 45 30  bbc0  $45,$c9d2
c9a3: e1        tcall 14
c9a4: 20        clrp
c9a5: e0        clrv
c9a6: 11        tcall 1
c9a7: 7a 10     addw  ya,$10
c9a9: ef        sleep
c9aa: f0 ec     beq   $c998
c9ac: df        daa   a
c9ad: ed        notc
c9ae: f0 22     beq   $c9d2
c9b0: aa 0e ee  mov1  c,$1dc1,6
c9b3: 14 20     or    a,$20+x
c9b5: 00        nop
c9b6: f0 00     beq   $c9b8
c9b8: f0 7a     beq   $ca34
c9ba: 57 fc     eor   a,($fc)+y
c9bc: ef        sleep
c9bd: 34 44     and   a,$44+x
c9bf: 1f f2 2f  jmp   ($2ff2+x)
c9c2: 7a f0     addw  ya,$f0
c9c4: 10 10     bpl   $c9d6
c9c6: ff        stop
c9c7: ff        stop
c9c8: ec de ef  mov   y,$efde
c9cb: aa 00 00  mov1  c,$0000,0
c9ce: 0f        brk
c9cf: de 24 20  cbne  $24+x,$c9f1
c9d2: ff        stop
c9d3: 10 7a     bpl   $ca4f
c9d5: bb 3f     inc   $3f+x
c9d7: 33 0b e2  bbc1  $0b,$c9bb
c9da: 54 42     eor   a,$42+x
c9dc: 0f        brk
c9dd: 6a 14 1e  and1  c,!($03c2,4)
c9e0: f2 12     clr7  $12
c9e2: 1d        dec   x
c9e3: cf        mul   ya
c9e4: 0e 99 aa  tset1 $aa99
c9e7: 00        nop
c9e8: f0 00     beq   $c9ea
c9ea: 01        tcall 0
c9eb: fe df     dbnz  y,$c9cc
c9ed: 34 1f     and   a,$1f+x
c9ef: 7a 20     addw  ya,$20
c9f1: ec ef f0  mov   y,$f0ef
c9f4: 23 fc e4  bbs1  $fc,$c9da
c9f7: 55 7a 31  eor   a,$317a+x
c9fa: f0 11     beq   $ca0d
c9fc: 0f        brk
c9fd: 01        tcall 0
c9fe: 11        tcall 1
c9ff: fe 00     dbnz  y,$ca01
ca01: 9a 0f     subw  ya,$0f
ca03: f0 0f     beq   $ca14
ca05: f0 00     beq   $ca07
ca07: 00        nop
ca08: ed        notc
ca09: cf        mul   ya
ca0a: 9a 57     subw  ya,$57
ca0c: 2f ff     bra   $ca0d
ca0e: 00        nop
ca0f: 0f        brk
ca10: 00        nop
ca11: 10 f0     bpl   $ca03
ca13: 7a 13     addw  ya,$13
ca15: 36 30 f0  and   a,$f030+y
ca18: 11        tcall 1
ca19: ff        stop
ca1a: 11        tcall 1
ca1b: 11        tcall 1
ca1c: 7a fe     addw  ya,$fe
ca1e: f0 fd     beq   $ca1d
ca20: d0 0d     bne   $ca2f
ca22: ce        pop   x
ca23: 01        tcall 0
ca24: 0e 9a ed  tset1 $ed9a
ca27: d0 46     bne   $ca6f
ca29: 2f f0     bra   $ca1b
ca2b: 00        nop
ca2c: ff        stop
ca2d: 01        tcall 0
ca2e: 7a 1f     addw  ya,$1f
ca30: d0 25     bne   $ca57
ca32: 43 20 00  bbs2  $20,$ca34
ca35: 10 f0     bpl   $ca27
ca37: 7a 01     addw  ya,$01
ca39: 11        tcall 1
ca3a: ee        pop   y
ca3b: 00        nop
ca3c: ec f1 fc  mov   y,$fcf1
ca3f: ce        pop   x
ca40: 9a 00     subw  ya,$00
ca42: 0f        brk
ca43: ed        notc
ca44: f1        tcall 15
ca45: 45 2e ff  eor   a,$ff2e
ca48: 00        nop
ca49: 7a 2f     addw  ya,$2f
ca4b: ff        stop
ca4c: f0 02     beq   $ca50
ca4e: 43 33 2f  bbs2  $33,$ca7f
ca51: f1        tcall 15
ca52: 6a 4e c1  and1  c,!($1829,6)
ca55: 22 2e     set1  $2e
ca57: de fe bb  cbne  $fe+x,$ca14
ca5a: 21        tcall 2
ca5b: 9a ff     subw  ya,$ff
ca5d: f0 00     beq   $ca5f
ca5f: ff        stop
ca60: ee        pop   y
ca61: f2 54     clr7  $54
ca63: 0f        brk
ca64: 7a cd     addw  ya,$cd
ca66: d1        tcall 13
ca67: 11        tcall 1
ca68: ee        pop   y
ca69: 11        tcall 1
ca6a: 02 44     set0  $44
ca6c: 32 6a     clr1  $6a
ca6e: ff        stop
ca6f: 03 2e d0  bbs0  $2e,$ca41
ca72: 33 1d de  bbc1  $1d,$ca52
ca75: ec 8a ff  mov   y,$ff8a
ca78: 10 ee     bpl   $ca68
ca7a: f0 0f     beq   $ca8b
ca7c: dc        dec   y
ca7d: cd 27     mov   x,#$27
ca7f: 9a 52     subw  ya,$52
ca81: ff        stop
ca82: 0f        brk
ca83: f0 10     beq   $ca95
ca85: f0 00     beq   $ca87
ca87: 11        tcall 1
ca88: 7a 21     addw  ya,$21
ca8a: 51        tcall 5
ca8b: 0f        brk
ca8c: 01        tcall 0
ca8d: 1f f0 22  jmp   ($22f0+x)
ca90: fe 8a     dbnz  y,$ca1c
ca92: 00        nop
ca93: ef        sleep
ca94: f0 00     beq   $ca96
ca96: ef        sleep
ca97: f0 ff     beq   $ca98
ca99: cb 9a     mov   $9a,y
ca9b: e0        clrv
ca9c: 24 41     and   a,$41
ca9e: ff        stop
ca9f: 0f        brk
caa0: 00        nop
caa1: 0f        brk
caa2: 01        tcall 0
caa3: 7a 1f     addw  ya,$1f
caa5: 04 44     or    a,$44
caa7: 20        clrp
caa8: 00        nop
caa9: 01        tcall 0
caaa: 0f        brk
caab: 00        nop
caac: 7a 12     addw  ya,$12
caae: ff        stop
caaf: f0 dc     beq   $ca8d
cab1: e2 0d     set7  $0d
cab3: df        daa   a
cab4: ff        stop
cab5: 9a 0f     subw  ya,$0f
cab7: ec e1 44  mov   y,$44e1
caba: 30 0f     bmi   $cacb
cabc: ff        stop
cabd: 00        nop
cabe: 7a 1f     addw  ya,$1f
cac0: f1        tcall 15
cac1: 21        tcall 2
cac2: 13 33 21  bbc0  $33,$cae5
cac5: 00        nop
cac6: 00        nop
cac7: 7a 00     addw  ya,$00
cac9: 00        nop
caca: 11        tcall 1
cacb: f0 0f     beq   $cadc
cacd: cc f1 fd  mov   $fdf1,y
cad0: 9a 0f     subw  ya,$0f
cad2: 00        nop
cad3: 0e ed e1  tset1 $e1ed
cad6: 45 3f ff  eor   a,$ff3f
cad9: 7a ff     addw  ya,$ff
cadb: fe f0     dbnz  y,$cacd
cadd: 12 21     clr0  $21
cadf: 12 43     clr0  $43
cae1: 10 7a     bpl   $cb5d
cae3: 10 00     bpl   $cae5
cae5: 00        nop
cae6: 00        nop
cae7: 20        clrp
cae8: 00        nop
cae9: 0d        push  psw
caea: cc 9a 00  mov   $009a,y
caed: 0f        brk
caee: 00        nop
caef: 0f        brk
caf0: ff        stop
caf1: dd        mov   a,y
caf2: 03 33 8a  bbs0  $33,$ca7e
caf5: 40        setp
caf6: fe f0     dbnz  y,$cae8
caf8: fe 01     dbnz  y,$cafb
cafa: 11        tcall 1
cafb: 01        tcall 0
cafc: 11        tcall 1
cafd: 6a 45 31  and1  c,!($0628,5)
cb00: 1f 00 21  jmp   ($2100+x)
cb03: f1        tcall 15
cb04: 30 f0     bmi   $caf6
cb06: 8a 0e ee  eor1  c,$1dc1,6
cb09: 01        tcall 0
cb0a: 0e ff 0f  tset1 $0fff
cb0d: fc        inc   y
cb0e: bd        mov   sp,x
cb0f: 8a 32 27  eor1  c,$04e6,2
cb12: 60        clrc
cb13: ef        sleep
cb14: e0        clrv
cb15: ff        stop
cb16: 01        tcall 0
cb17: 11        tcall 1
cb18: 6a 21 27  and1  c,!($04e4,1)
cb1b: 62 13     set3  $13
cb1d: 1f 01 1f  jmp   ($1f01+x)
cb20: f3 7a 10  bbc7  $7a,$cb32
cb23: 00        nop
cb24: eb c0     mov   y,$c0
cb26: 2f ee     bra   $cb16
cb28: ed        notc
cb29: ff        stop
cb2a: 8a eb c2  eor1  c,$185d,3
cb2d: 5f e6 71  jmp   $71e6
cb30: ef        sleep
cb31: ff        stop
cb32: ff        stop
cb33: 6a 43 23  and1  c,!($0468,3)
cb36: 64 04     cmp   a,$04
cb38: 43 12 00  bbs2  $12,$cb3a
cb3b: 01        tcall 0
cb3c: 7a 00     addw  ya,$00
cb3e: 02 00     set0  $00
cb40: 0f        brk
cb41: dc        dec   y
cb42: e0        clrv
cb43: 1f ee 8a  jmp   ($8aee+x)
cb46: fe ff     dbnz  y,$cb47
cb48: dc        dec   y
cb49: 04 2d     or    a,$2d
cb4b: f7 60     mov   a,($60)+y
cb4d: ef        sleep
cb4e: 6a ce d1  and1  c,!($1a39,6)
cb51: 21        tcall 2
cb52: 15 62 15  or    a,$1562+x
cb55: 41        tcall 4
cb56: 21        tcall 2
cb57: 7a 00     addw  ya,$00
cb59: 01        tcall 0
cb5a: 0f        brk
cb5b: 11        tcall 1
cb5c: 00        nop
cb5d: 0e bd 12  tset1 $12bd
cb60: 9a 0f     subw  ya,$0f
cb62: 0f        brk
cb63: ff        stop
cb64: 0f        brk
cb65: ff        stop
cb66: 12 0d     clr0  $0d
cb68: 04 8a     or    a,$8a
cb6a: 6f        ret
cb6b: ff        stop
cb6c: ff        stop
cb6d: 00        nop
cb6e: 10 01     bpl   $cb71
cb70: 20        clrp
cb71: 11        tcall 1
cb72: 6a 40 20  and1  c,!($0408,0)
cb75: 00        nop
cb76: 01        tcall 0
cb77: 00        nop
cb78: 31        tcall 3
cb79: f0 e9     beq   $cb64
cb7b: 8a ef 11  eor1  c,$023d,7
cb7e: ff        stop
cb7f: 0f        brk
cb80: de fd d0  cbne  $fd+x,$cb52
cb83: 44 9a     eor   a,$9a
cb85: fd        mov   y,a
cb86: 15 2f ff  or    a,$ff2f+x
cb89: 00        nop
cb8a: 00        nop
cb8b: 10 00     bpl   $cb8d
cb8d: 6a 42 73  and1  c,!($0e68,2)
cb90: 22 31     set1  $31
cb92: fe 11     dbnz  y,$cba5
cb94: f1        tcall 15
cb95: 51        tcall 5
cb96: 7a ff     addw  ya,$ff
cb98: ec c0 21  mov   y,$21c0
cb9b: ff        stop
cb9c: ed        notc
cb9d: bc        inc   a
cb9e: ca 9a f1  mov1  $1e33,2,c
cba1: 21        tcall 2
cba2: ee        pop   y
cba3: 34 1e     and   a,$1e+x
cba5: 0f        brk
cba6: 00        nop
cba7: 10 7a     bpl   $cc23
cba9: fe 24     dbnz  y,$cbcf
cbab: 20        clrp
cbac: 22 11     set1  $11
cbae: 11        tcall 1
cbaf: ff        stop
cbb0: 01        tcall 0
cbb1: 7a 01     addw  ya,$01
cbb3: 10 0f     bpl   $cbc4
cbb5: db d1     mov   $d1+x,y
cbb7: 30 ff     bmi   $cbb8
cbb9: ec 9a ff  mov   y,$ff9a
cbbc: ee        pop   y
cbbd: f3 3f d0  bbc7  $3f,$cb8f
cbc0: 43 0f ff  bbs2  $0f,$cbc1
cbc3: 6a e5 72  and1  c,!($0e5c,5)
cbc6: fe 56     dbnz  y,$cc1e
cbc8: f1        tcall 15
cbc9: 55 23 20  eor   a,$2023+x
cbcc: 7a ff     addw  ya,$ff
cbce: 01        tcall 0
cbcf: 11        tcall 1
cbd0: 00        nop
cbd1: 0f        brk
cbd2: cb e3     mov   $e3,y
cbd4: 2f 9a     bra   $cb70
cbd6: 0f        brk
cbd7: ff        stop
cbd8: 0f        brk
cbd9: ee        pop   y
cbda: 02 2f     set0  $2f
cbdc: e1        tcall 14
cbdd: 52 7a     clr2  $7a
cbdf: aa ff f2  mov1  c,$1e5f,7
cbe2: 31        tcall 3
cbe3: f0 32     beq   $cc17
cbe5: f1        tcall 15
cbe6: 32 7a     clr1  $7a
cbe8: 12 1f     clr0  $1f
cbea: e1        tcall 14
cbeb: 11        tcall 1
cbec: 01        tcall 0
cbed: 00        nop
cbee: fd        mov   y,a
cbef: cc 8a 01  mov   $018a,y
cbf2: 10 0e     bpl   $cc02
cbf4: ee        pop   y
cbf5: fd        mov   y,a
cbf6: cc 26 2b  mov   $2b26,y
cbf9: 9a f3     subw  ya,$f3
cbfb: 40        setp
cbfc: ff        stop
cbfd: 00        nop
cbfe: 00        nop
cbff: 00        nop
cc00: 01        tcall 0
cc01: 10 6a     bpl   $cc6d
cc03: d4 42     mov   $42+x,a
cc05: 34 0c     and   a,$0c+x
cc07: e3 42 10  bbs7  $42,$cc19
cc0a: f0 8a     beq   $cb96
cc0c: ff        stop
cc0d: ee        pop   y
cc0e: 02 1f     set0  $1f
cc10: fe ef     dbnz  y,$cc01
cc12: fd        mov   y,a
cc13: bd        mov   sp,x
cc14: 9a 23     subw  ya,$23
cc16: 0d        push  psw
cc17: f3 41 ff  bbc7  $41,$cc18
cc1a: f0 10     beq   $cc2c
cc1c: 00        nop
cc1d: 6a 32 50  and1  c,!($0a06,2)
cc20: e5 52 33  mov   a,$3352
cc23: fd        mov   y,a
cc24: 14 42     or    a,$42+x
cc26: 7a ff     addw  ya,$ff
cc28: 01        tcall 0
cc29: ec ce 22  mov   y,$22ce
cc2c: 00        nop
cc2d: ec bd 9a  mov   y,$9abd
cc30: fe e1     dbnz  y,$cc13
cc32: 32 ed     clr1  $ed
cc34: f4 40     mov   a,$40+x
cc36: ff        stop
cc37: 00        nop
cc38: 7a 30     addw  ya,$30
cc3a: 0f        brk
cc3b: 13 20 f2  bbc0  $20,$cc2f
cc3e: 21        tcall 2
cc3f: 22 fe     set1  $fe
cc41: 7a 13     addw  ya,$13
cc43: 10 ff     bpl   $cc44
cc45: 00        nop
cc46: fc        inc   y
cc47: b0 42     bcs   $cc8b
cc49: ee        pop   y
cc4a: 9a ff     subw  ya,$ff
cc4c: ff        stop
cc4d: ff        stop
cc4e: f1        tcall 15
cc4f: 31        tcall 3
cc50: dc        dec   y
cc51: 05 40 7a  or    a,$7a40
cc54: be        das   a
cc55: f1        tcall 15
cc56: 00        nop
cc57: 00        nop
cc58: 14 2f     or    a,$2f+x
cc5a: f2 21     clr7  $21
cc5c: 7a 21     addw  ya,$21
cc5e: e0        clrv
cc5f: 22 10     set1  $10
cc61: ef        sleep
cc62: 10 db     bpl   $cc3f
cc64: d3 9a 10  bbc6  $9a,$cc76
cc67: f0 ff     beq   $cc68
cc69: ff        stop
cc6a: ef        sleep
cc6b: 12 20     clr0  $20
cc6d: dc        dec   y
cc6e: 9a 05     subw  ya,$05
cc70: 40        setp
cc71: f0 00     beq   $cc73
cc73: f0 00     beq   $cc75
cc75: 11        tcall 1
cc76: 00        nop
cc77: 6a 20 06  and1  c,!($00c4,0)
cc7a: 4e c3 73  tclr1 $73c3
cc7d: ee        pop   y
cc7e: ff        stop
cc7f: ed        notc
cc80: 8a fe 01  eor1  c,$003f,6
cc83: 2f ff     bra   $cc84
cc85: fd        mov   y,a
cc86: cd f0     mov   x,#$f0
cc88: 35 9a 1f  and   a,$1f9a+x
cc8b: cd 26     mov   x,#$26
cc8d: 2f f0     bra   $cc7f
cc8f: 00        nop
cc90: 00        nop
cc91: 00        nop
cc92: 6a 56 3e  and1  c,!($07ca,6)
cc95: 13 33 2e  bbc0  $33,$ccc5
cc98: e2 53     set7  $53
cc9a: fd        mov   y,a
cc9b: 8a 00 fe  eor1  c,$1fc0,0
cc9e: e0        clrv
cc9f: 22 0e     set1  $0e
cca1: ff        stop
cca2: fd        mov   y,a
cca3: cc 9a 01  mov   $019a,y
cca6: 22 0e     set1  $0e
cca8: ce        pop   x
cca9: 45 1f 00  eor   a,$001f
ccac: 0f        brk
ccad: 7a f2     addw  ya,$f2
ccaf: 1e 34 1f  cmp   x,$1f34
ccb2: 02 23     set0  $23
ccb4: 0e f2 7a  tset1 $7af2
ccb7: 21        tcall 2
ccb8: ff        stop
ccb9: ff        stop
ccba: ed        notc
ccbb: d1        tcall 13
ccbc: 33 0e ee  bbc1  $0e,$ccac
ccbf: 9a fe     subw  ya,$fe
ccc1: ef        sleep
ccc2: 01        tcall 0
ccc3: 22 0d     set1  $0d
ccc5: cf        mul   ya
ccc6: 55 0e 6a  eor   a,$6a0e+x
ccc9: 15 0c 01  or    a,$010c+x
cccc: e1        tcall 14
cccd: 66        cmp   a,(x)
ccce: fe 25     dbnz  y,$ccf5
ccd0: 63 7a 0e  bbs3  $7a,$cce0
ccd3: 02 20     set0  $20
ccd5: ff        stop
ccd6: fe dd     dbnz  y,$ccb5
ccd8: f3 32 9a  bbc7  $32,$cc74
ccdb: 0f        brk
ccdc: f0 fe     beq   $ccdc
ccde: ef        sleep
ccdf: 01        tcall 0
cce0: 31        tcall 3
cce1: fc        inc   y
cce2: e2 9a     set7  $9a
cce4: 52 f0     clr2  $f0
cce6: 00        nop
cce7: f0 01     beq   $ccea
cce9: 00        nop
ccea: 01        tcall 0
cceb: 00        nop
ccec: 7a 02     addw  ya,$02
ccee: 32 ff     clr1  $ff
ccf0: 12 10     clr0  $10
ccf2: ff        stop
ccf3: ee        pop   y
ccf4: dc        dec   y
ccf5: 8a 02 20  eor1  c,$0400,2
ccf8: 0f        brk
ccf9: fd        mov   y,a
ccfa: dd        mov   a,y
ccfb: dd        mov   a,y
ccfc: 14 51     or    a,$51+x
ccfe: 9a ec     subw  ya,$ec
cd00: f3 51 0f  bbc7  $51,$cd11
cd03: 0f        brk
cd04: 00        nop
cd05: 00        nop
cd06: 11        tcall 1
cd07: 6a 1a d3  and1  c,!($1a63,2)
cd0a: 55 53 ff  eor   a,$ff53+x
cd0d: 23 3f dc  bbs1  $3f,$cceb
cd10: 7a fd     addw  ya,$fd
cd12: ce        pop   x
cd13: 24 20     and   a,$20
cd15: ff        stop
cd16: da 9a     movw  $9a,ya
cd18: ac 9a 13  inc   $139a
cd1b: 2f dd     bra   $ccfa
cd1d: 04 41     or    a,$41
cd1f: ff        stop
cd20: 00        nop
cd21: 00        nop
cd22: 7a 0f     addw  ya,$0f
cd24: 26        and   a,(x)
cd25: 2d        push  a
cd26: d2 32     clr6  $32
cd28: 12 00     clr0  $00
cd2a: 12 7a     clr0  $7a
cd2c: 10 ed     bpl   $cd1b
cd2e: ee        pop   y
cd2f: de 44 1e  cbne  $44+x,$cd4f
cd32: ff        stop
cd33: ca 9a ef  mov1  $1df3,2,c
cd36: e0        clrv
cd37: 23 1f cc  bbs1  $1f,$cd05
cd3a: 16 40 ff  or    a,$ff40+y
cd3d: 7a f0     addw  ya,$f0
cd3f: ff        stop
cd40: 02 44     set0  $44
cd42: 0d        push  psw
cd43: f2 22     clr7  $22
cd45: 21        tcall 2
cd46: 7a f0     addw  ya,$f0
cd48: 22 10     set1  $10
cd4a: ec de f1  mov   y,$f1de
cd4d: 32 1f     clr1  $1f
cd4f: 96 00 fe  adc   a,$fe00+y
cd52: dc        dec   y
cd53: bc        inc   a
cd54: f3 42 ec  bbc7  $42,$cd42
cd57: e4 9a     mov   a,$9a
cd59: 30 f0     bmi   $cd4b
cd5b: 00        nop
cd5c: f0 01     beq   $cd5f
cd5e: 01        tcall 0
cd5f: 00        nop
cd60: f1        tcall 15
cd61: 6a 44 23  and1  c,!($0468,4)
cd64: d1        tcall 13
cd65: 54 0d     eor   a,$0d+x
cd67: aa bc 07  mov1  c,$00f7,4
cd6a: 8a 20 0f  eor1  c,$01e4,0
cd6d: fe ed     dbnz  y,$cd5c
cd6f: cc 04 63  mov   $6304,y
cd72: fb 9a     mov   y,$9a+x
cd74: cd 26     mov   x,#$26
cd76: 30 f0     bmi   $cd68
cd78: 0f        brk
cd79: f0 11     beq   $cd8c
cd7b: 10 6a     bpl   $cde7
cd7d: ed        notc
cd7e: f2 44     clr7  $44
cd80: 41        tcall 4
cd81: e1        tcall 14
cd82: 44 fc     eor   a,$fc
cd84: ba 8a     movw  ya,$8a
cd86: ff        stop
cd87: 12 10     clr0  $10
cd89: 0f        brk
cd8a: ee        pop   y
cd8b: ec ce 34  mov   y,$34ce
cd8e: 9a 21     subw  ya,$21
cd90: fd        mov   y,a
cd91: ce        pop   x
cd92: 36 3f ff  and   a,$ff3f+y
cd95: 00        nop
cd96: 00        nop
cd97: 6a 25 55  and1  c,!($0aa4,5)
cd9a: ec f3 45  mov   y,$45f3
cd9d: 3f f3 41  call  $41f3
cda0: 8a ff fe  eor1  c,$1fdf,7
cda3: f1        tcall 15
cda4: 20        clrp
cda5: 11        tcall 1
cda6: 0d        push  psw
cda7: ee        pop   y
cda8: ec 9a e0  mov   y,$e09a
cdab: 23 10 ed  bbs1  $10,$cd9a
cdae: cf        mul   ya
cdaf: 56 1f f0  eor   a,$f01f+y
cdb2: 6a bc f6  and1  c,!($1ed7,4)
cdb5: 22 55     set1  $55
cdb7: fc        inc   y
cdb8: 05 44 1e  or    a,$1e44
cdbb: 7a 02     addw  ya,$02
cdbd: 10 ee     bpl   $cdad
cdbf: cd 03     mov   x,#$03
cdc1: 22 11     set1  $11
cdc3: fc        inc   y
cdc4: 9a ff     subw  ya,$ff
cdc6: ee        pop   y
cdc7: e1        tcall 14
cdc8: 33 0f ed  bbc1  $0f,$cdb7
cdcb: d0 55     bne   $ce22
cdcd: 7a 4b     addw  ya,$4b
cdcf: df        daa   a
cdd0: ee        pop   y
cdd1: 12 01     clr0  $01
cdd3: 42 ee     set2  $ee
cdd5: 13 7a 21  bbc0  $7a,$cdf8
cdd8: 00        nop
cdd9: 11        tcall 1
cdda: 1f ee cc  jmp   ($ccee+x)
cddd: 14 32     or    a,$32+x
cddf: 9a 00     subw  ya,$00
cde1: 0f        brk
cde2: ef        sleep
cde3: ee        pop   y
cde4: f2 32     clr7  $32
cde6: 0f        brk
cde7: dc        dec   y
cde8: 9a e3     subw  ya,$e3
cdea: 53 00 ff  bbc2  $00,$cdeb
cded: f1        tcall 15
cdee: 01        tcall 0
cdef: 00        nop
cdf0: 01        tcall 0
cdf1: 7a ee     addw  ya,$ee
cdf3: 14 21     or    a,$21+x
cdf5: 00        nop
cdf6: 11        tcall 1
cdf7: 1f dc ce  jmp   ($cedc+x)
cdfa: 8a 22 10  eor1  c,$0204,2
cdfd: 00        nop
cdfe: fe ed     dbnz  y,$cded
ce00: cc 04 62  mov   $6204,y
ce03: 9a 0e     subw  ya,$0e
ce05: dc        dec   y
ce06: f4 62     mov   a,$62+x
ce08: ff        stop
ce09: 00        nop
ce0a: f0 01     beq   $ce0d
ce0c: 6a e7 2f  and1  c,!($05fc,7)
ce0f: b1        tcall 11
ce10: 44 43     eor   a,$43
ce12: 01        tcall 0
ce13: 32 fd     clr1  $fd
ce15: 8a ee f0  eor1  c,$1e1d,6
ce18: 12 11     clr0  $11
ce1a: 0f        brk
ce1b: ef        sleep
ce1c: ec bd 9a  mov   y,$9abd
ce1f: 12 31     clr0  $31
ce21: fe dd     dbnz  y,$ce00
ce23: f5 51 f0  mov   a,$f051+x
ce26: ff        stop
ce27: 6a 37 4f  and1  c,!($09e6,7)
ce2a: 26        and   a,(x)
ce2b: 2a a2 44  or1   c,!($0894,2)
ce2e: 54 12     eor   a,$12+x
ce30: 7a 11     addw  ya,$11
ce32: fe cc     dbnz  y,$ce00
ce34: d1        tcall 13
ce35: 44 10     eor   a,$10
ce37: 0f        brk
ce38: dc        dec   y
ce39: 9a fe     subw  ya,$fe
ce3b: df        daa   a
ce3c: 23 10 0f  bbs1  $10,$ce4d
ce3f: cc 16 40  mov   $4016,y
ce42: 6a af d9  and1  c,!($1b35,7)
ce45: f3 52 46  bbc7  $52,$ce8d
ce48: 09 c2 33  or    ($33),($c2)
ce4b: 7a 23     addw  ya,$23
ce4d: 10 11     bpl   $ce60
ce4f: 0e ca e4  tset1 $e4ca
ce52: 42 00     set2  $00
ce54: 9a 00     subw  ya,$00
ce56: ff        stop
ce57: ee        pop   y
ce58: e0        clrv
ce59: 23 10 fe  bbs1  $10,$ce59
ce5c: ce        pop   x
ce5d: 9a 25     subw  ya,$25
ce5f: 30 00     bmi   $ce61
ce61: ff        stop
ce62: 01        tcall 0
ce63: 00        nop
ce64: 11        tcall 1
ce65: 0f        brk
ce66: 7a ef     addw  ya,$ef
ce68: 12 43     clr0  $43
ce6a: 10 10     bpl   $ce7c
ce6c: fe bb     dbnz  y,$ce29
ce6e: f5 8a 30  mov   a,$308a+x
ce71: f0 1f     beq   $ce92
ce73: de dc c1  cbne  $dc+x,$ce36
ce76: 56 2e 9a  eor   a,$9a2e+y
ce79: fe cd     dbnz  y,$ce48
ce7b: 35 30 00  and   a,$0030+x
ce7e: ff        stop
ce7f: 01        tcall 0
ce80: 10 6a     bpl   $ceec
ce82: 01        tcall 0
ce83: 1b d0     asl   $d0+x
ce85: 25 75 21  and   a,$2175
ce88: 1f da 8a  jmp   ($8ada+x)
ce8b: ee        pop   y
ce8c: 12 20     clr0  $20
ce8e: 00        nop
ce8f: 0e de cc  tset1 $ccde
ce92: e4 9a     mov   a,$9a
ce94: 32 0f     clr1  $0f
ce96: fd        mov   y,a
ce97: ce        pop   x
ce98: 46        eor   a,(x)
ce99: 2f 00     bra   $ce9b
ce9b: ff        stop
ce9c: 7a 25     addw  ya,$25
ce9e: 20        clrp
ce9f: 11        tcall 1
cea0: ee        pop   y
cea1: e1        tcall 14
cea2: 23 32 10  bbs1  $32,$ceb4
cea5: 7a 0f     addw  ya,$0f
cea7: ec cf 44  mov   y,$44cf
ceaa: 20        clrp
ceab: f0 fb     beq   $cea8
cead: bb 9a     inc   $9a+x
ceaf: ee        pop   y
ceb0: 03 31 ff  bbs0  $31,$ceb1
ceb3: fe ce     dbnz  y,$ce83
ceb5: 45 20 7a  eor   a,$7a20
ceb8: 0e df 03  tset1 $03df
cebb: 11        tcall 1
cebc: 11        tcall 1
cebd: ee        pop   y
cebe: f1        tcall 15
cebf: 24 7a     and   a,$7a
cec1: 31        tcall 3
cec2: f1        tcall 15
cec3: 1e cc d1  cmp   x,$d1cc
cec6: 44 10     eor   a,$10
cec8: 01        tcall 0
cec9: 9a ff     subw  ya,$ff
cecb: fe ef     dbnz  y,$cebc
cecd: 12 31     clr0  $31
cecf: fe fe     dbnz  y,$cecf
ced1: cf        mul   ya
ced2: 9a 46     subw  ya,$46
ced4: 2f ff     bra   $ced5
ced6: 00        nop
ced7: 10 00     bpl   $ced9
ced9: 10 ff     bpl   $ceda
cedb: 7a 23     addw  ya,$23
cedd: 23 40 e0  bbs1  $40,$cebf
cee0: 1d        dec   x
cee1: bc        inc   a
cee2: 03 43 8a  bbs0  $43,$ce6e
cee5: 0f        brk
cee6: 01        tcall 0
cee7: fd        mov   y,a
cee8: dc        dec   y
cee9: cf        mul   ya
ceea: 45 41 ed  eor   a,$ed41
ceed: 9a ed     subw  ya,$ed
ceef: d1        tcall 13
cef0: 54 10     eor   a,$10+x
cef2: ff        stop
cef3: 00        nop
cef4: 01        tcall 0
cef5: 00        nop
cef6: 7a 12     addw  ya,$12
cef8: de 02 43  cbne  $02+x,$cf3d
cefb: 20        clrp
cefc: f0 0c     beq   $cf0a
cefe: bd        mov   sp,x
ceff: 8a 12 11  eor1  c,$0222,2
cf02: 00        nop
cf03: 00        nop
cf04: ed        notc
cf05: dc        dec   y
cf06: d0 56     bne   $cf5e
cf08: 9a 10     subw  ya,$10
cf0a: fe dd     dbnz  y,$cee9
cf0c: e3 63 0f  bbs7  $63,$cf1d
cf0f: ff        stop
cf10: 00        nop
cf11: 7a 43     addw  ya,$43
cf13: 00        nop
cf14: 1f d0 12  jmp   ($12d0+x)
cf17: 34 1f     and   a,$1f+x
cf19: 0f        brk
cf1a: 8a fe e0  eor1  c,$1c1f,6
cf1d: 21        tcall 2
cf1e: 10 00     bpl   $cf20
cf20: 1f ed cc  jmp   ($cced+x)
cf23: 9a f1     subw  ya,$f1
cf25: 23 1f ef  bbs1  $1f,$cf16
cf28: ec f4 62  mov   y,$62f4
cf2b: ff        stop
cf2c: 7a df     addw  ya,$df
cf2e: f2 31     clr7  $31
cf30: 01        tcall 0
cf31: 1d        dec   x
cf32: f1        tcall 15
cf33: 12 33     clr0  $33
cf35: 7a 00     addw  ya,$00
cf37: 0f        brk
cf38: cb e2     mov   $e2,y
cf3a: 43 10 01  bbs2  $10,$cf3d
cf3d: fd        mov   y,a
cf3e: 9a ff     subw  ya,$ff
cf40: ed        notc
cf41: f2 42     clr7  $42
cf43: 0e fe dd  tset1 $ddfe
cf46: 25 9a 40  and   a,$409a
cf49: 0f        brk
cf4a: ff        stop
cf4b: 11        tcall 1
cf4c: 1f 00 1f  jmp   ($1f00+x)
cf4f: 00        nop
cf50: 7a 21     addw  ya,$21
cf52: 43 ff ff  bbs2  $ff,$cf53
cf55: bd        mov   sp,x
cf56: 14 21     or    a,$21+x
cf58: 01        tcall 0
cf59: 8a 10 fe  eor1  c,$1fc2,0
cf5c: dd        mov   a,y
cf5d: cd 05     mov   x,#$05
cf5f: 53 fe db  bbc2  $fe,$cf3c
cf62: 9a cf     subw  ya,$cf
cf64: 45 20 0f  eor   a,$0f20
cf67: ff        stop
cf68: 11        tcall 1
cf69: 1f 01 7a  jmp   ($7a01+x)
cf6c: 0b f2     asl   $f2
cf6e: 23 40 f0  bbs1  $40,$cf60
cf71: fd        mov   y,a
cf72: df        daa   a
cf73: 13 8a 11  bbc0  $8a,$cf86
cf76: 00        nop
cf77: 00        nop
cf78: fd        mov   y,a
cf79: dd        mov   a,y
cf7a: dd        mov   a,y
cf7b: 25 51 9a  and   a,$9a51
cf7e: ff        stop
cf7f: ed        notc
cf80: d1        tcall 13
cf81: 54 1f     eor   a,$1f+x
cf83: 0f        brk
cf84: 0f        brk
cf85: 10 7a     bpl   $d001
cf87: 31        tcall 3
cf88: 3f cf 02  call  $02cf
cf8b: 24 20     and   a,$20
cf8d: ff        stop
cf8e: ee        pop   y
cf8f: 8a f0 11  eor1  c,$023e,0
cf92: 10 00     bpl   $cf94
cf94: 1f ed ec  jmp   ($eced+x)
cf97: cf        mul   ya
cf98: 9a 23     subw  ya,$23
cf9a: 20        clrp
cf9b: fe ec     dbnz  y,$cf89
cf9d: e3 63 ff  bbs7  $63,$cf9e
cfa0: 00        nop
cfa1: 7a ff     addw  ya,$ff
cfa3: 21        tcall 2
cfa4: 21        tcall 2
cfa5: 1e ef 11  cmp   x,$11ef
cfa8: 34 1e     and   a,$1e+x
cfaa: 8a 00 ef  eor1  c,$1de0,0
cfad: 02 01     set0  $01
cfaf: 01        tcall 0
cfb0: f0 00     beq   $cfb2
cfb2: dc        dec   y
cfb3: 9a ff     subw  ya,$ff
cfb5: e0        clrv
cfb6: 33 1f fe  bbc1  $1f,$cfb6
cfb9: dc        dec   y
cfba: 05 51 6a  or    a,$6a51
cfbd: ef        sleep
cfbe: ca e0 54  mov1  $0a9c,0,c
cfc1: 12 1b     clr0  $1b
cfc3: cf        mul   ya
cfc4: 35 7a 42  and   a,$427a+x
cfc7: fe 0f     dbnz  y,$cfd8
cfc9: ef        sleep
cfca: 32 00     clr1  $00
cfcc: 10 f0     bpl   $cfbe
cfce: 9a 00     subw  ya,$00
cfd0: ee        pop   y
cfd1: ff        stop
cfd2: f1        tcall 15
cfd3: 32 0f     clr1  $0f
cfd5: fe cd     dbnz  y,$cfa4
cfd7: 9a 26     subw  ya,$26
cfd9: 40        setp
cfda: f0 0f     beq   $cfeb
cfdc: 00        nop
cfdd: 10 00     bpl   $cfdf
cfdf: 00        nop
cfe0: 7a d0     addw  ya,$d0
cfe2: 14 41     or    a,$41+x
cfe4: ee        pop   y
cfe5: 00        nop
cfe6: e0        clrv
cfe7: 32 f0     clr1  $f0
cfe9: 8a 00 00  eor1  c,$0000,0
cfec: 0e dd dc  tset1 $dcdd
cfef: 05 62 0e  or    a,$0e62
cff2: 9a ed     subw  ya,$ed
cff4: cf        mul   ya
cff5: 56 1f 00  eor   a,$001f+y
cff8: f0 00     beq   $cffa
cffa: 01        tcall 0
cffb: 7a 2f     addw  ya,$2f
cffd: df        daa   a
cffe: 01        tcall 0
cfff: 24 20     and   a,$20
d001: de 00 02  cbne  $00+x,$d005
d004: 8a 10 00  eor1  c,$0002,0
d007: 0f        brk
d008: 00        nop
d009: 0e dc ce  tset1 $cedc
d00c: 36 9a 21  and   a,$219a+y
d00f: fe ed     dbnz  y,$cffe
d011: d1        tcall 13
d012: 64 0f     cmp   a,$0f
d014: 00        nop
d015: f0 6a     beq   $d081
d017: 23 13 20  bbs1  $13,$d039
d01a: bd        mov   sp,x
d01b: 34 45     and   a,$45+x
d01d: 3e bc     cmp   x,$bc
d01f: 8a 00 11  eor1  c,$0220,0
d022: 1f 00 0f  jmp   ($0f00+x)
d025: 01        tcall 0
d026: fd        mov   y,a
d027: cd 9a     mov   x,#$9a
d029: e0        clrv
d02a: 23 20 ee  bbs1  $20,$d01a
d02d: ed        notc
d02e: e3 53 00  bbs7  $53,$d030
d031: 6a aa a0  and1  c,!($1415,2)
d034: 36 21 2e  and   a,$2e21+y
d037: af        mov   (x)+,a
d038: 55 44 6a  eor   a,$6a44+x
d03b: 0c be 14  asl   $14be
d03e: 43 0e 0e  bbs2  $0e,$d04e
d041: f1        tcall 15
d042: 3e 9a     cmp   x,$9a
d044: fe fe     dbnz  y,$d044
d046: f0 32     beq   $d07a
d048: 10 fd     bpl   $d047
d04a: ce        pop   x
d04b: 15 9a 41  or    a,$419a+x
d04e: f0 0f     beq   $d05f
d050: f0 11     beq   $d063
d052: 00        nop
d053: 00        nop
d054: f0 6a     beq   $d0c0
d056: 76 33 fb  cmp   a,$fb33+y
d059: a0        ei
d05a: 65 2f e1  cmp   a,$e12f
d05d: 1c        asl   a
d05e: 8a 01 0f  eor1  c,$01e0,1
d061: dd        mov   a,y
d062: dd        mov   a,y
d063: d3 65 0e  bbc6  $65,$d073
d066: cb 9a     mov   $9a,y
d068: de 35 30  cbne  $35+x,$d09a
d06b: 0f        brk
d06c: f0 00     beq   $d06e
d06e: 01        tcall 0
d06f: 00        nop
d070: 6a ff f3  and1  c,!($1e7f,7)
d073: 43 41 ca  bbs2  $41,$d03f
d076: e5 73 0d  mov   a,$0d73
d079: 8a f1 0f  eor1  c,$01fe,1
d07c: 01        tcall 0
d07d: 0e dd dc  tset1 $dcdd
d080: 05 62 9a  or    a,$9a62
d083: 0e ed d0  tset1 $d0ed
d086: 55 1f 00  eor   a,$001f+x
d089: ff        stop
d08a: 01        tcall 0
d08b: 7a 10     addw  ya,$10
d08d: 02 fe     set0  $fe
d08f: 13 21 1f  bbc0  $21,$d0b0
d092: de 24 8a  cbne  $24+x,$d01e
d095: 10 0f     bpl   $d0a6
d097: 00        nop
d098: f0 11     beq   $d0ab
d09a: fd        mov   y,a
d09b: dd        mov   a,y
d09c: cd 9a     mov   x,#$9a
d09e: 13 31 ee  bbc0  $31,$d08e
d0a1: ed        notc
d0a2: d3 63 0f  bbc6  $63,$d0b3
d0a5: 0f        brk
d0a6: 6a cc 61  and1  c,!($0c39,4)
d0a9: 32 3e     clr1  $3e
d0ab: c0        di
d0ac: 53 34 0a  bbc2  $34,$d0b8
d0af: 7a d1     addw  ya,$d1
d0b1: 43 00 0f  bbs2  $00,$d0c2
d0b4: 0f        brk
d0b5: e1        tcall 14
d0b6: 20        clrp
d0b7: da 9a     movw  $9a,ya
d0b9: fe ef     dbnz  y,$d0aa
d0bb: 33 1f ff  bbc1  $1f,$d0bc
d0be: dc        dec   y
d0bf: 05 51 6a  or    a,$6a51
d0c2: cc db b0  mov   $b0db,y
d0c5: 33 23 1c  bbc1  $23,$d0e3
d0c8: d4 52     mov   $52+x,a
d0ca: 7a 11     addw  ya,$11
d0cc: fd        mov   y,a
d0cd: e3 52 00  bbs7  $52,$d0cf
d0d0: ee        pop   y
d0d1: 0f        brk
d0d2: 01        tcall 0
d0d3: 8a 1f ed  eor1  c,$1da3,7
d0d6: ec d0 55  mov   y,$55d0
d0d9: 3e cb     cmp   x,$cb
d0db: ac 9a 35  inc   $359a
d0de: 20        clrp
d0df: 00        nop
d0e0: 0f        brk
d0e1: f0 10     beq   $d0f3
d0e3: 10 0f     bpl   $d0f4
d0e5: 7a 11     addw  ya,$11
d0e7: 21        tcall 2
d0e8: 20        clrp
d0e9: dd        mov   a,y
d0ea: 25 40 ff  and   a,$ff40
d0ed: f0 8a     beq   $d079
d0ef: ff        stop
d0f0: 02 0f     set0  $0f
d0f2: dd        mov   a,y
d0f3: dd        mov   a,y
d0f4: e2 64     set7  $64
d0f6: 0d        push  psw
d0f7: 9a ed     subw  ya,$ed
d0f9: d0 54     bne   $d14f
d0fb: 2f 0f     bra   $d10c
d0fd: 0f        brk
d0fe: 00        nop
d0ff: 10 7a     bpl   $d17b
d101: 10 0e     bpl   $d111
d103: 12 21     clr0  $21
d105: 0e e0 45  tset1 $45e0
d108: 1f 8a 0f  jmp   ($0f8a+x)
d10b: 00        nop
d10c: ff        stop
d10d: 11        tcall 1
d10e: fe ed     dbnz  y,$d0fd
d110: cd 14     mov   x,#$14
d112: 9a 31     subw  ya,$31
d114: fe ed     dbnz  y,$d103
d116: e2 53     set7  $53
d118: 1f 0f 0f  jmp   ($0f0f+x)
d11b: 6a 21 53  and1  c,!($0a64,1)
d11e: 3f b0 53  call  $53b0
d121: 12 0a     clr0  $0a
d123: d6 7a 63  mov   $637a+y,a
d126: ff        stop
d127: fe 00     dbnz  y,$d129
d129: e0        clrv
d12a: 11        tcall 1
d12b: ec aa 9a  mov   y,$9aaa
d12e: ef        sleep
d12f: 13 20 fe  bbc0  $20,$d12f
d132: dd        mov   a,y
d133: 04 51     or    a,$51
d135: 0f        brk
d136: 6a 29 dc  and1  c,!($1b85,1)
d139: 32 24     clr1  $24
d13b: 3d        inc   x
d13c: c3 41 12  bbs6  $41,$d150
d13f: 7a ee     addw  ya,$ee
d141: 25 40 ff  and   a,$ff40
d144: ff        stop
d145: 0e f1 20  tset1 $20f1
d148: 9a ff     subw  ya,$ff
d14a: fe e0     dbnz  y,$d12c
d14c: 22 10     set1  $10
d14e: fe ce     dbnz  y,$d11e
d150: 26        and   a,(x)
d151: 8a 51 e0  eor1  c,$1c0a,1
d154: ff        stop
d155: e0        clrv
d156: 11        tcall 1
d157: 11        tcall 1
d158: 0f        brk
d159: f1        tcall 15
d15a: 7a 21     addw  ya,$21
d15c: 0f        brk
d15d: e1        tcall 14
d15e: 55 1e f0  eor   a,$f01e+x
d161: e0        clrv
d162: 0e 8a 01  tset1 $018a
d165: 0f        brk
d166: ee        pop   y
d167: dc        dec   y
d168: e2 43     set7  $43
d16a: 1f da 9a  jmp   ($9ada+x)
d16d: d0 44     bne   $d1b3
d16f: 20        clrp
d170: ff        stop
d171: 00        nop
d172: 0f        brk
d173: 01        tcall 0
d174: 10 7a     bpl   $d1f0
d176: ef        sleep
d177: 12 00     clr0  $00
d179: 0f        brk
d17a: 03 53 fe  bbs0  $53,$d17a
d17d: 0f        brk
d17e: 8a f0 00  eor1  c,$001e,0
d181: 00        nop
d182: 0f        brk
d183: de dd f3  cbne  $dd+x,$d178
d186: 42 9a     set2  $9a
d188: 0f        brk
d189: ec e3 52  mov   y,$52e3
d18c: 00        nop
d18d: 00        nop
d18e: ff        stop
d18f: 01        tcall 0
d190: 7a 00     addw  ya,$00
d192: 21        tcall 2
d193: ef        sleep
d194: 21        tcall 2
d195: 00        nop
d196: 0f        brk
d197: 25 40 7a  and   a,$7a40
d19a: e0        clrv
d19b: ff        stop
d19c: f0 e0     beq   $d17e
d19e: 12 fb     clr0  $fb
d1a0: bb ab     inc   $ab+x
d1a2: 9a 02     subw  ya,$02
d1a4: 21        tcall 2
d1a5: fe dd     dbnz  y,$d184
d1a7: 05 41 00  or    a,$0041
d1aa: ff        stop
d1ab: 6a d0 21  and1  c,!($043a,0)
d1ae: 24 3e     and   a,$3e
d1b0: d1        tcall 13
d1b1: 40        setp
d1b2: f0 01     beq   $d1b5
d1b4: 7a 45     addw  ya,$45
d1b6: 2f e0     bra   $d198
d1b8: ef        sleep
d1b9: 00        nop
d1ba: f0 10     beq   $d1cc
d1bc: dc        dec   y
d1bd: 9a ff     subw  ya,$ff
d1bf: ef        sleep
d1c0: 13 10 ee  bbc0  $10,$d1b0
d1c3: de 25 30  cbne  $25+x,$d1f5
d1c6: 7a 00     addw  ya,$00
d1c8: ec ef 11  mov   y,$11ef
d1cb: 22 1e     set1  $1e
d1cd: f1        tcall 15
d1ce: 1f 7a 01  jmp   ($017a+x)
d1d1: 12 54     clr0  $54
d1d3: fd        mov   y,a
d1d4: 00        nop
d1d5: e0        clrv
d1d6: 0e 01 8a  tset1 $8a01
d1d9: 1f ed ed  jmp   ($eded+x)
d1dc: e0        clrv
d1dd: 34 2e     and   a,$2e+x
d1df: cb a0     mov   $a0,y
d1e1: 9a 44     subw  ya,$44
d1e3: 20        clrp
d1e4: ff        stop
d1e5: 00        nop
d1e6: f0 01     beq   $d1e9
d1e8: 01        tcall 0
d1e9: 0f        brk
d1ea: 7a f2     addw  ya,$f2
d1ec: 1f 11 14  jmp   ($1411+x)
d1ef: 42 ee     set2  $ee
d1f1: 0f        brk
d1f2: f1        tcall 15
d1f3: 8a ff 01  eor1  c,$003f,7
d1f6: 1f dd ee  jmp   ($eedd+x)
d1f9: e1        tcall 14
d1fa: 33 0e 9a  bbc1  $0e,$d196
d1fd: ed        notc
d1fe: e2 53     set7  $53
d200: 00        nop
d201: 0f        brk
d202: f0 00     beq   $d204
d204: 00        nop
d205: 7a 23     addw  ya,$23
d207: 0e 01 0f  tset1 $0f01
d20a: 13 43 20  bbc0  $43,$d22c
d20d: ef        sleep
d20e: 7a f0     addw  ya,$f0
d210: 0f        brk
d211: e0        clrv
d212: 10 fd     bpl   $d211
d214: cc bb e5  mov   $e5bb,y
d217: 9a 20     subw  ya,$20
d219: ff        stop
d21a: ed        notc
d21b: 04 41     or    a,$41
d21d: 00        nop
d21e: 0f        brk
d21f: f0 7a     beq   $d29b
d221: 0f        brk
d222: 04 30     or    a,$30
d224: d0 10     bne   $d236
d226: f1        tcall 15
d227: 33 33 7a  bbc1  $33,$d2a3
d22a: 1e e0 0f  cmp   x,$0fe0
d22d: 0f        brk
d22e: f0 00     beq   $d230
d230: ec dc 9a  mov   y,$9adc
d233: ef        sleep
d234: 12 10     clr0  $10
d236: fe de     dbnz  y,$d216
d238: 25 30 00  and   a,$0030
d23b: 7a db     addw  ya,$db
d23d: e0        clrv
d23e: 11        tcall 1
d23f: 23 1e e1  bbs1  $1e,$d222
d242: 00        nop
d243: 03 6a 66  bbs0  $6a,$d2ab
d246: 54 fb     eor   a,$fb+x
d248: f0 e0     beq   $d22a
d24a: 0d        push  psw
d24b: e0        clrv
d24c: 1e 9a ff  cmp   x,$ff9a
d24f: 0f        brk
d250: ef        sleep
d251: 12 1f     clr0  $1f
d253: ee        pop   y
d254: e0        clrv
d255: 44 7a     eor   a,$7a
d257: 3e 00     cmp   x,$00
d259: dc        dec   y
d25a: e2 11     set7  $11
d25c: 23 fd f1  bbs1  $fd,$d24f
d25f: 7a 10     addw  ya,$10
d261: 23 32 21  bbs1  $32,$d284
d264: fe 0f     dbnz  y,$d275
d266: 00        nop
d267: ff        stop
d268: 8a 00 0f  eor1  c,$01e0,0
d26b: ee        pop   y
d26c: fd        mov   y,a
d26d: e0        clrv
d26e: 32 0e     clr1  $0e
d270: db 9a     mov   $9a+x,y
d272: e2 43     set7  $43
d274: 10 ff     bpl   $d275
d276: f0 00     beq   $d278
d278: 01        tcall 0
d279: 10 7a     bpl   $d2f5
d27b: de 00 02  cbne  $00+x,$d27f
d27e: 44 21     eor   a,$21
d280: 10 ef     bpl   $d271
d282: 00        nop
d283: 7a 00     addw  ya,$00
d285: ff        stop
d286: 00        nop
d287: fd        mov   y,a
d288: dd        mov   a,y
d289: cb d2     mov   $d2,y
d28b: 63 9a fe  bbs3  $9a,$d28b
d28e: ef        sleep
d28f: 03 32 00  bbs0  $32,$d291
d292: f0 f0     beq   $d284
d294: 00        nop
d295: 7a f3     addw  ya,$f3
d297: 4f df     pcall $df
d299: 10 04     bpl   $d29f
d29b: 52 12     clr2  $12
d29d: 1e 7a e0  cmp   x,$e07a
d2a0: 00        nop
d2a1: 0f        brk
d2a2: f0 00     beq   $d2a4
d2a4: ec de cb  mov   y,$cbde
d2a7: 9a 01     subw  ya,$01
d2a9: 10 fd     bpl   $d2a8
d2ab: ef        sleep
d2ac: 24 31     and   a,$31
d2ae: 0f        brk
d2af: f0 7a     beq   $d32b
d2b1: ed        notc
d2b2: 02 23     set0  $23
d2b4: 1e d0 11  cmp   x,$11d0
d2b7: 25 31 6a  and   a,$6a31
d2ba: 15 0c d1  or    a,$d10c+x
d2bd: f0 0e     beq   $d2cd
d2bf: ef        sleep
d2c0: 0f        brk
d2c1: ba 9a     movw  ya,$9a
d2c3: ff        stop
d2c4: f0 01     beq   $d2c7
d2c6: 10 dd     bpl   $d2a5
d2c8: e1        tcall 14
d2c9: 34 20     and   a,$20+x
d2cb: 7a ef     addw  ya,$ef
d2cd: fc        inc   y
d2ce: d0 11     bne   $d2e1
d2d0: 32 fd     clr1  $fd
d2d2: f1        tcall 15
d2d3: 11        tcall 1
d2d4: 7a 45     addw  ya,$45
d2d6: 2f 12     bra   $d2ea
d2d8: fe 01     dbnz  y,$d2db
d2da: f0 0f     beq   $d2eb
d2dc: ef        sleep
d2dd: 8a 00 ff  eor1  c,$1fe0,0
d2e0: ed        notc
d2e1: e0        clrv
d2e2: 12 1e     clr0  $1e
d2e4: ca c4 9a  mov1  $1358,4,c
d2e7: 53 00 00  bbc2  $00,$d2e9
d2ea: ff        stop
d2eb: f0 11     beq   $d2fe
d2ed: 10 ff     bpl   $d2ee
d2ef: 7a 02     addw  ya,$02
d2f1: 14 53     or    a,$53+x
d2f3: 00        nop
d2f4: 11        tcall 1
d2f5: ef        sleep
d2f6: 10 00     bpl   $d2f8
d2f8: 7a fe     addw  ya,$fe
d2fa: f0 0e     beq   $d30a
d2fc: ee        pop   y
d2fd: ca d1 43  mov1  $087a,1,c
d300: fa 9a dd  mov   ($dd),($9a)
d303: 04 52     or    a,$52
d305: ff        stop
d306: 00        nop
d307: f0 00     beq   $d309
d309: 01        tcall 0
d30a: 7a 1f     addw  ya,$1f
d30c: df        daa   a
d30d: 02 35     set0  $35
d30f: 40        setp
d310: f2 2f     clr7  $2f
d312: d0 7a     bne   $d38e
d314: 10 00     bpl   $d316
d316: ef        sleep
d317: 00        nop
d318: ee        pop   y
d319: fd        mov   y,a
d31a: bb e2     inc   $e2+x
d31c: 9a 11     subw  ya,$11
d31e: fd        mov   y,a
d31f: de 25 41  cbne  $25+x,$d362
d322: ff        stop
d323: f0 00     beq   $d325
d325: 7a ef     addw  ya,$ef
d327: 24 1e     and   a,$1e
d329: df        daa   a
d32a: 13 45 20  bbc0  $45,$d34c
d32d: 02 6a     set0  $6a
d32f: 0b e2     asl   $e2
d331: 00        nop
d332: 1e de 0f  cmp   x,$0fde
d335: cb da     mov   $da,y
d337: 9a ff     subw  ya,$ff
d339: 00        nop
d33a: 10 fd     bpl   $d339
d33c: df        daa   a
d33d: 45 20 0f  eor   a,$0f20
d340: 7a de     addw  ya,$de
d342: 0e 01 32  tset1 $3201
d345: fd        mov   y,a
d346: e1        tcall 14
d347: 34 43     and   a,$43+x
d349: 6a 1f 23  and1  c,!($0463,7)
d34c: ed        notc
d34d: 00        nop
d34e: 11        tcall 1
d34f: fc        inc   y
d350: ff        stop
d351: fd        mov   y,a
d352: 9a f0     subw  ya,$f0
d354: 0f        brk
d355: ef        sleep
d356: 11        tcall 1
d357: 1f ec d2  jmp   ($d2ec+x)
d35a: 64 6a     cmp   a,$6a
d35c: 1c        asl   a
d35d: dd        mov   a,y
d35e: bc        inc   a
d35f: df        daa   a
d360: 24 42     and   a,$42
d362: ca e4 7a  mov1  $0f5c,4,c
d365: 45 41 00  eor   a,$0041
d368: 11        tcall 1
d369: ef        sleep
d36a: 11        tcall 1
d36b: 00        nop
d36c: fe 9a     dbnz  y,$d308
d36e: 00        nop
d36f: 0f        brk
d370: f0 0f     beq   $d381
d372: e0        clrv
d373: 11        tcall 1
d374: 0e dc 9a  tset1 $9adc
d377: 04 62     or    a,$62
d379: 0f        brk
d37a: ff        stop
d37b: 00        nop
d37c: 00        nop
d37d: 00        nop
d37e: 10 7a     bpl   $d3fa
d380: dd        mov   a,y
d381: 23 44 31  bbs1  $44,$d3b4
d384: f0 20     beq   $d3a6
d386: ef        sleep
d387: 20        clrp
d388: 6a 2f dd  and1  c,!($1ba5,7)
d38b: 00        nop
d38c: d9 bc     mov   $bc+y,x
d38e: a9 c0 66  sbc   ($66),($c0)
d391: 9a 0e     subw  ya,$0e
d393: cc 16 51  mov   $5116,y
d396: ff        stop
d397: 00        nop
d398: f0 00     beq   $d39a
d39a: 7a f3     addw  ya,$f3
d39c: 2e df 34  cbne  $df,$d3d2
d39f: 54 1f     eor   a,$1f+x
d3a1: 01        tcall 0
d3a2: 1f 7a f0  jmp   ($f07a+x)
d3a5: 11        tcall 1
d3a6: 1f ef 00  jmp   ($00ef+x)
d3a9: ec de de  mov   y,$dede
d3ac: aa 00 00  mov1  c,$0000,0
d3af: 0f        brk
d3b0: ee        pop   y
d3b1: 14 20     or    a,$20+x
d3b3: f0 00     beq   $d3b5
d3b5: 7a be     addw  ya,$be
d3b7: 01        tcall 0
d3b8: 22 0d     set1  $0d
d3ba: e1        tcall 14
d3bb: 44 53     eor   a,$53
d3bd: 0e 6a 14  tset1 $146a
d3c0: 2d        push  a
d3c1: f1        tcall 15
d3c2: 11        tcall 1
d3c3: 1d        dec   x
d3c4: d0 0e     bne   $d3d4
d3c6: a9 9a 0f  sbc   ($0f),($9a)
d3c9: ff        stop
d3ca: 10 10     bpl   $d3dc
d3cc: ed        notc
d3cd: ce        pop   x
d3ce: 47 3f     eor   a,($3f+x)
d3d0: 7a ed     addw  ya,$ed
d3d2: 0e df 01  tset1 $01df
d3d5: 12 fd     clr0  $fd
d3d7: f3 54 7a  bbc7  $54,$d453
d3da: 41        tcall 4
d3db: ff        stop
d3dc: 12 0f     clr0  $0f
d3de: 00        nop
d3df: 02 0e     set0  $0e
d3e1: f0 9a     beq   $d37d
d3e3: 0f        brk
d3e4: f0 0f     beq   $d3f5
d3e6: f0 00     beq   $d3e8
d3e8: 00        nop
d3e9: fd        mov   y,a
d3ea: cf        mul   ya
d3eb: 9a 46     subw  ya,$46
d3ed: 3f f0 0f  call  $0ff0
d3f0: f0 10     beq   $d402
d3f2: 00        nop
d3f3: 0f        brk
d3f4: 7a 04     addw  ya,$04
d3f6: 64 30     cmp   a,$30
d3f8: f0 11     beq   $d40b
d3fa: ff        stop
d3fb: 11        tcall 1
d3fc: 10 7a     bpl   $d478
d3fe: ff        stop
d3ff: ff        stop
d400: 0e df fd  tset1 $fddf
d403: ce        pop   x
d404: 02 1d     set0  $1d
d406: 9a ed     subw  ya,$ed
d408: d1        tcall 13
d409: 45 20 ff  eor   a,$ff20
d40c: f0 00     beq   $d40e
d40e: 00        nop
d40f: 7a 1f     addw  ya,$1f
d411: ff        stop
d412: 34 43     and   a,$43+x
d414: 20        clrp
d415: 00        nop
d416: 10 f0     bpl   $d408
d418: 7a 10     addw  ya,$10
d41a: 10 fe     bpl   $d41a
d41c: 00        nop
d41d: fc        inc   y
d41e: e0        clrv
d41f: fd        mov   y,a
d420: ce        pop   x
d421: 9a 00     subw  ya,$00
d423: 0f        brk
d424: ed        notc
d425: f2 44     clr7  $44
d427: 1f f0 f0  jmp   ($f0f0+x)
d42a: 7a 02     addw  ya,$02
d42c: ef        sleep
d42d: 00        nop
d42e: f1        tcall 15
d42f: 54 33     eor   a,$33+x
d431: 1f f1 6a  jmp   ($6af1+x)
d434: 4f c0     pcall $c0
d436: 22 2e     set1  $2e
d438: de fe cb  cbne  $fe+x,$d405
d43b: 10 9a     bpl   $d3d7
d43d: ff        stop
d43e: 00        nop
d43f: f0 0e     beq   $d44f
d441: de 13 43  cbne  $13+x,$d486
d444: 0f        brk
d445: 7a ce     addw  ya,$ce
d447: f0 00     beq   $d449
d449: ff        stop
d44a: 01        tcall 0
d44b: 02 44     set0  $44
d44d: 32 6a     clr1  $6a
d44f: 0e 03 2e  tset1 $2e03
d452: e0        clrv
d453: 22 1d     set1  $1d
d455: ee        pop   y
d456: ec 8a ff  mov   y,$ff8a
d459: 10 ee     bpl   $d449
d45b: ff        stop
d45c: 00        nop
d45d: eb be     mov   y,$be
d45f: 36 9a 43  and   a,$439a+y
d462: ff        stop
d463: f0 f0     beq   $d455
d465: 01        tcall 0
d466: 0f        brk
d467: f1        tcall 15
d468: 10 7a     bpl   $d4e4
d46a: 26        and   a,(x)
d46b: 5f f0 11  jmp   $11f0
d46e: 0e 01 11  tset1 $1101
d471: 0e 8a 00  tset1 $008a
d474: fe f0     dbnz  y,$d466
d476: 0f        brk
d477: ff        stop
d478: f0 0e     beq   $d488
d47a: cb 9a     mov   $9a,y
d47c: e0        clrv
d47d: 24 41     and   a,$41
d47f: ff        stop
d480: 0f        brk
d481: 00        nop
d482: 0f        brk
d483: 01        tcall 0
d484: 7a 1f     addw  ya,$1f
d486: 04 44     or    a,$44
d488: 20        clrp
d489: 00        nop
d48a: 01        tcall 0
d48b: 0f        brk
d48c: 00        nop
d48d: 7a 12     addw  ya,$12
d48f: ff        stop
d490: f0 dd     beq   $d46f
d492: d1        tcall 13
d493: 1e ce 00  cmp   x,$00ce
d496: 9a ff     subw  ya,$ff
d498: ee        pop   y
d499: d1        tcall 13
d49a: 35 30 ff  and   a,$ff30+x
d49d: 00        nop
d49e: ff        stop
d49f: 6a 24 f1  and1  c,!($1e24,4)
d4a2: 31        tcall 3
d4a3: 46        eor   a,(x)
d4a4: 66        cmp   a,(x)
d4a5: 41        tcall 4
d4a6: f1        tcall 15
d4a7: 11        tcall 1
d4a8: 7a f0     addw  ya,$f0
d4aa: 00        nop
d4ab: 12 ff     clr0  $ff
d4ad: 0f        brk
d4ae: cc f1 fe  mov   $fef1,y
d4b1: 9a f0     subw  ya,$f0
d4b3: 00        nop
d4b4: ff        stop
d4b5: ed        notc
d4b6: e1        tcall 14
d4b7: 45 2f 00  eor   a,$002f
d4ba: 7a bd     addw  ya,$bd
d4bc: f0 f0     beq   $d4ae
d4be: 02 21     set0  $21
d4c0: 13 43 10  bbc0  $43,$d4d2
d4c3: 7a 00     addw  ya,$00
d4c5: 00        nop
d4c6: 10 00     bpl   $d4c8
d4c8: 20        clrp
d4c9: f0 0e     beq   $d4d9
d4cb: bc        inc   a
d4cc: 9a 00     subw  ya,$00
d4ce: 00        nop
d4cf: ff        stop
d4d0: 00        nop
d4d1: 0e dd 12  tset1 $12dd
d4d4: 24 8a     and   a,$8a
d4d6: 5f ef ff  jmp   $ffef
d4d9: 0f        brk
d4da: f0 12     beq   $d4ee
d4dc: 10 01     bpl   $d4df
d4de: 7a 43     addw  ya,$43
d4e0: 10 00     bpl   $d4e2
d4e2: 00        nop
d4e3: 11        tcall 1
d4e4: f0 11     beq   $d4f7
d4e6: 00        nop
d4e7: 8a ff ee  eor1  c,$1ddf,7
d4ea: 01        tcall 0
d4eb: fe 0f     dbnz  y,$d4fc
d4ed: f0 fc     beq   $d4eb
d4ef: ae        pop   a
d4f0: 8a 32 27  eor1  c,$04e6,2
d4f3: 6f        ret
d4f4: ff        stop
d4f5: ef        sleep
d4f6: 0f        brk
d4f7: 00        nop
d4f8: 11        tcall 1
d4f9: 6a 72 14  and1  c,!($028e,2)
d4fc: 63 22 0f  bbs3  $22,$d50d
d4ff: 01        tcall 0
d500: 10 02     bpl   $d504
d502: 7a 1f     addw  ya,$1f
d504: 00        nop
d505: fb c0     mov   y,$c0+x
d507: 10 ee     bpl   $d4f7
d509: de fe 8a  cbne  $fe+x,$d495
d50c: ec c1 40  mov   y,$40c1
d50f: f6 70 ef  mov   a,$ef70+y
d512: ff        stop
d513: f0 6a     beq   $d57f
d515: 23 14 53  bbs1  $14,$d56a
d518: 14 52     or    a,$52+x
d51a: 11        tcall 1
d51b: 11        tcall 1
d51c: 00        nop
d51d: 7a 00     addw  ya,$00
d51f: 02 1f     set0  $1f
d521: 0f        brk
d522: db e2     mov   $e2+x,y
d524: 1e ef 8b  cmp   x,$8bef
d527: ee        pop   y
d528: f0 dc     beq   $d506
d52a: f4 3d     mov   a,$3d+x
d52c: e7 70     mov   a,($70+x)
d52e: df        daa   a
d52f: 02 00     set0  $00
d531: 00        nop
d532: 00        nop
d533: 00        nop
d534: 00        nop
d535: 00        nop
d536: 00        nop
d537: 00        nop
d538: 5a 24     cmpw  ya,$24
d53a: 10 01     bpl   $d53d
d53c: 24 45     and   a,$45
d53e: 45 54 43  eor   a,$4354
d541: 8a 00 11  eor1  c,$0220,0
d544: 00        nop
d545: 11        tcall 1
d546: 11        tcall 1
d547: 22 23     set1  $23
d549: 46        eor   a,(x)
d54a: 8a 55 1f  eor1  c,$03ea,5
d54d: bb e2     inc   $e2+x
d54f: 21        tcall 2
d550: 22 10     set1  $10
d552: 10 7a     bpl   $d5ce
d554: 10 0e     bpl   $d564
d556: fe ed     dbnz  y,$d545
d558: ef        sleep
d559: ee        pop   y
d55a: dd        mov   a,y
d55b: bc        inc   a
d55c: 7a ce     addw  ya,$ce
d55e: ff        stop
d55f: ed        notc
d560: dd        mov   a,y
d561: ed        notc
d562: ed        notc
d563: ee        pop   y
d564: ee        pop   y
d565: 6a cc de  and1  c,!($1bd9,4)
d568: fe ff     dbnz  y,$d569
d56a: ed        notc
d56b: ef        sleep
d56c: f0 00     beq   $d56e
d56e: 5a f6     cmpw  ya,$f6
d570: 0f        brk
d571: ef        sleep
d572: ef        sleep
d573: 12 10     clr0  $10
d575: 00        nop
d576: 11        tcall 1
d577: 5a 23     cmpw  ya,$23
d579: 10 11     bpl   $d58c
d57b: 24 45     and   a,$45
d57d: 45 45 43  eor   a,$4345
d580: 8b 00     dec   $00
d582: 11        tcall 1
d583: 00        nop
d584: 11        tcall 1
d585: 11        tcall 1
d586: 22 23     set1  $23
d588: 46        eor   a,(x)
d589: 02 00     set0  $00
d58b: 00        nop
d58c: 00        nop
d58d: 00        nop
d58e: 00        nop
d58f: 00        nop
d590: 00        nop
d591: 00        nop
d592: ba 0c     movw  ya,$0c
d594: 05 2c b2  or    a,$b22c
d597: 40        setp
d598: a2 54     set5  $54
d59a: ba b6     movw  ya,$b6
d59c: f1        tcall 15
d59d: 3e 00     cmp   x,$00
d59f: 1d        dec   x
d5a0: d0 1f     bne   $d5c1
d5a2: e0        clrv
d5a3: 43 a6 df  bbs2  $a6,$d584
d5a6: e5 cc e1  mov   a,$e1cc
d5a9: 4f 12     pcall $12
d5ab: 1d        dec   x
d5ac: ab b6     inc   $b6
d5ae: 00        nop
d5af: e1        tcall 14
d5b0: 44 ee     eor   a,$ee
d5b2: 03 f0 f2  bbs0  $f0,$d5a6
d5b5: fb b6     mov   y,$b6+x
d5b7: ff        stop
d5b8: 2f 03     bra   $d5bd
d5ba: 20        clrp
d5bb: cf        mul   ya
d5bc: 13 0f 22  bbc0  $0f,$d5e0
d5bf: b2 30     clr5  $30
d5c1: d0 0f     bne   $d5d2
d5c3: ff        stop
d5c4: 1c        asl   a
d5c5: bb f0     inc   $f0+x
d5c7: f0 a6     beq   $d56f
d5c9: 25 cd 12  and   a,$12cd
d5cc: fb e1     mov   y,$e1+x
d5ce: 3d        inc   x
d5cf: f3 4b aa  bbc7  $4b,$d57b
d5d2: 04 60     or    a,$60
d5d4: 92 2d     clr4  $2d
d5d6: a1        tcall 10
d5d7: 45 fe 11  eor   a,$11fe
d5da: ba ce     movw  ya,$ce
d5dc: 35 1d e0  and   a,$e01d+x
d5df: 0e f2 30  tset1 $30f2
d5e2: d1        tcall 13
d5e3: ba 01     movw  ya,$01
d5e5: df        daa   a
d5e6: 24 fc     and   a,$fc
d5e8: f2 2d     clr7  $2d
d5ea: 04 4a     or    a,$4a
d5ec: 96 ba cd  adc   a,$cdba+y
d5ef: e1        tcall 14
d5f0: 41        tcall 4
d5f1: 06        or    a,(x)
d5f2: 53 12 4f  bbc2  $12,$d643
d5f5: 9a 21     subw  ya,$21
d5f7: 0c 14 33  asl   $3314
d5fa: ff        stop
d5fb: d1        tcall 13
d5fc: e6        mov   a,(x)
d5fd: 5a 9a     cmpw  ya,$9a
d5ff: 2d        push  a
d600: 22 f1     set1  $f1
d602: 22 e2     set1  $e2
d604: ff        stop
d605: d4 4d     mov   $4d+x,a
d607: aa 2e 12  mov1  c,$0245,6
d60a: 03 e1 0e  bbs0  $e1,$d61a
d60d: dd        mov   a,y
d60e: 34 21     and   a,$21+x
d610: aa 1d 03  mov1  c,$0063,5
d613: fe 02     dbnz  y,$d617
d615: 01        tcall 0
d616: 0c 33 31  asl   $3133
d619: ba dd     movw  ya,$dd
d61b: 22 10     set1  $10
d61d: c0        di
d61e: 51        tcall 5
d61f: 2c b2 43  rol   $43b2
d622: ba 0d     movw  ya,$0d
d624: e0        clrv
d625: 12 1c     clr0  $1c
d627: f4 10     mov   a,$10+x
d629: ee        pop   y
d62a: 24 ba     and   a,$ba
d62c: 02 bf     set0  $bf
d62e: 10 10     bpl   $d640
d630: f0 32     beq   $d664
d632: de f3 ba  cbne  $f3+x,$d5ee
d635: 20        clrp
d636: 1d        dec   x
d637: b5 22 0c  sbc   a,$0c22+x
d63a: 02 e4     set0  $e4
d63c: de ba 22  cbne  $ba+x,$d660
d63f: 11        tcall 1
d640: b0 32     bcs   $d674
d642: 2d        push  a
d643: d1        tcall 13
d644: e2 5e     set7  $5e
d646: b6 fe 04  sbc   a,$04fe+y
d649: fa 1f 44  mov   ($44),($1f)
d64c: 21        tcall 2
d64d: a2 20     set5  $20
d64f: b6 3c 20  sbc   a,$203c+y
d652: e4 b0     mov   a,$b0
d654: 2f 40     bra   $d696
d656: fd        mov   y,a
d657: c5 b6 31  mov   $31b6,a
d65a: 2e 2c 21  cbne  $2c,$d67d
d65d: c2 e2     set6  $e2
d65f: 1c        asl   a
d660: 2e b6 37  cbne  $b6,$d699
d663: ef        sleep
d664: e0        clrv
d665: 21        tcall 2
d666: 3e d1     cmp   x,$d1
d668: 10 df     bpl   $d649
d66a: b6 3f 41  sbc   a,$413f+y
d66d: cf        mul   ya
d66e: 24 3e     and   a,$3e
d670: 1e f3 00  cmp   x,$00f3
d673: b6 c0 20  sbc   a,$20c0+y
d676: 2e f1 24  cbne  $f1,$d69c
d679: e0        clrv
d67a: 3d        inc   x
d67b: 32 b6     clr1  $b6
d67d: ff        stop
d67e: b4 1c     sbc   a,$1c+x
d680: 1e 32 22  cmp   x,$2232
d683: b1        tcall 11
d684: 12 b6     clr0  $b6
d686: 2d        push  a
d687: 01        tcall 0
d688: 02 ee     set0  $ee
d68a: 00        nop
d68b: 40        setp
d68c: fd        mov   y,a
d68d: e4 b6     mov   a,$b6
d68f: 43 df 31  bbs2  $df,$d6c2
d692: 2e df f6  cbne  $df,$d68a
d695: 0b fe     asl   $fe
d697: b6 14 11  sbc   a,$1114+y
d69a: 01        tcall 0
d69b: 4f fe     pcall $fe
d69d: f2 02     clr7  $02
d69f: ed        notc
d6a0: b6 32 2f  sbc   a,$2f32+y
d6a3: cf        mul   ya
d6a4: e4 5f     mov   a,$5f
d6a6: ff        stop
d6a7: 12 f1     clr0  $f1
d6a9: ba d1     movw  ya,$d1
d6ab: 5d        mov   x,a
d6ac: ee        pop   y
d6ad: 23 f5 cd  bbs1  $f5,$d67c
d6b0: 2f 4d     bra   $d6ff
d6b2: b6 f2 f4  sbc   a,$f4f2+y
d6b5: 3d        inc   x
d6b6: dc        dec   y
d6b7: 03 12 de  bbs0  $12,$d697
d6ba: 32 b6     clr1  $b6
d6bc: 0e e1 14  tset1 $14e1
d6bf: 2c 13 30  rol   $3013
d6c2: bf        mov   a,(x)+
d6c3: ff        stop
d6c4: b6 40 fd  sbc   a,$fd40+y
d6c7: 15 10 f1  or    a,$f110+x
d6ca: 20        clrp
d6cb: fc        inc   y
d6cc: c1        tcall 12
d6cd: ba 04     movw  ya,$04
d6cf: ec 1e 4e  mov   y,$4e1e
d6d2: f3 02 d0  bbc7  $02,$d6a4
d6d5: 1c        asl   a
d6d6: b6 23 2f  sbc   a,$2f23+y
d6d9: e0        clrv
d6da: fe 20     dbnz  y,$d6fc
d6dc: e3 13 ff  bbs7  $13,$d6dd
d6df: b6 2e 11  sbc   a,$112e+y
d6e2: e0        clrv
d6e3: 04 ff     or    a,$ff
d6e5: 2d        push  a
d6e6: 01        tcall 0
d6e7: 31        tcall 3
d6e8: b6 c3 1e  sbc   a,$1ec3+y
d6eb: 10 3d     bpl   $d72a
d6ed: 15 d0 ef  or    a,$efd0+x
d6f0: 1d        dec   x
d6f1: b6 2e f6  sbc   a,$f62e+y
d6f4: 12 e0     clr0  $e0
d6f6: fd        mov   y,a
d6f7: 61        tcall 6
d6f8: e0        clrv
d6f9: 00        nop
d6fa: b6 c1 4f  sbc   a,$4fc1+y
d6fd: 22 fc     set1  $fc
d6ff: e3 11 50  bbs7  $11,$d751
d702: fe b2     dbnz  y,$d6b6
d704: 35 e1 30  and   a,$30e1+x
d707: 2e 0f f7  cbne  $0f,$d700
d70a: 35 63 c2  and   a,$c263+x
d70d: 21        tcall 2
d70e: 42 f2     set2  $f2
d710: 12 22     clr0  $22
d712: 51        tcall 5
d713: 23 f0 b6  bbs1  $f0,$d6cb
d716: e6        mov   a,(x)
d717: 01        tcall 0
d718: 7b 2e     ror   $2e+x
d71a: e1        tcall 14
d71b: b5 1c 3b  sbc   a,$3b1c+x
d71e: c2 ee     set6  $ee
d720: f3 23 41  bbc7  $23,$d763
d723: 11        tcall 1
d724: 01        tcall 0
d725: 03 21 b6  bbs0  $21,$d6dd
d728: 49 00 25  eor   ($25),($00)
d72b: b4 fd     sbc   a,$fd+x
d72d: 4d        push  x
d72e: 51        tcall 5
d72f: f3 b6 b2  bbc7  $b6,$d6e3
d732: ed        notc
d733: 4a 4f f5  and1  c,$1ea9,7
d736: f5 ed 4c  mov   a,$4ced+x
d739: b6 4d 03  sbc   a,$034d+y
d73c: c5 de 2e  mov   $2ede,a
d73f: 25 0f ed  and   a,$ed0f
d742: b6 21 e4  sbc   a,$e421+y
d745: 20        clrp
d746: 2e fd e3  cbne  $fd,$d72b
d749: 11        tcall 1
d74a: e1        tcall 14
d74b: b6 1e 2f  sbc   a,$2f1e+y
d74e: 31        tcall 3
d74f: 14 ce     or    a,$ce+x
d751: ff        stop
d752: 01        tcall 0
d753: 40        setp
d754: b6 f0 0f  sbc   a,$0ff0+y
d757: b6 1e 5e  sbc   a,$5e1e+y
d75a: fe 13     dbnz  y,$d76f
d75c: f4 b6     mov   a,$b6+x
d75e: 0d        push  psw
d75f: ef        sleep
d760: 2c 25 f3  rol   $f325
d763: f1        tcall 15
d764: de 5e b6  cbne  $5e+x,$d71c
d767: f2 02     clr7  $02
d769: d2 0f     clr6  $0f
d76b: 4e 1e f3  tclr1 $f31e
d76e: d2 b6     clr6  $b6
d770: 1f 2f 20  jmp   ($202f+x)
d773: f0 00     beq   $d775
d775: fc        inc   y
d776: 20        clrp
d777: 12 b2     clr0  $b2
d779: 35 54 41  and   a,$4154+x
d77c: 33 12 11  bbc1  $12,$d78f
d77f: ed        notc
d780: 41        tcall 4
d781: b2 26     clr5  $26
d783: 45 11 2d  eor   a,$2d11
d786: 44 13     eor   a,$13
d788: 04 24     or    a,$24
d78a: c2 4f     set6  $4f
d78c: ff        stop
d78d: f1        tcall 15
d78e: f3 10 41  bbc7  $10,$d7d1
d791: 11        tcall 1
d792: 24 c2     and   a,$c2
d794: f3 2e ff  bbc7  $2e,$d795
d797: 31        tcall 3
d798: 15 f0 00  or    a,$00f0+x
d79b: 2f c2     bra   $d75f
d79d: 32 14     clr1  $14
d79f: 00        nop
d7a0: 01        tcall 0
d7a1: 3f 21 e0  call  $e021
d7a4: 03 c6 00  bbs0  $c6,$d7a6
d7a7: 3c        rol   a
d7a8: 01        tcall 0
d7a9: f2 e2     clr7  $e2
d7ab: fe 3f     dbnz  y,$d7ec
d7ad: 0f        brk
d7ae: c6        mov   (x),a
d7af: 02 d2     set0  $d2
d7b1: 0d        push  psw
d7b2: 30 31     bmi   $d7e5
d7b4: d1        tcall 13
d7b5: d1        tcall 13
d7b6: 30 c6     bmi   $d77e
d7b8: fc        inc   y
d7b9: 21        tcall 2
d7ba: f2 e0     clr7  $e0
d7bc: 11        tcall 1
d7bd: 3c        rol   a
d7be: f2 f3     clr7  $f3
d7c0: b2 54     clr5  $54
d7c2: 1d        dec   x
d7c3: 43 22 24  bbs2  $22,$d7e9
d7c6: 34 2c     and   a,$2c+x
d7c8: 04 c2     or    a,$c2
d7ca: 32 f1     clr1  $f1
d7cc: 01        tcall 0
d7cd: 2f 00     bra   $d7cf
d7cf: 12 f1     clr0  $f1
d7d1: f1        tcall 15
d7d2: c2 43     set6  $43
d7d4: 3f 01 f2  call  $f201
d7d7: 11        tcall 1
d7d8: 10 2d     bpl   $d807
d7da: e1        tcall 14
d7db: c2 14     set6  $14
d7dd: 1f ed 22  jmp   ($22ed+x)
d7e0: 12 12     clr0  $12
d7e2: 11        tcall 1
d7e3: 0f        brk
d7e4: b6 33 2d  sbc   a,$2d33+y
d7e7: df        daa   a
d7e8: 25 2e d0  and   a,$d02e
d7eb: f2 1f     clr7  $1f
d7ed: c6        mov   (x),a
d7ee: 2d        push  a
d7ef: 20        clrp
d7f0: e1        tcall 14
d7f1: f4 fe     mov   a,$fe+x
d7f3: 4c 01 22  lsr   $2201
d7f6: c2 e2     set6  $e2
d7f8: 2f 30     bra   $d82a
d7fa: 30 f5     bmi   $d7f1
d7fc: f0 fd     beq   $d7fb
d7fe: 10 c2     bpl   $d7c2
d800: 40        setp
d801: e3 02 10  bbs7  $02,$d813
d804: 0e 53 e1  tset1 $e153
d807: 13 c2 11  bbc0  $c2,$d81a
d80a: 2e 14 1f  cbne  $14,$d82b
d80d: e1        tcall 14
d80e: 11        tcall 1
d80f: 51        tcall 5
d810: 02 b2     set0  $b2
d812: 56 df 0d  eor   a,$0ddf+y
d815: 31        tcall 3
d816: f0 05     beq   $d81d
d818: 0f        brk
d819: 3e b6     cmp   x,$b6
d81b: 43 3c a3  bbs2  $3c,$d7c0
d81e: 11        tcall 1
d81f: 4e fc 14  tclr1 $14fc
d822: a2 c2     set5  $c2
d824: 02 41     set0  $41
d826: 1d        dec   x
d827: c1        tcall 12
d828: 24 10     and   a,$10
d82a: 32 32     clr1  $32
d82c: b2 11     clr5  $11
d82e: 16 fc fd  or    a,$fdfc+y
d831: 34 41     and   a,$41+x
d833: b4 61     sbc   a,$61+x
d835: b2 0f     clr5  $0f
d837: 1e 37 f2  cmp   x,$f237
d83a: 55 2b e9  eor   a,$e92b+x
d83d: e6        mov   a,(x)
d83e: b2 43     clr5  $43
d840: f2 30     clr7  $30
d842: 52 04     clr2  $04
d844: 52 cd     clr2  $cd
d846: 0f        brk
d847: b2 46     clr5  $46
d849: 20        clrp
d84a: e3 fa 0e  bbs7  $fa,$d85a
d84d: 25 42 b1  and   a,$b142
d850: b2 52     clr5  $52
d852: 50 12     bvc   $d866
d854: 25 dd 34  and   a,$34dd
d857: 42 1e     set2  $1e
d859: b2 06     clr5  $06
d85b: 31        tcall 3
d85c: 01        tcall 0
d85d: 52 42     clr2  $42
d85f: f0 11     beq   $d872
d861: e0        clrv
d862: ba 2b     movw  ya,$2b
d864: 2d        push  a
d865: 02 32     set0  $32
d867: c0        di
d868: d1        tcall 13
d869: 03 e1 b6  bbs0  $e1,$d821
d86c: 22 30     set1  $30
d86e: cd 04     mov   x,#$04
d870: 21        tcall 2
d871: 1c        asl   a
d872: d1        tcall 13
d873: 5d        mov   x,a
d874: b6 f2 13  sbc   a,$13f2+y
d877: 1d        dec   x
d878: 0b 43     asl   $43
d87a: c4 d2     mov   $d2,a
d87c: 22 c2     set1  $c2
d87e: 4f 02     pcall $02
d880: 02 f0     set0  $f0
d882: 0e 20 f0  tset1 $f020
d885: 02 b6     set0  $b6
d887: f2 fb     clr7  $fb
d889: 1f 02 02  jmp   ($0202+x)
d88c: 10 ee     bpl   $d87c
d88e: 20        clrp
d88f: b6 13 0d  sbc   a,$0d13+y
d892: e0        clrv
d893: 0f        brk
d894: 43 d3 1d  bbs2  $d3,$d8b3
d897: ef        sleep
d898: b2 1d     clr5  $1d
d89a: 05 f1 25  or    a,$25f1
d89d: 41        tcall 4
d89e: 60        clrc
d89f: f4 10     mov   a,$10+x
d8a1: c2 e2     set6  $e2
d8a3: 3f 33 21  call  $2133
d8a6: 24 ed     and   a,$ed
d8a8: 0e 01 c2  tset1 $c201
d8ab: 42 04     set2  $04
d8ad: fe 01     dbnz  y,$d8b0
d8af: 30 21     bmi   $d8d2
d8b1: d2 22     clr6  $22
d8b3: c6        mov   (x),a
d8b4: f1        tcall 15
d8b5: 3c        rol   a
d8b6: 20        clrp
d8b7: b2 13     clr5  $13
d8b9: 0f        brk
d8ba: 4d        push  x
d8bb: e0        clrv
d8bc: c6        mov   (x),a
d8bd: f1        tcall 15
d8be: e4 0c     mov   a,$0c
d8c0: 3f 0f 25  call  $250f
d8c3: b1        tcall 11
d8c4: 0d        push  psw
d8c5: c2 eb     set6  $eb
d8c7: 0f        brk
d8c8: f4 22     mov   a,$22+x
d8ca: 01        tcall 0
d8cb: 30 31     bmi   $d8fe
d8cd: f1        tcall 15
d8ce: b2 02     clr5  $02
d8d0: 00        nop
d8d1: 5f 14 00  jmp   $0014
d8d4: 07 1a     or    a,($1a+x)
d8d6: 11        tcall 1
d8d7: c2 22     set6  $22
d8d9: 35 e0 0c  and   a,$0ce0+x
d8dc: ff        stop
d8dd: 32 13     clr1  $13
d8df: df        daa   a
d8e0: c2 11     set6  $11
d8e2: 2e 31 d1  cbne  $31,$d8b5
d8e5: f2 14     clr7  $14
d8e7: 6f        ret
d8e8: 10 c2     bpl   $d8ac
d8ea: ff        stop
d8eb: e4 01     mov   a,$01
d8ed: 30 20     bmi   $d90f
d8ef: 31        tcall 3
d8f0: f3 ef b2  bbc7  $ef,$d8a4
d8f3: 0f        brk
d8f4: 2e 64 c0  cbne  $64,$d8b6
d8f7: 10 bf     bpl   $d8b8
d8f9: 4d        push  x
d8fa: f5 b6 d0  mov   a,$d0b6+x
d8fd: 22 dc     set1  $dc
d8ff: 4f e1     pcall $e1
d901: 3e e4     cmp   x,$e4
d903: 0b b6     asl   $b6
d905: 32 0e     clr1  $0e
d907: 3f a1 11  call  $11a1
d90a: 12 31     clr0  $31
d90c: c1        tcall 12
d90d: b2 11     clr5  $11
d90f: 02 40     set0  $40
d911: 1f d1 02  jmp   ($02d1+x)
d914: 33 3e b2  bbc1  $3e,$d8c8
d917: 02 22     set0  $22
d919: 03 21 41  bbs0  $21,$d95c
d91c: 10 f1     bpl   $d90f
d91e: cf        mul   ya
d91f: b2 fd     clr5  $fd
d921: 32 41     clr1  $41
d923: 05 e1 31  or    a,$31e1
d926: 1e 4e b2  cmp   x,$b24e
d929: a1        tcall 10
d92a: 04 52     or    a,$52
d92c: 1e 56 21  cmp   x,$2156
d92f: f0 33     beq   $d964
d931: c6        mov   (x),a
d932: dc        dec   y
d933: 44 ff     eor   a,$ff
d935: cf        mul   ya
d936: 04 4d     or    a,$4d
d938: f1        tcall 15
d939: 11        tcall 1
d93a: c6        mov   (x),a
d93b: cf        mul   ya
d93c: f1        tcall 15
d93d: 4f ee     pcall $ee
d93f: 03 11 0f  bbs0  $11,$d950
d942: 0f        brk
d943: c2 2f     set6  $2f
d945: d2 34     clr6  $34
d947: 1e ec 03  cmp   x,$03ec
d94a: 0d        push  psw
d94b: d0 c6     bne   $d913
d94d: 0f        brk
d94e: 20        clrp
d94f: 02 1c     set0  $1c
d951: e3 00 1f  bbs7  $00,$d972
d954: fe c2     dbnz  y,$d918
d956: 14 f1     or    a,$f1+x
d958: 22 20     set1  $20
d95a: 0c f3 10  asl   $10f3
d95d: e0        clrv
d95e: c2 ff     set6  $ff
d960: 30 01     bmi   $d963
d962: 22 f1     set1  $f1
d964: 11        tcall 1
d965: 43 0d c6  bbs2  $0d,$d92d
d968: 22 f1     set1  $f1
d96a: 00        nop
d96b: f1        tcall 15
d96c: 2c 24 00  rol   $0024
d96f: df        daa   a
d970: c2 ee     set6  $ee
d972: 44 10     eor   a,$10
d974: 01        tcall 0
d975: ff        stop
d976: 10 24     bpl   $d99c
d978: 3f c2 f2  call  $f2c2
d97b: 13 31 fd  bbc0  $31,$d97a
d97e: 10 e1     bpl   $d961
d980: 12 00     clr0  $00
d982: c6        mov   (x),a
d983: 0e 42 fe  tset1 $fe42
d986: e0        clrv
d987: f3 1d 0f  bbc7  $1d,$d998
d98a: 1f b6 f5  jmp   ($f5b6+x)
d98d: d3 4e df  bbc6  $4e,$d96e
d990: 43 f2 de  bbs2  $f2,$d970
d993: e3 c2 1d  bbs7  $c2,$d9b2
d996: e0        clrv
d997: ff        stop
d998: ef        sleep
d999: f0 42     beq   $d9dd
d99b: 0f        brk
d99c: 02 b2     set0  $b2
d99e: 01        tcall 0
d99f: fb f2     mov   y,$f2+x
d9a1: 3a a1     incw  $a1
d9a3: f2 00     clr7  $00
d9a5: fd        mov   y,a
d9a6: c2 31     set6  $31
d9a8: ff        stop
d9a9: e0        clrv
d9aa: ef        sleep
d9ab: fd        mov   y,a
d9ac: 11        tcall 1
d9ad: 0f        brk
d9ae: e0        clrv
d9af: c2 e1     set6  $e1
d9b1: 30 11     bmi   $d9c4
d9b3: 30 d0     bmi   $d985
d9b5: d0 32     bne   $d9e9
d9b7: 1d        dec   x
d9b8: c2 ff     set6  $ff
d9ba: e1        tcall 14
d9bb: 00        nop
d9bc: 02 2d     set0  $2d
d9be: f1        tcall 15
d9bf: 23 01 c6  bbs1  $01,$d987
d9c2: e1        tcall 14
d9c3: 3e fe     cmp   x,$fe
d9c5: 32 d1     clr1  $d1
d9c7: ef        sleep
d9c8: 32 1c     clr1  $1c
d9ca: b2 e2     clr5  $e2
d9cc: 35 10 bc  and   a,$bc10+x
d9cf: 4d        push  x
d9d0: be        das   a
d9d1: 13 e2 c2  bbc0  $e2,$d995
d9d4: fe 45     dbnz  y,$da1b
d9d6: 40        setp
d9d7: f0 c0     beq   $d999
d9d9: 0e f0 3d  tset1 $3df0
d9dc: c6        mov   (x),a
d9dd: 03 e3 21  bbs0  $e3,$da00
d9e0: cd 4f     mov   x,#$4f
d9e2: e0        clrv
d9e3: 21        tcall 2
d9e4: e2 c6     set7  $c6
d9e6: fc        inc   y
d9e7: 11        tcall 1
d9e8: 3f f2 e2  call  $e2f2
d9eb: 2d        push  a
d9ec: fe 40     dbnz  y,$da2e
d9ee: c2 ff     set6  $ff
d9f0: bc        inc   a
d9f1: df        daa   a
d9f2: 0d        push  psw
d9f3: 11        tcall 1
d9f4: 11        tcall 1
d9f5: e0        clrv
d9f6: d0 c6     bne   $d9be
d9f8: 1d        dec   x
d9f9: 1f 1e e2  jmp   ($e21e+x)
d9fc: c3 3f 0e  bbs6  $3f,$da0c
d9ff: 4f c2     pcall $c2
da01: f2 12     clr7  $12
da03: f2 1b     clr7  $1b
da05: ed        notc
da06: ef        sleep
da07: 03 df b2  bbs0  $df,$d9bb
da0a: 2f 0e     bra   $da1a
da0c: 41        tcall 4
da0d: e5 0d e1  mov   a,$e10d
da10: 4b 21     lsr   $21
da12: c2 e0     set6  $e0
da14: ef        sleep
da15: de 31 32  cbne  $31+x,$da49
da18: 00        nop
da19: e0        clrv
da1a: de c2 10  cbne  $c2+x,$da2c
da1d: 2e ff e3  cbne  $ff,$da02
da20: 12 21     clr0  $21
da22: 2d        push  a
da23: f0 c2     beq   $d9e7
da25: 03 11 dd  bbs0  $11,$da04
da28: 0f        brk
da29: 10 00     bpl   $da2b
da2b: 04 00     or    a,$00
da2d: b6 5f 1a  sbc   a,$1a5f+y
da30: 5c        lsr   a
da31: a6        sbc   a,(x)
da32: 1f c3 5c  jmp   ($5cc3+x)
da35: 53 b2 51  bbc2  $b2,$da88
da38: f3 dd 75  bbc7  $dd,$daaf
da3b: 53 0e a2  bbc2  $0e,$d9df
da3e: 20        clrp
da3f: c6        mov   (x),a
da40: 1e fe 32  cmp   x,$32fe
da43: f3 11 ce  bbc7  $11,$da13
da46: 0c 22 b2  asl   $b222
da49: 11        tcall 1
da4a: d2 ec     clr6  $ec
da4c: 21        tcall 2
da4d: 56 41 af  eor   a,$af41+y
da50: 1f c2 01  jmp   ($01c2+x)
da53: 2f 11     bra   $da66
da55: dd        mov   a,y
da56: df        daa   a
da57: f0 41     beq   $da9a
da59: 11        tcall 1
da5a: b2 0f     clr5  $0f
da5c: c4 1d     mov   $1d,a
da5e: 0c ca 15  asl   $15ca
da61: d6 51 c6  mov   $c651+y,a
da64: ff        stop
da65: 3c        rol   a
da66: 34 d0     and   a,$d0+x
da68: f1        tcall 15
da69: d0 4c     bne   $dab7
da6b: f1        tcall 15
da6c: c2 1f     set6  $1f
da6e: d3 1f 21  bbc6  $1f,$da91
da71: 2f 11     bra   $da84
da73: cf        mul   ya
da74: f0 c6     beq   $da3c
da76: 00        nop
da77: 3b 01     rol   $01+x
da79: e1        tcall 14
da7a: f5 f0 4e  mov   a,$4ef0+x
da7d: 0f        brk
da7e: c6        mov   (x),a
da7f: 10 c2     bpl   $da43
da81: ff        stop
da82: 00        nop
da83: 3d        inc   x
da84: 23 e1 f1  bbs1  $e1,$da77
da87: b2 0d     clr5  $0d
da89: 4d        push  x
da8a: d0 f0     bne   $da7c
da8c: b2 1e     clr5  $1e
da8e: 31        tcall 3
da8f: 2d        push  a
da90: b2 14     clr5  $14
da92: d4 64     mov   $64+x,a
da94: 21        tcall 2
da95: 4a be ba  and1  c,$1757,6
da98: a0        ei
da99: b2 dd     clr5  $dd
da9b: 62 34     set3  $34
da9d: 63 b1 d9  bbs3  $b1,$da78
daa0: ce        pop   x
daa1: 1a b2     decw  $b2
daa3: 25 c0 f1  and   a,$f1c0
daa6: bc        inc   a
daa7: 5d        mov   x,a
daa8: f2 0f     clr7  $0f
daaa: e5 c2 fd  mov   a,$fdc2
daad: fd        mov   y,a
daae: cc 00 c0  mov   $c000,y
dab1: 0f        brk
dab2: 01        tcall 0
dab3: 1c        asl   a
dab4: c2 e1     set6  $e1
dab6: fe d0     dbnz  y,$da88
dab8: e0        clrv
dab9: 2e f0 20  cbne  $f0,$dadb
dabc: c0        di
dabd: b2 df     clr5  $df
dabf: 65 1c 23  cmp   a,$231c
dac2: bf        mov   a,(x)+
dac3: db ad     mov   $ad+x,y
dac5: 19        or    (x),(y)
dac6: c6        mov   (x),a
dac7: 23 0f f3  bbs1  $0f,$dabc
daca: c0        di
dacb: 2e 10 4d  cbne  $10,$db1a
dace: e4 c2     mov   a,$c2
dad0: f0 01     beq   $dad3
dad2: 0c 21 01  asl   $0121
dad5: 12 e2     clr0  $e2
dad7: 2d        push  a
dad8: c6        mov   (x),a
dad9: 10 3f     bpl   $db1a
dadb: e1        tcall 14
dadc: d4 60     mov   $60+x,a
dade: bc        inc   a
dadf: 40        setp
dae0: f0 c2     beq   $daa4
dae2: dd        mov   a,y
dae3: d3 4d f0  bbc6  $4d,$dad5
dae6: 34 02     and   a,$02+x
dae8: df        daa   a
dae9: 3f c2 ff  call  $ffc2
daec: 33 12 de  bbc1  $12,$dacc
daef: 04 2c     or    a,$2c
daf1: 00        nop
daf2: 02 b2     set0  $b2
daf4: 12 c5     clr0  $c5
daf6: 6c bb 00  ror   $00bb
daf9: 56 cf ef  eor   a,$efcf+y
dafc: c2 dc     set6  $dc
dafe: 1e 12 ec  cmp   x,$ec12
db01: c2 31     set6  $31
db03: 10 ff     bpl   $db04
db05: c2 2f     set6  $2f
db07: d1        tcall 13
db08: 44 fe     eor   a,$fe
db0a: fd        mov   y,a
db0b: 12 fd     clr0  $fd
db0d: d1        tcall 13
db0e: c6        mov   (x),a
db0f: ff        stop
db10: 3f 00 0d  call  $0d00
db13: e4 10     mov   a,$10
db15: ef        sleep
db16: fe b2     dbnz  y,$daca
db18: 23 00 f3  bbs1  $00,$db0d
db1b: be        das   a
db1c: ea 46 4b  not1  $0968,6
db1f: af        mov   (x)+,a
db20: c2 d0     set6  $d0
db22: 22 00     set1  $00
db24: 40        setp
db25: f1        tcall 15
db26: 23 00 dc  bbs1  $00,$db04
db29: c2 21     set6  $21
db2b: 0e f1 04  tset1 $04f1
db2e: 1d        dec   x
db2f: f3 4e 02  bbc7  $4e,$db33
db32: c2 f2     set6  $f2
db34: 32 cc     clr1  $cc
db36: 30 de     bmi   $db16
db38: 00        nop
db39: 04 0e     or    a,$0e
db3b: c2 14     set6  $14
db3d: 3e 0e     cmp   x,$0e
db3f: d2 11     clr6  $11
db41: e1        tcall 14
db42: 5d        mov   x,a
db43: dd        mov   a,y
db44: c2 e1     set6  $e1
db46: 25 fe f0  and   a,$f0fe
db49: 1e 31 13  cmp   x,$1331
db4c: dd        mov   a,y
db4d: c6        mov   (x),a
db4e: e5 4c 3d  mov   a,$3d4c
db51: f2 e1     clr7  $e1
db53: d3 4e ed  bbc6  $4e,$db42
db56: b2 bb     clr5  $bb
db58: 05 ee f3  or    a,$f3ee
db5b: 5d        mov   x,a
db5c: 0d        push  psw
db5d: 17 1d     or    a,($1d)+y
db5f: c6        mov   (x),a
db60: c2 2e     set6  $2e
db62: 2e 01 20  cbne  $01,$db84
db65: c0        di
db66: 33 ee c6  bbc1  $ee,$db2e
db69: fe 31     dbnz  y,$db9c
db6b: fe d4     dbnz  y,$db41
db6d: 00        nop
db6e: 1e 12 1e  cmp   x,$1e12
db71: c6        mov   (x),a
db72: d3 3f ff  bbc6  $3f,$db73
db75: ee        pop   y
db76: 32 ee     clr1  $ee
db78: 22 df     set1  $df
db7a: c6        mov   (x),a
db7b: 2f 15     bra   $db92
db7d: 1c        asl   a
db7e: c2 1e     set6  $1e
db80: 21        tcall 2
db81: ff        stop
db82: 3e c6     cmp   x,$c6
db84: a1        tcall 10
db85: 33 f1 1c  bbc1  $f1,$dba3
db88: 21        tcall 2
db89: fe 03     dbnz  y,$db8e
db8b: ff        stop
db8c: c2 fd     set6  $fd
db8e: cd 00     mov   x,#$00
db90: f1        tcall 15
db91: 00        nop
db92: f0 0f     beq   $dba3
db94: 33 c6 ee  bbc1  $c6,$db84
db97: e1        tcall 14
db98: e3 0e 20  bbs7  $0e,$dbba
db9b: 2c 03 f3  rol   $f303
db9e: b2 33     clr5  $33
dba0: da 2d     movw  $2d,ya
dba2: ee        pop   y
dba3: cd 9f     mov   x,#$9f
dba5: dc        dec   y
dba6: 33 b6 ec  bbc1  $b6,$db94
dba9: 34 f6     and   a,$f6+x
dbab: 0b af     asl   $af
dbad: 4c 23 ff  lsr   $ff23
dbb0: c6        mov   (x),a
dbb1: e1        tcall 14
dbb2: f1        tcall 15
dbb3: 41        tcall 4
dbb4: 0e fe 03  tset1 $03fe
dbb7: f1        tcall 15
dbb8: 10 b2     bpl   $db6c
dbba: 1a dc     decw  $dc
dbbc: 04 54     or    a,$54
dbbe: ef        sleep
dbbf: ff        stop
dbc0: 35 62 c6  and   a,$c662+x
dbc3: 0f        brk
dbc4: cf        mul   ya
dbc5: 03 10 2e  bbs0  $10,$dbf5
dbc8: 11        tcall 1
dbc9: 0f        brk
dbca: f3 b6 cd  bbc7  $b6,$db99
dbcd: 0e 1d 40  tset1 $401d
dbd0: e4 11     mov   a,$11
dbd2: b0 0e     bcs   $dbe2
dbd4: c2 01     set6  $01
dbd6: 21        tcall 2
dbd7: 23 fe ee  bbs1  $fe,$dbc7
dbda: dc        dec   y
dbdb: fd        mov   y,a
dbdc: cf        mul   ya
dbdd: c6        mov   (x),a
dbde: 11        tcall 1
dbdf: 02 ef     set0  $ef
dbe1: 1e ed 31  cmp   x,$31ed
dbe4: e4 ff     mov   a,$ff
dbe6: c6        mov   (x),a
dbe7: e1        tcall 14
dbe8: 0c 32 1f  asl   $1f32
dbeb: 01        tcall 0
dbec: c2 1f     set6  $1f
dbee: 1f c6 2b  jmp   ($2bc6+x)
dbf1: d2 03     clr6  $03
dbf3: 22 0f     set1  $0f
dbf5: 2d        push  a
dbf6: 00        nop
dbf7: 10 c6     bpl   $dbbf
dbf9: e2 cd     set7  $cd
dbfb: 22 2e     set1  $2e
dbfd: 30 d1     bmi   $dbd0
dbff: f1        tcall 15
dc00: f2 b6     clr7  $b6
dc02: 3d        inc   x
dc03: 3b cf     rol   $cf+x
dc05: 14 b1     or    a,$b1+x
dc07: 2f f3     bra   $dbfc
dc09: 3c        rol   a
dc0a: b6 41 2d  sbc   a,$2d41+y
dc0d: c3 bd 10  bbs6  $bd,$dc1f
dc10: 30 4e     bmi   $dc60
dc12: e0        clrv
dc13: b6 0f d4  sbc   a,$d40f+y
dc16: 02 4c     set0  $4c
dc18: fe 20     dbnz  y,$dc3a
dc1a: d2 de     clr6  $de
dc1c: b6 f2 01  sbc   a,$01f2+y
dc1f: 42 2f     set2  $2f
dc21: 0e d2 fe  tset1 $fed2
dc24: f1        tcall 15
dc25: a6        sbc   a,(x)
dc26: ee        pop   y
dc27: 46        eor   a,(x)
dc28: 0e 4f df  tset1 $df4f
dc2b: 1f e5 11  jmp   ($11e5+x)
dc2e: ba 0e     movw  ya,$0e
dc30: 1f 0f 14  jmp   ($140f+x)
dc33: fb 43     mov   y,$43+x
dc35: fe ef     dbnz  y,$dc26
dc37: c6        mov   (x),a
dc38: f1        tcall 15
dc39: 1e d0 20  cmp   x,$20d0
dc3c: ff        stop
dc3d: 12 41     clr0  $41
dc3f: cd b6     mov   x,#$b6
dc41: f3 30 f0  bbc7  $30,$dc33
dc44: 10 cb     bpl   $dc11
dc46: 12 01     clr0  $01
dc48: 0e ba 12  tset1 $12ba
dc4b: 4d        push  x
dc4c: d3 eb 12  bbc6  $eb,$dc60
dc4f: 21        tcall 2
dc50: 00        nop
dc51: c1        tcall 12
dc52: ba 31     movw  ya,$31
dc54: 1f be 40  jmp   ($40be+x)
dc57: 0d        push  psw
dc58: 43 c0 c2  bbs2  $c0,$dc1c
dc5b: c6        mov   (x),a
dc5c: e1        tcall 14
dc5d: 6f        ret
dc5e: cf        mul   ya
dc5f: 23 fd 13  bbs1  $fd,$dc74
dc62: 31        tcall 3
dc63: aa c6 14  mov1  c,$0298,6
dc66: 4e ce 14  tclr1 $14ce
dc69: 1c        asl   a
dc6a: 03 20 ce  bbs0  $20,$dc3a
dc6d: c6        mov   (x),a
dc6e: 01        tcall 0
dc6f: 30 c0     bmi   $dc31
dc71: 11        tcall 1
dc72: ee        pop   y
dc73: 22 22     set1  $22
dc75: dc        dec   y
dc76: b6 27 5e  sbc   a,$5e27+y
dc79: cf        mul   ya
dc7a: c1        tcall 12
dc7b: 1a e5     decw  $e5
dc7d: 52 ac     clr2  $ac
dc7f: c2 ef     set6  $ef
dc81: 34 10     and   a,$10+x
dc83: f0 0c     beq   $dc91
dc85: ce        pop   x
dc86: 02 fb     set0  $fb
dc88: c6        mov   (x),a
dc89: f3 50 d0  bbc7  $50,$dc5b
dc8c: 01        tcall 0
dc8d: 2e f2 21  cbne  $f2,$dcb0
dc90: bc        inc   a
dc91: b6 03 73  sbc   a,$7303+y
dc94: cc f3 4d  mov   $4df3,y
dc97: 22 f0     set1  $f0
dc99: 9b ca     dec   $ca+x
dc9b: 22 2d     set1  $2d
dc9d: c2 01     set6  $01
dc9f: 1f 10 f1  jmp   ($f110+x)
dca2: df        daa   a
dca3: b6 03 73  sbc   a,$7303+y
dca6: 9a e0     subw  ya,$e0
dca8: 4c 04 14  lsr   $1404
dcab: eb c2     mov   y,$c2
dcad: df        daa   a
dcae: 34 1e     and   a,$1e+x
dcb0: dd        mov   a,y
dcb1: ff        stop
dcb2: f0 11     beq   $dcc5
dcb4: fd        mov   y,a
dcb5: c6        mov   (x),a
dcb6: f1        tcall 15
dcb7: 42 ee     set2  $ee
dcb9: f0 10     beq   $dccb
dcbb: 0f        brk
dcbc: f2 fd     clr7  $fd
dcbe: ba 45     movw  ya,$45
dcc0: 2e bf 04  cbne  $bf,$dcc6
dcc3: 4a d3 30  and1  c,$061a,3
dcc6: af        mov   (x)+,a
dcc7: b6 ef 36  sbc   a,$36ef+y
dcca: ea 05 3e  not1  $07c0,5
dccd: ff        stop
dcce: e4 4c     mov   a,$4c
dcd0: b6 b1 42  sbc   a,$42b1+y
dcd3: 9c        dec   a
dcd4: f2 63     clr7  $63
dcd6: dc        dec   y
dcd7: 23 df c6  bbs1  $df,$dc9f
dcda: 01        tcall 0
dcdb: 22 ec     set1  $ec
dcdd: e2 3f     set7  $3f
dcdf: f0 00     beq   $dce1
dce1: 0f        brk
dce2: c2 ce     set6  $ce
dce4: 35 1e dd  and   a,$dd1e+x
dce7: ef        sleep
dce8: fe f2     dbnz  y,$dcdc
dcea: 0c b6 f4  asl   $f4b6
dced: 54 0c     eor   a,$0c+x
dcef: b1        tcall 11
dcf0: 5e b2 42  cmp   y,$42b2
dcf3: ed        notc
dcf4: c2 dc     set6  $dc
dcf6: e1        tcall 14
dcf7: 0f        brk
dcf8: ff        stop
dcf9: 0f        brk
dcfa: ee        pop   y
dcfb: f3 2f b2  bbc7  $2f,$dcaf
dcfe: ce        pop   x
dcff: cb dd     mov   $dd,y
dd01: cf        mul   ya
dd02: 63 cc 26  bbs3  $cc,$dd2a
dd05: 31        tcall 3
dd06: b6 1e 03  sbc   a,$031e+y
dd09: cb 16     mov   $16,y
dd0b: 2b df     rol   $df
dd0d: 04 2c     or    a,$2c
dd0f: b2 b1     clr5  $b1
dd11: 75 fd bc  cmp   a,$bcfd+x
dd14: 33 ec f2  bbc1  $ec,$dd08
dd17: db ca     mov   $ca+x,y
dd19: 2f 3f     bra   $dd5a
dd1b: ce        pop   x
dd1c: 34 ef     and   a,$ef+x
dd1e: 1f e2 0e  jmp   ($0ee2+x)
dd21: ba 15     movw  ya,$15
dd23: 4a c5 c1  and1  c,$1838,5
dd26: 5f df 5e  jmp   $5edf
dd29: b2 ba     clr5  $ba
dd2b: 0f        brk
dd2c: 42 b1     set2  $b1
dd2e: 22 cb     set1  $cb
dd30: 52 01     clr2  $01
dd32: ed        notc
dd33: b6 c0 2e  sbc   a,$2ec0+y
dd36: d3 52 1c  bbc6  $52,$dd54
dd39: ae        pop   a
dd3a: 46        eor   a,(x)
dd3b: fe b6     dbnz  y,$dcf3
dd3d: 2f fe     bra   $dd3d
dd3f: ef        sleep
dd40: 16 29 bf  or    a,$bf29+y
dd43: 13 42 b6  bbc0  $42,$dcfb
dd46: ef        sleep
dd47: 1e bf 43  cmp   x,$43bf
dd4a: 0e ec 25  tset1 $25ec
dd4d: ff        stop
dd4e: a2 04     set5  $04
dd50: 1f 1c 93  jmp   ($931c+x)
dd53: 6d        push  y
dd54: f3 52 c9  bbc7  $52,$dd1f
dd57: b6 c1 30  sbc   a,$30c1+y
dd5a: 12 3e     clr0  $3e
dd5c: e0        clrv
dd5d: 11        tcall 1
dd5e: 21        tcall 2
dd5f: ac ba 32  inc   $32ba
dd62: 0f        brk
dd63: 3e ee     cmp   x,$ee
dd65: e1        tcall 14
dd66: 44 de     eor   a,$de
dd68: 0e b6 fe  tset1 $feb6
dd6b: 02 22     set0  $22
dd6d: 1c        asl   a
dd6e: cf        mul   ya
dd6f: 15 22 1d  or    a,$1d22+x
dd72: ba 3e     movw  ya,$3e
dd74: e1        tcall 14
dd75: 36 cb 03  and   a,$03cb+y
dd78: 0f        brk
dd79: 5f 91 ba  jmp   $ba91
dd7c: 4c e3 30  lsr   $30e3
dd7f: 01        tcall 0
dd80: dd        mov   a,y
dd81: 2f 02     bra   $dd85
dd83: 20        clrp
dd84: ba fd     movw  ya,$fd
dd86: 10 f3     bpl   $dd7b
dd88: f0 1f     beq   $dda9
dd8a: ec 50 f3  mov   y,$f350
dd8d: b6 50 f3  sbc   a,$f350+y
dd90: ec c0 42  mov   y,$42c0
dd93: 21        tcall 2
dd94: ec 03 a6  mov   y,$a603
dd97: ee        pop   y
dd98: 54 cd     eor   a,$cd+x
dd9a: df        daa   a
dd9b: 13 31 1c  bbc0  $31,$ddb9
dd9e: da ba     movw  $ba,ya
dda0: 12 03     clr0  $03
dda2: ee        pop   y
dda3: e3 1d 32  bbs7  $1d,$ddd7
dda6: bd        mov   sp,x
dda7: 30 aa     bmi   $dd53
dda9: 16 2d d2  or    a,$d22d+y
ddac: a1        tcall 10
ddad: 02 00     set0  $00
ddaf: 3e ec     cmp   x,$ec
ddb1: b6 f3 32  sbc   a,$32f3+y
ddb4: 1f de ef  jmp   ($efde+x)
ddb7: 00        nop
ddb8: 34 2e     and   a,$2e+x
ddba: a6        sbc   a,(x)
ddbb: df        daa   a
ddbc: d0 ff     bne   $ddbd
ddbe: f1        tcall 15
ddbf: fe 21     dbnz  y,$dde2
ddc1: 15 7f b6  or    a,$b67f+x
ddc4: ce        pop   x
ddc5: ff        stop
ddc6: e0        clrv
ddc7: 20        clrp
ddc8: 20        clrp
ddc9: 03 fd f0  bbs0  $fd,$ddbb
ddcc: b6 fc e4  sbc   a,$e4fc+y
ddcf: 21        tcall 2
ddd0: 2f 01     bra   $ddd3
ddd2: 2f ce     bra   $dda2
ddd4: f1        tcall 15
ddd5: aa c0 34  mov1  c,$0698,0
ddd8: dd        mov   a,y
ddd9: dc        dec   y
ddda: 6f        ret
dddb: f5 fd 13  mov   a,$13fd+x
ddde: b6 0f 13  sbc   a,$130f+y
dde1: 1e fe dd  cmp   x,$ddfe
dde4: 24 02     and   a,$02
dde6: 20        clrp
dde7: b6 dd 00  sbc   a,$00dd+y
ddea: 10 fd     bpl   $dde9
ddec: f1        tcall 15
dded: 13 21 2c  bbc0  $21,$de1b
ddf0: c2 cb     set6  $cb
ddf2: d2 1d     clr6  $1d
ddf4: df        daa   a
ddf5: 33 0f f3  bbc1  $0f,$ddea
ddf8: 3d        inc   x
ddf9: ca 34 3c  mov1  $0786,4,c
ddfc: c3 12 ee  bbs6  $12,$ddec
ddff: 01        tcall 0
de00: 21        tcall 2
de01: b1        tcall 11
de02: b6 00 4f  sbc   a,$4f00+y
de05: e2 11     set7  $11
de07: bc        inc   a
de08: 02 5f     set0  $5f
de0a: c1        tcall 12
de0b: c2 01     set6  $01
de0d: fe f0     dbnz  y,$ddff
de0f: 22 db     set1  $db
de11: d0 11     bne   $de24
de13: 0f        brk
de14: b6 3d 90  sbc   a,$903d+y
de17: 57 2d     eor   a,($2d)+y
de19: be        das   a
de1a: 52 c2     clr2  $c2
de1c: 20        clrp
de1d: b2 3d     clr5  $3d
de1f: aa e4 20  mov1  c,$041c,4
de22: fc        inc   y
de23: ed        notc
de24: ce        pop   x
de25: 24 b6     and   a,$b6
de27: bc        inc   a
de28: 00        nop
de29: 67 ad     cmp   a,($ad+x)
de2b: 01        tcall 0
de2c: fe 20     dbnz  y,$de4e
de2e: 53 c6 ce  bbc2  $c6,$ddfe
de31: 02 30     set0  $30
de33: ee        pop   y
de34: 12 df     clr0  $df
de36: 32 2f     clr1  $2f
de38: c6        mov   (x),a
de39: dd        mov   a,y
de3a: 04 0f     or    a,$0f
de3c: f0 10     beq   $de4e
de3e: e0        clrv
de3f: 24 0d     and   a,$0d
de41: b6 dc 23  sbc   a,$23dc+y
de44: e0        clrv
de45: 33 f9 ee  bbc1  $f9,$de35
de48: 66        cmp   a,(x)
de49: db c2     mov   $c2+x,y
de4b: de fe e0  cbne  $fe+x,$de2d
de4e: 24 0d     and   a,$0d
de50: de 01 0e  cbne  $01+x,$de60
de53: c6        mov   (x),a
de54: f2 fe     clr7  $fe
de56: 01        tcall 0
de57: 31        tcall 3
de58: dc        dec   y
de59: 13 1f 0f  bbc0  $1f,$de6a
de5c: ca 3f c0  mov1  $1807,7,c
de5f: 43 ce 1e  bbs2  $ce,$de7f
de62: 31        tcall 3
de63: e1        tcall 14
de64: 12 c6     clr0  $c6
de66: 0d        push  psw
de67: de 24 fe  cbne  $24+x,$de67
de6a: 00        nop
de6b: 1e f0 33  cmp   x,$33f0
de6e: b6 aa ef  sbc   a,$efaa+y
de71: 52 0f     clr2  $0f
de73: 13 cb 04  bbc0  $cb,$de79
de76: 53 c6 dd  bbc2  $c6,$de55
de79: 02 0f     set0  $0f
de7b: 10 31     bpl   $deae
de7d: cc 03 20  mov   $2003,y
de80: b6 fc 31  sbc   a,$31fc+y
de83: bc        inc   a
de84: 46        eor   a,(x)
de85: 3c        rol   a
de86: ad 36     cmp   y,#$36
de88: dd        mov   a,y
de89: b2 f3     clr5  $f3
de8b: 64 da     cmp   a,$da
de8d: e5 3f ef  mov   a,$ef3f
de90: 11        tcall 1
de91: ca b2 f4  mov1  $1e96,2,c
de94: 1c        asl   a
de95: ac 34 0e  inc   $0e34
de98: 01        tcall 0
de99: 0d        push  psw
de9a: ce        pop   x
de9b: b2 44     clr5  $44
de9d: eb bf     mov   y,$bf
de9f: 1f ef 11  jmp   ($11ef+x)
dea2: da a1     movw  $a1,ya
dea4: a6        sbc   a,(x)
dea5: 4b ad     lsr   $ad
dea7: 34 ef     and   a,$ef+x
dea9: 05 f9 e0  or    a,$e0f9
deac: 36 b6 0d  and   a,$0db6+y
deaf: f1        tcall 15
deb0: 0d        push  psw
deb1: ff        stop
deb2: 32 fc     clr1  $fc
deb4: 10 01     bpl   $deb7
deb6: ba 0d     movw  ya,$0d
deb8: 42 ac     set2  $ac
deba: 51        tcall 5
debb: 4c ee 31  lsr   $31ee
debe: d2 ba     clr6  $ba
dec0: 1f 5d af  jmp   ($af5d+x)
dec3: 43 f0 ff  bbs2  $f0,$dec4
dec6: 1c        asl   a
dec7: c7 b2     mov   ($b2+x),a
dec9: b1        tcall 11
deca: 32 eb     clr1  $eb
decc: cd e0     mov   x,#$e0
dece: 25 51 ab  and   a,$ab51
ded1: ba 4e     movw  ya,$4e
ded3: ef        sleep
ded4: e0        clrv
ded5: 0f        brk
ded6: 33 3d be  bbc1  $3d,$de96
ded9: 06        or    a,(x)
deda: ba 0f     movw  ya,$0f
dedc: 1e fe f1  cmp   x,$f1fe
dedf: 44 0d     eor   a,$0d
dee1: dd        mov   a,y
dee2: 03 b6 f0  bbs0  $b6,$ded4
dee5: 44 1b     eor   a,$1b
dee7: dd        mov   a,y
dee8: 24 22     and   a,$22
deea: fc        inc   y
deeb: dd        mov   a,y
deec: ba 31     movw  ya,$31
deee: 5e cd 02  cmp   y,$02cd
def1: 1f 21 d0  jmp   ($d021+x)
def4: d1        tcall 13
def5: ba 32     movw  ya,$32
def7: 3e ec     cmp   x,$ec
def9: 20        clrp
defa: d1        tcall 13
defb: 44 cd     eor   a,$cd
defd: f0 ba     beq   $deb9
deff: 22 00     set1  $00
df01: fe 0d     dbnz  y,$df10
df03: 32 14     clr1  $14
df05: b0 cf     bcs   $ded6
df07: ba 3e     movw  ya,$3e
df09: 22 1f     set1  $1f
df0b: b1        tcall 11
df0c: f5 2e f1  mov   a,$f12e+x
df0f: cd b6     mov   x,#$b6
df11: d0 12     bne   $df25
df13: 2f 00     bra   $df15
df15: ee        pop   y
df16: f3 21 ec  bbc7  $21,$df04
df19: ba 3f     movw  ya,$3f
df1b: 44 b1     eor   a,$b1
df1d: ed        notc
df1e: e1        tcall 14
df1f: 42 00     set2  $00
df21: cd ba     mov   x,#$ba
df23: 31        tcall 3
df24: 12 0e     clr0  $0e
df26: fd        mov   y,a
df27: d4 42     mov   $42+x,a
df29: ed        notc
df2a: 00        nop
df2b: aa 0a 47  mov1  c,$08e1,2
df2e: 00        nop
df2f: ca f4 62  mov1  $0c5e,4,c
df32: eb 0f     mov   y,$0f
df34: a6        sbc   a,(x)
df35: ba 12     movw  ya,$12
df37: 21        tcall 2
df38: 0f        brk
df39: f2 31     clr7  $31
df3b: 1f da b6  jmp   ($b6da+x)
df3e: ef        sleep
df3f: 12 21     clr0  $21
df41: 02 3d     set0  $3d
df43: e2 31     set7  $31
df45: cc b6 d3  mov   $d3b6,y
df48: 4f f0     pcall $f0
df4a: 1f cd 13  jmp   ($13cd+x)
df4d: 21        tcall 2
df4e: 1f b6 e1  jmp   ($e1b6+x)
df51: 0f        brk
df52: 20        clrp
df53: fd        mov   y,a
df54: dc        dec   y
df55: 25 22 11  and   a,$1122
df58: a6        sbc   a,(x)
df59: ac 41 12  inc   $1241
df5c: f9 ac     mov   x,$ac+y
df5e: 06        or    a,(x)
df5f: 73 ee c2  bbc3  $ee,$df23
df62: fe e2     dbnz  y,$df46
df64: 2f f0     bra   $df56
df66: 30 df     bmi   $df47
df68: 25 1b c6  and   a,$c61b
df6b: e3 5e d0  bbs7  $5e,$df3d
df6e: 44 ec     eor   a,$ec
df70: f3 2d cf  bbc7  $2d,$df41
df73: b6 35 ed  sbc   a,$ed35+y
df76: 42 0b     set2  $0b
df78: d1        tcall 13
df79: 33 e0 21  bbc1  $e0,$df9c
df7c: b6 2b d1  sbc   a,$d12b+y
df7f: 3f bb f3  call  $f3bb
df82: 1f 23 5f  jmp   ($5f23+x)
df85: c2 fe     set6  $fe
df87: e1        tcall 14
df88: 2f fe     bra   $df88
df8a: 00        nop
df8b: cc f3 0b  mov   $0bf3,y
df8e: c6        mov   (x),a
df8f: f2 5f     clr7  $5f
df91: d1        tcall 13
df92: 22 cd     set1  $cd
df94: f4 4d     mov   a,$4d+x
df96: ee        pop   y
df97: c6        mov   (x),a
df98: 12 1e     clr0  $1e
df9a: 11        tcall 1
df9b: 3d        inc   x
df9c: d1        tcall 13
df9d: 03 cf 01  bbs0  $cf,$dfa0
dfa0: b2 fb     clr5  $fb
dfa2: 9d        mov   x,sp
dfa3: 66        cmp   a,(x)
dfa4: f9 bf     mov   x,$bf+y
dfa6: 32 32     clr1  $32
dfa8: 45 c2 ec  eor   a,$ecc2
dfab: d3 2d ee  bbc6  $2d,$df9b
dfae: e0        clrv
dfaf: ff        stop
dfb0: 25 3f c6  and   a,$c63f
dfb3: 0f        brk
dfb4: 30 e1     bmi   $df97
dfb6: 01        tcall 0
dfb7: d0 e5     bne   $df9e
dfb9: 4d        push  x
dfba: ee        pop   y
dfbb: c2 00     set6  $00
dfbd: 20        clrp
dfbe: 31        tcall 3
dfbf: 3f fd f3  call  $f3fd
dfc2: e0        clrv
dfc3: f0 c2     beq   $df87
dfc5: f2 f1     clr7  $f1
dfc7: 54 0e     eor   a,$0e+x
dfc9: ef        sleep
dfca: 2e 1f 00  cbne  $1f,$dfcc
dfcd: b2 fb     clr5  $fb
dfcf: b7 3d     sbc   a,($3d)+y
dfd1: bd        mov   sp,x
dfd2: 02 dd     set0  $dd
dfd4: 01        tcall 0
dfd5: 1c        asl   a
dfd6: c6        mov   (x),a
dfd7: f0 4f     beq   $e028
dfd9: f0 11     beq   $dfec
dfdb: de f4 00  cbne  $f4+x,$dfdd
dfde: ff        stop
dfdf: c6        mov   (x),a
dfe0: 12 de     clr0  $de
dfe2: 31        tcall 3
dfe3: 1d        dec   x
dfe4: 0e 31 00  tset1 $0031
dfe7: e4 c6     mov   a,$c6
dfe9: ec c4 21  mov   y,$21c4
dfec: fe 03     dbnz  y,$dff1
dfee: fe 21     dbnz  y,$e011
dff0: 4d        push  x
dff1: b6 9b 72  sbc   a,$729b+y
dff4: 12 c2     clr0  $c2
dff6: 1c        asl   a
dff7: 96 64 ed  adc   a,$ed64+y
dffa: b6 e2 fd  sbc   a,$fde2+y
dffd: 4e 6d ba  tclr1 $ba6d
e000: 54 02     eor   a,$02+x
e002: e3 c2 1f  bbs7  $c2,$e023
e005: ce        pop   x
e006: f3 3f ef  bbc7  $3f,$dff7
e009: fd        mov   y,a
e00a: 00        nop
e00b: 22 b2     set1  $b2
e00d: ea ae 56  not1  $0ad5,6
e010: f2 22     clr7  $22
e012: d0 f5     bne   $e009
e014: 6f        ret
e015: c6        mov   (x),a
e016: e0        clrv
e017: 2f 1f     bra   $e038
e019: 40        setp
e01a: ee        pop   y
e01b: 10 42     bpl   $e05f
e01d: ce        pop   x
e01e: b2 e0     clr5  $e0
e020: cc c4 50  mov   $50c4,y
e023: dd        mov   a,y
e024: e1        tcall 14
e025: 2f 23     bra   $e04a
e027: b6 cd 3f  sbc   a,$3fcd+y
e02a: 32 ed     clr1  $ed
e02c: f1        tcall 15
e02d: 01        tcall 0
e02e: e5 4c b6  mov   a,$b64c
e031: ee        pop   y
e032: 03 2b 12  bbs0  $2b,$e046
e035: fc        inc   y
e036: f0 41     beq   $e079
e038: be        das   a
e039: b6 04 01  sbc   a,$0104+y
e03c: c5 4e be  mov   $be4e,a
e03f: e5 fe 10  mov   a,$10fe
e042: b6 0d 11  sbc   a,$110d+y
e045: 43 fe cf  bbs2  $fe,$e016
e048: 4e 00 2c  tclr1 $2c00
e04b: b6 ff f3  sbc   a,$f3ff+y
e04e: 20        clrp
e04f: d2 e4     clr6  $e4
e051: d2 01     clr6  $01
e053: d1        tcall 13
e054: b6 c0 4e  sbc   a,$4ec0+y
e057: e1        tcall 14
e058: 2d        push  a
e059: 1e 11 20  cmp   x,$2011
e05c: 0c b6 31  asl   $31b6
e05f: 0d        push  psw
e060: 3e e1     cmp   x,$e1
e062: c0        di
e063: 31        tcall 3
e064: d1        tcall 13
e065: 15 b2 0f  or    a,$0fb2+x
e068: 02 ff     set0  $ff
e06a: 0c ef fe  asl   $feef
e06d: f1        tcall 15
e06e: 0e a2 99  tset1 $99a2
e071: fd        mov   y,a
e072: fe f3     dbnz  y,$e067
e074: 1c        asl   a
e075: 1e 52 2c  cmp   x,$2c52
e078: b2 fb     clr5  $fb
e07a: ae        pop   a
e07b: e3 25 de  bbs7  $25,$e05b
e07e: c5 f1 00  mov   $00f1,a
e081: c2 dc     set6  $dc
e083: df        daa   a
e084: 03 0f fe  bbs0  $0f,$e084
e087: fd        mov   y,a
e088: 30 2f     bmi   $e0b9
e08a: c6        mov   (x),a
e08b: 2c 31 1d  rol   $1d31
e08e: 2f ed     bra   $e07d
e090: 22 22     set1  $22
e092: ff        stop
e093: b6 c3 d2  sbc   a,$d2c3+y
e096: 03 9f c1  bbs0  $9f,$e059
e099: f7 11     mov   a,($11)+y
e09b: ef        sleep
e09c: b6 d1 02  sbc   a,$02d1+y
e09f: 31        tcall 3
e0a0: dc        dec   y
e0a1: 2f 1b     bra   $e0be
e0a3: 6b ff     ror   $ff
e0a5: b6 0d 34  sbc   a,$340d+y
e0a8: 4a 4e fb  and1  c,$1f69,6
e0ab: 40        setp
e0ac: c4 b1     mov   $b1,a
e0ae: c6        mov   (x),a
e0af: e4 f0     mov   a,$f0
e0b1: 12 ef     clr0  $ef
e0b3: f1        tcall 15
e0b4: 01        tcall 0
e0b5: 1e 01 b6  cmp   x,$b601
e0b8: 0c 22 de  asl   $de22
e0bb: 10 e2     bpl   $e09f
e0bd: 4e 3d 1c  tclr1 $1c3d
e0c0: b6 1f 1f  sbc   a,$1f1f+y
e0c3: 2a e3 30  or1   c,!($061c,3)
e0c6: f3 02 00  bbc7  $02,$e0c8
e0c9: b2 d0     clr5  $d0
e0cb: f1        tcall 15
e0cc: e3 11 f1  bbs7  $11,$e0bf
e0cf: cc 0d bb  mov   $bb0d,y
e0d2: b6 7a 42  sbc   a,$427a+y
e0d5: 59        eor   (x),(y)
e0d6: 4e 0e 0f  tclr1 $0f0e
e0d9: b7 d1     sbc   a,($d1)+y
e0db: b2 a5     clr5  $a5
e0dd: f2 e2     clr7  $e2
e0df: ce        pop   x
e0e0: 11        tcall 1
e0e1: df        daa   a
e0e2: 2d        push  a
e0e3: 02 c6     set0  $c6
e0e5: 1d        dec   x
e0e6: 2e fe 30  cbne  $fe,$e118
e0e9: f2 21     clr7  $21
e0eb: f2 ef     clr7  $ef
e0ed: a2 f5     set5  $f5
e0ef: ea be 09  not1  $0137,6
e0f2: 2c fa 40  rol   $40fa
e0f5: d0 c2     bne   $e0b9
e0f7: ee        pop   y
e0f8: 02 f0     set0  $f0
e0fa: 14 dd     or    a,$dd+x
e0fc: e2 dc     set7  $dc
e0fe: df        daa   a
e0ff: b2 3e     clr5  $3e
e101: fc        inc   y
e102: 65 4c 0e  cmp   a,$0e4c
e105: fc        inc   y
e106: dd        mov   a,y
e107: 00        nop
e108: b6 ff 25  sbc   a,$25ff+y
e10b: c1        tcall 12
e10c: a6        sbc   a,(x)
e10d: a2 91     set5  $91
e10f: 44 be     eor   a,$be
e111: b6 12 2e  sbc   a,$2e12+y
e114: f4 10     mov   a,$10+x
e116: eb 32     mov   y,$32
e118: 1d        dec   x
e119: 2e c2 0e  cbne  $c2,$e129
e11c: cb 01     mov   $01,y
e11e: 0e 00 11  tset1 $1100
e121: 21        tcall 2
e122: 13 c2 db  bbc0  $c2,$e0ff
e125: c0        di
e126: f0 f0     beq   $e118
e128: ef        sleep
e129: ee        pop   y
e12a: 05 3e c6  or    a,$c63e
e12d: 01        tcall 0
e12e: f0 11     beq   $e141
e130: 0f        brk
e131: ed        notc
e132: 14 2d     or    a,$2d+x
e134: 21        tcall 2
e135: b2 2c     clr5  $2c
e137: ac 16 4d  inc   $4d16
e13a: ad 0b     cmp   y,#$0b
e13c: e0        clrv
e13d: 31        tcall 3
e13e: b2 ec     clr5  $ec
e140: d3 52 12  bbc6  $52,$e154
e143: 0f        brk
e144: be        das   a
e145: e5 2e b6  mov   a,$b62e
e148: a3 31 30  bbs5  $31,$e17a
e14b: 2c ec 04  rol   $04ec
e14e: 7a df     addw  ya,$df
e150: b2 0c     clr5  $0c
e152: ab 25     inc   $25
e154: 1e ae 3e  cmp   x,$3eae
e157: be        das   a
e158: 11        tcall 1
e159: b6 af 06  sbc   a,$06af+y
e15c: ed        notc
e15d: d1        tcall 13
e15e: 50 a2     bvc   $e102
e160: 53 1d b2  bbc2  $1d,$e114
e163: f1        tcall 15
e164: 3e dd     cmp   x,$dd
e166: ff        stop
e167: cc f0 1e  mov   $1ef0,y
e16a: cd b2     mov   x,#$b2
e16c: 30 fd     bmi   $e16b
e16e: e5 3d cd  mov   a,$cd3d
e171: 2c cb 00  rol   $00cb
e174: b2 bc     clr5  $bc
e176: c3 52 cf  bbs6  $52,$e147
e179: 20        clrp
e17a: ab c2     inc   $c2
e17c: cc b2 9b  mov   $9bb2,y
e17f: 1d        dec   x
e180: cc 34 0e  mov   $0e34,y
e183: 34 41     and   a,$41+x
e185: fd        mov   y,a
e186: b6 4d bf  sbc   a,$bf4d+y
e189: 45 d0 04  eor   a,$04d0
e18c: 1e df 40  cmp   x,$40df
e18f: b6 db 62  sbc   a,$62db+y
e192: 1a 2f     decw  $2f
e194: 5e eb 55  cmp   y,$55eb
e197: 0e b2 37  tset1 $37b2
e19a: 52 d1     clr2  $d1
e19c: 13 cc c1  bbc0  $cc,$e15f
e19f: ba b1     movw  ya,$b1
e1a1: b2 52     clr5  $52
e1a3: 0e 21 3f  tset1 $3f21
e1a6: 23 2c cb  bbs1  $2c,$e173
e1a9: 11        tcall 1
e1aa: b2 fe     clr5  $fe
e1ac: f0 ee     beq   $e19c
e1ae: e3 20 fc  bbs7  $20,$e1ac
e1b1: ce        pop   x
e1b2: db b6     mov   $b6+x,y
e1b4: 11        tcall 1
e1b5: 0e e2 40  tset1 $40e2
e1b8: f0 32     beq   $e1ec
e1ba: 90 24     bcc   $e1e0
e1bc: b6 ff b0  sbc   a,$b0ff+y
e1bf: 10 e0     bpl   $e1a1
e1c1: 41        tcall 4
e1c2: bd        mov   sp,x
e1c3: 43 11 b6  bbs2  $11,$e17b
e1c6: f0 f0     beq   $e1b8
e1c8: 0c 32 fa  asl   $fa32
e1cb: 0e 21 22  tset1 $2221
e1ce: b2 33     clr5  $33
e1d0: 31        tcall 3
e1d1: 06        or    a,(x)
e1d2: 52 3d     clr2  $3d
e1d4: db 0e     mov   $0e+x,y
e1d6: 31        tcall 3
e1d7: b2 5b     clr5  $5b
e1d9: ac 20 42  inc   $4220
e1dc: 20        clrp
e1dd: ed        notc
e1de: a2 32     set5  $32
e1e0: b2 9f     clr5  $9f
e1e2: aa a3 36  mov1  c,$06d4,3
e1e5: 1e c0 20  cmp   x,$20c0
e1e8: f1        tcall 15
e1e9: c6        mov   (x),a
e1ea: ec 02 22  mov   y,$2202
e1ed: 1e ff 2e  cmp   x,$2eff
e1f0: 03 2d b6  bbs0  $2d,$e1a8
e1f3: d0 00     bne   $e1f5
e1f5: 32 ef     clr1  $ef
e1f7: ee        pop   y
e1f8: c5 43 e2  mov   $e243,a
e1fb: b6 de f3  sbc   a,$f3de+y
e1fe: 00        nop
e1ff: 1c        asl   a
e200: dd        mov   a,y
e201: 5f 40 2d  jmp   $2d40
e204: b2 ec     clr5  $ec
e206: df        daa   a
e207: 42 ee     set2  $ee
e209: 00        nop
e20a: f1        tcall 15
e20b: 01        tcall 0
e20c: cc b6 d2  mov   $d2b6,y
e20f: 21        tcall 2
e210: d4 e2     mov   $e2+x,a
e212: e2 12     set7  $12
e214: cd ed     mov   x,#$ed
e216: b6 30 20  sbc   a,$2030+y
e219: 10 fd     bpl   $e218
e21b: 33 0d 0e  bbc1  $0d,$e22b
e21e: e1        tcall 14
e21f: b6 4f 1f  sbc   a,$1f4f+y
e222: ec f4 e1  mov   y,$e1f4
e225: e0        clrv
e226: e2 33     set7  $33
e228: b6 f7 da  sbc   a,$daf7+y
e22b: b4 ff     sbc   a,$ff+x
e22d: 13 09 10  bbc0  $09,$e23f
e230: 54 b6     eor   a,$b6+x
e232: 49 fe 0b  eor   ($0b),($fe)
e235: 62 4b     set3  $4b
e237: 0e c3 f2  tset1 $f2c3
e23a: ba d4     movw  ya,$d4
e23c: a1        tcall 10
e23d: 25 c0 1d  and   a,$1dc0
e240: c4 f2     mov   $f2,a
e242: 02 a6     set0  $a6
e244: f1        tcall 15
e245: 13 f4 3f  bbc0  $f4,$e286
e248: bd        mov   sp,x
e249: 3f 01 00  call  $0001
e24c: a2 30     set5  $30
e24e: d0 ea     bne   $e23a
e250: ab ea     inc   $ea
e252: 15 2f 24  or    a,$242f+x
e255: b2 f2     clr5  $f2
e257: 11        tcall 1
e258: cc dd cf  mov   $cfdd,y
e25b: ef        sleep
e25c: e1        tcall 14
e25d: f0 b6     beq   $e215
e25f: 0f        brk
e260: c1        tcall 12
e261: 1d        dec   x
e262: 04 d0     or    a,$d0
e264: 03 cf 22  bbs0  $cf,$e288
e267: b6 b1 11  sbc   a,$11b1+y
e26a: e4 f1     mov   a,$f1
e26c: 0e cf 3e  tset1 $3ecf
e26f: c1        tcall 12
e270: b6 10 02  sbc   a,$0210+y
e273: 30 0f     bmi   $e284
e275: 0d        push  psw
e276: ee        pop   y
e277: f4 2d     mov   a,$2d+x
e279: b6 20 0b  sbc   a,$0b20+y
e27c: 3f e0 30  call  $30e0
e27f: 20        clrp
e280: 1f 10 b6  jmp   ($b610+x)
e283: ef        sleep
e284: 01        tcall 0
e285: a2 20     set5  $20
e287: f5 2f a1  mov   a,$a12f+x
e28a: f4 b2     mov   a,$b2+x
e28c: 30 ef     bmi   $e27d
e28e: 4e d0 64  tclr1 $64d0
e291: ed        notc
e292: e0        clrv
e293: 3f b6 f3  call  $f3b6
e296: 7b c2     ror   $c2+x
e298: 5f af 2f  jmp   $2faf
e29b: 0f        brk
e29c: 32 b6     clr1  $b6
e29e: 2e e1 01  cbne  $e1,$e2a1
e2a1: f5 fc e0  mov   a,$e0fc+x
e2a4: f0 43     beq   $e2e9
e2a6: b6 be 01  sbc   a,$01be+y
e2a9: e0        clrv
e2aa: 45 bf 01  eor   a,$01bf
e2ad: 4c f1 c6  lsr   $c6f1
e2b0: 4f ce     pcall $ce
e2b2: 33 df 12  bbc1  $df,$e2c6
e2b5: 1d        dec   x
e2b6: f0 32     beq   $e2ea
e2b8: b6 bd 02  sbc   a,$02bd+y
e2bb: dc        dec   y
e2bc: 15 3b c1  or    a,$c13b+x
e2bf: 5e a4 b6  cmp   y,$b6a4
e2c2: 33 bc 22  bbc1  $bc,$e2e6
e2c5: 3a 2f     incw  $2f
e2c7: 2c a3 41  rol   $41a3
e2ca: b6 1e 11  sbc   a,$111e+y
e2cd: 0b e3     asl   $e3
e2cf: 5e af 24  cmp   y,$24af
e2d2: df        daa   a
e2d3: b6 04 ed  sbc   a,$ed04+y
e2d6: c3 60 d2  bbs6  $60,$e2aa
e2d9: 00        nop
e2da: dd        mov   a,y
e2db: 22 b2     set1  $b2
e2dd: 2e aa 0d  cbne  $aa,$e2ec
e2e0: de 24 ed  cbne  $24+x,$e2cf
e2e3: ff        stop
e2e4: 10 b2     bpl   $e298
e2e6: ff        stop
e2e7: 33 eb d4  bbc1  $eb,$e2bd
e2ea: 02 00     set0  $00
e2ec: 1f e0 b2  jmp   ($b2e0+x)
e2ef: 47 0c     eor   a,($0c+x)
e2f1: e1        tcall 14
e2f2: de f2 5f  cbne  $f2+x,$e353
e2f5: dc        dec   y
e2f6: 02 b6     set0  $b6
e2f8: ee        pop   y
e2f9: 41        tcall 4
e2fa: cc 25 1d  mov   $1d25,y
e2fd: fe 20     dbnz  y,$e31f
e2ff: c3 b2 34  bbs6  $b2,$e335
e302: 0c d2 ed  asl   $edd2
e305: f1        tcall 15
e306: 21        tcall 2
e307: dd        mov   a,y
e308: e1        tcall 14
e309: b6 1c 05  sbc   a,$051c+y
e30c: dd        mov   a,y
e30d: d2 3f     clr6  $3f
e30f: 1f 13 db  jmp   ($db13+x)
e312: b6 24 1c  sbc   a,$1c24+y
e315: c3 2c 10  bbs6  $2c,$e327
e318: 51        tcall 5
e319: cc 03 ba  mov   $ba03,y
e31c: de 33 bd  cbne  $33+x,$e2db
e31f: 22 4d     set1  $4d
e321: c2 f3     set6  $f3
e323: cf        mul   ya
e324: b2 b2     clr5  $b2
e326: 31        tcall 3
e327: bd        mov   sp,x
e328: 0f        brk
e329: ce        pop   x
e32a: 12 fd     clr0  $fd
e32c: df        daa   a
e32d: b6 3f d1  sbc   a,$d13f+y
e330: 1c        asl   a
e331: f0 33     beq   $e366
e333: fd        mov   y,a
e334: 0e 20 b6  tset1 $b620
e337: d3 4e ae  bbc6  $4e,$e2e7
e33a: 61        tcall 6
e33b: 0e 02 fc  tset1 $fc02
e33e: f3 b2 f1  bbc7  $b2,$e331
e341: dd        mov   a,y
e342: 22 ed     set1  $ed
e344: e2 21     set7  $21
e346: ff        stop
e347: 22 b2     set1  $b2
e349: de 02 1e  cbne  $02+x,$e369
e34c: f3 fc ce  bbc7  $fc,$e31c
e34f: 20        clrp
e350: ee        pop   y
e351: b2 00     clr5  $00
e353: ee        pop   y
e354: 14 2e     or    a,$2e+x
e356: d0 0e     bne   $e366
e358: 0f        brk
e359: 00        nop
e35a: b6 e0 43  sbc   a,$43e0+y
e35d: 1c        asl   a
e35e: d2 0e     clr6  $0e
e360: 03 2f de  bbs0  $2f,$e340
e363: b2 d0     clr5  $d0
e365: 1e f2 fc  cmp   x,$fcf2
e368: c1        tcall 12
e369: 31        tcall 3
e36a: ff        stop
e36b: fd        mov   y,a
e36c: b6 f2 31  sbc   a,$31f2+y
e36f: fe d3     dbnz  y,$e344
e371: 1f 1f 0e  jmp   ($0e1f+x)
e374: f0 a2     beq   $e318
e376: f3 41 c1  bbc7  $41,$e339
e379: 2d        push  a
e37a: aa 0c ab  mov1  c,$1561,4
e37d: e4 a6     mov   a,$a6
e37f: fd        mov   y,a
e380: 00        nop
e381: de e0 5e  cbne  $e0+x,$e3e1
e384: 12 0e     clr0  $0e
e386: f1        tcall 15
e387: a6        sbc   a,(x)
e388: c1        tcall 12
e389: 1c        asl   a
e38a: 43 0f f2  bbs2  $0f,$e37e
e38d: 60        clrc
e38e: c0        di
e38f: eb a6     mov   y,$a6
e391: dd        mov   a,y
e392: 46        eor   a,(x)
e393: 3f 01 bf  call  $bf01
e396: 12 3d     clr0  $3d
e398: ad a6     cmp   y,#$a6
e39a: 22 60     set1  $60
e39c: 13 9b c0  bbc0  $9b,$e35e
e39f: 50 3f     bvc   $e3e0
e3a1: 2e a6 e1  cbne  $a6,$e384
e3a4: 34 af     and   a,$af+x
e3a6: ce        pop   x
e3a7: 11        tcall 1
e3a8: 43 1b d3  bbs2  $1b,$e37d
e3ab: a6        sbc   a,(x)
e3ac: 01        tcall 0
e3ad: e1        tcall 14
e3ae: 0c f5 11  asl   $11f5
e3b1: 20        clrp
e3b2: c0        di
e3b3: 1f a6 df  jmp   ($dfa6+x)
e3b6: d2 00     clr6  $00
e3b8: 41        tcall 4
e3b9: 3e a0     cmp   x,$a0
e3bb: 12 c0     clr0  $c0
e3bd: b6 2e e1  sbc   a,$e12e+y
e3c0: 31        tcall 3
e3c1: 00        nop
e3c2: ff        stop
e3c3: ef        sleep
e3c4: f4 2e     mov   a,$2e+x
e3c6: a6        sbc   a,(x)
e3c7: fd        mov   y,a
e3c8: 45 0f ce  eor   a,$ce0f
e3cb: de 14 3e  cbne  $14+x,$e40b
e3ce: ff        stop
e3cf: aa 1f 11  mov1  c,$0223,7
e3d2: ef        sleep
e3d3: d4 00     mov   $00+x,a
e3d5: 31        tcall 3
e3d6: ee        pop   y
e3d7: ed        notc
e3d8: a6        sbc   a,(x)
e3d9: 0e f3 2d  tset1 $2df3
e3dc: 02 10     set0  $10
e3de: 22 fc     set1  $fc
e3e0: bf        mov   a,(x)+
e3e1: a6        sbc   a,(x)
e3e2: 22 d4     set1  $d4
e3e4: 3f 01 5c  call  $5c01
e3e7: cf        mul   ya
e3e8: cf        mul   ya
e3e9: 01        tcall 0
e3ea: aa f0 20  mov1  c,$041e,0
e3ed: 1e de 30  cmp   x,$30de
e3f0: 2e 14 ec  cbne  $14,$e3de
e3f3: 9a 3e     subw  ya,$3e
e3f5: 14 fb     or    a,$fb+x
e3f7: f3 10 20  bbc7  $10,$e419
e3fa: 20        clrp
e3fb: f3 96 ea  bbc7  $96,$e3e7
e3fe: eb f3     mov   y,$f3
e400: fa 12 36  mov   ($36),($12)
e403: 22 0e     set1  $0e
e405: a6        sbc   a,(x)
e406: dc        dec   y
e407: e4 1e     mov   a,$1e
e409: 12 d1     clr0  $d1
e40b: 20        clrp
e40c: ff        stop
e40d: fe a6     dbnz  y,$e3b5
e40f: ee        pop   y
e410: 22 13     set1  $13
e412: fe 1f     dbnz  y,$e433
e414: c1        tcall 12
e415: 32 cb     clr1  $cb
e417: b6 03 0f  sbc   a,$0f03+y
e41a: 12 2d     clr0  $2d
e41c: cf        mul   ya
e41d: 30 ef     bmi   $e40e
e41f: 23 b6 ed  bbs1  $b6,$e40e
e422: 14 0e     or    a,$0e+x
e424: f0 0e     beq   $e434
e426: f2 31     clr7  $31
e428: ef        sleep
e429: b2 02     clr5  $02
e42b: ff        stop
e42c: 15 2f ef  or    a,$ef2f+x
e42f: 1e e1 31  cmp   x,$31e1
e432: b2 dc     clr5  $dc
e434: df        daa   a
e435: ed        notc
e436: f3 1c d0  bbc7  $1c,$e408
e439: 30 ef     bmi   $e42a
e43b: b2 00     clr5  $00
e43d: bc        inc   a
e43e: 15 3d d1  or    a,$d13d+x
e441: 1d        dec   x
e442: e1        tcall 14
e443: 40        setp
e444: b6 df 41  sbc   a,$41df+y
e447: e1        tcall 14
e448: 12 da     clr0  $da
e44a: 13 2f 02  bbc0  $2f,$e44e
e44d: b2 1d     clr5  $1d
e44f: dd        mov   a,y
e450: 24 fe     and   a,$fe
e452: de ed 13  cbne  $ed+x,$e467
e455: 3e b6     cmp   x,$b6
e457: d0 3e     bne   $e497
e459: 20        clrp
e45a: 2f d0     bra   $e42c
e45c: 04 00     or    a,$00
e45e: 0f        brk
e45f: b6 0c e3  sbc   a,$e30c+y
e462: 22 0d     set1  $0d
e464: 2f e1     bra   $e447
e466: 15 de a2  or    a,$a2de+x
e469: cc 1a d3  mov   $d31a,y
e46c: 30 b9     bmi   $e427
e46e: e0        clrv
e46f: f1        tcall 15
e470: 06        or    a,(x)
e471: b2 fd     clr5  $fd
e473: cf        mul   ya
e474: 40        setp
e475: ff        stop
e476: 0f        brk
e477: bc        inc   a
e478: 14 2f     or    a,$2f+x
e47a: b2 ef     clr5  $ef
e47c: dd        mov   a,y
e47d: d2 3e     clr6  $3e
e47f: ed        notc
e480: fe ce     dbnz  y,$e450
e482: f0 b2     beq   $e436
e484: ec ef f0  mov   y,$f0ef
e487: f3 2e ce  bbc7  $2e,$e457
e48a: 20        clrp
e48b: f0 b2     beq   $e43f
e48d: fe bc     dbnz  y,$e44b
e48f: f2 20     clr7  $20
e491: d0 fe     bne   $e491
e493: e1        tcall 14
e494: 4f b2     pcall $b2
e496: dc        dec   y
e497: e0        clrv
e498: cd 03     mov   x,#$03
e49a: 1c        asl   a
e49b: c1        tcall 12
e49c: 11        tcall 1
e49d: f2 b6     clr7  $b6
e49f: 1c        asl   a
e4a0: f0 12     beq   $e4b4
e4a2: b0 02     bcs   $e4a6
e4a4: ee        pop   y
e4a5: 25 fe b6  and   a,$b6fe
e4a8: e3 2f ef  bbs7  $2f,$e499
e4ab: 40        setp
e4ac: ed        notc
e4ad: f3 df 24  bbc7  $df,$e4d3
e4b0: b2 3f     clr5  $3f
e4b2: e0        clrv
e4b3: 01        tcall 0
e4b4: 11        tcall 1
e4b5: 31        tcall 3
e4b6: ec e3 0f  mov   y,$0fe3
e4b9: b2 f0     clr5  $f0
e4bb: fd        mov   y,a
e4bc: e0        clrv
e4bd: 23 ee f0  bbs1  $ee,$e4af
e4c0: ff        stop
e4c1: 24 b2     and   a,$b2
e4c3: dc        dec   y
e4c4: b0 01     bcs   $e4c7
e4c6: 0f        brk
e4c7: 0f        brk
e4c8: be        das   a
e4c9: 26        and   a,(x)
e4ca: 1f b2 12  jmp   ($12b2+x)
e4cd: ef        sleep
e4ce: 03 ee ce  bbs0  $ee,$e49e
e4d1: 0e e0 23  tset1 $23e0
e4d4: b2 f1     clr5  $f1
e4d6: 22 0f     set1  $0f
e4d8: f1        tcall 15
e4d9: ef        sleep
e4da: ce        pop   x
e4db: 1f ee b2  jmp   ($b2ee+x)
e4de: 34 ff     and   a,$ff+x
e4e0: 02 fe     set0  $fe
e4e2: 02 0e     set0  $0e
e4e4: c0        di
e4e5: 00        nop
e4e6: a6        sbc   a,(x)
e4e7: de 1e e5  cbne  $1e+x,$e4ce
e4ea: 36 af 0f  and   a,$0faf+y
e4ed: 01        tcall 0
e4ee: 11        tcall 1
e4ef: b6 b0 e2  sbc   a,$e2b0+y
e4f2: 20        clrp
e4f3: 1e 10 d2  cmp   x,$d210
e4f6: 31        tcall 3
e4f7: fe b2     dbnz  y,$e4ab
e4f9: 0f        brk
e4fa: ef        sleep
e4fb: e0        clrv
e4fc: fc        inc   y
e4fd: ba 01     movw  ya,$01
e4ff: 00        nop
e500: 00        nop
e501: b6 f5 5e  sbc   a,$5ef5+y
e504: de d2 12  cbne  $d2+x,$e518
e507: ef        sleep
e508: 00        nop
e509: dd        mov   a,y
e50a: b6 45 02  sbc   a,$0245+y
e50d: ed        notc
e50e: d0 65     bne   $e575
e510: dc        dec   y
e511: c1        tcall 12
e512: 21        tcall 2
e513: b2 00     clr5  $00
e515: 21        tcall 2
e516: 00        nop
e517: df        daa   a
e518: 14 5f     or    a,$5f+x
e51a: cc d2 b6  mov   $b6d2,y
e51d: 1f ce 31  jmp   ($31ce+x)
e520: ee        pop   y
e521: 12 22     clr0  $22
e523: fe 0f     dbnz  y,$e534
e525: b6 20 de  sbc   a,$de20+y
e528: e3 3f d0  bbs7  $3f,$e4fa
e52b: 21        tcall 2
e52c: 10 df     bpl   $e50d
e52e: b6 f5 2d  sbc   a,$2df5+y
e531: fd        mov   y,a
e532: e4 1f     mov   a,$1f
e534: e0        clrv
e535: 3f ce b6  call  $b6ce
e538: 24 41     and   a,$41
e53a: cc e0 52  mov   $52e0,y
e53d: fe b3     dbnz  y,$e4f2
e53f: 3e b6     cmp   x,$b6
e541: e1        tcall 14
e542: 31        tcall 3
e543: ee        pop   y
e544: e0        clrv
e545: 23 ed f1  bbs1  $ed,$e538
e548: 34 b6     and   a,$b6+x
e54a: ec c1 41  mov   y,$41c1
e54d: ee        pop   y
e54e: 02 20     set0  $20
e550: df        daa   a
e551: 12 b6     clr0  $b6
e553: 1f de f4  jmp   ($f4de+x)
e556: 2d        push  a
e557: e1        tcall 14
e558: 33 fb ce  bbc1  $fb,$e528
e55b: ba 42     movw  ya,$42
e55d: de ff 5f  cbne  $ff+x,$e5be
e560: c0        di
e561: 22 0d     set1  $0d
e563: f0 ba     beq   $e51f
e565: 22 1c     set1  $1c
e567: f1        tcall 15
e568: 00        nop
e569: 1e e2 25  cmp   x,$25e2
e56c: cc a6 b0  mov   $b0a6,y
e56f: 20        clrp
e570: dc        dec   y
e571: 01        tcall 0
e572: 44 ee     eor   a,$ee
e574: c1        tcall 12
e575: 53 a6 ac  bbc2  $a6,$e523
e578: ff        stop
e579: 1f de 36  jmp   ($36de+x)
e57c: 5e ee b0  cmp   y,$b0ee
e57f: b6 fe f2  sbc   a,$f2fe+y
e582: 43 fe d1  bbs2  $fe,$e555
e585: 32 ec     clr1  $ec
e587: f0 a6     beq   $e52f
e589: f1        tcall 15
e58a: 1f 24 20  jmp   ($2024+x)
e58d: cd c2     mov   x,#$c2
e58f: 4e f4 ba  tclr1 $baf4
e592: 00        nop
e593: fc        inc   y
e594: 0f        brk
e595: 34 ee     and   a,$ee+x
e597: 11        tcall 1
e598: 0f        brk
e599: e1        tcall 14
e59a: b2 f0     clr5  $f0
e59c: 22 0d     set1  $0d
e59e: cb ce     mov   $ce,y
e5a0: ff        stop
e5a1: 01        tcall 0
e5a2: 2e ba f5  cbne  $ba,$e599
e5a5: 3f e0 ff  call  $ffe0
e5a8: c4 31     mov   $31,a
e5aa: dd        mov   a,y
e5ab: 32 b6     clr1  $b6
e5ad: 1c        asl   a
e5ae: e1        tcall 14
e5af: 41        tcall 4
e5b0: f1        tcall 15
e5b1: 1f f0 0f  jmp   ($0ff0+x)
e5b4: d0 b6     bne   $e56c
e5b6: 22 de     set1  $de
e5b8: 12 00     clr0  $00
e5ba: 10 21     bpl   $e5dd
e5bc: 0b c0     asl   $c0
e5be: b6 12 23  sbc   a,$2312+y
e5c1: ec c2 ff  mov   y,$ffc2
e5c4: 15 4e d0  or    a,$d04e+x
e5c7: ba 1c     movw  ya,$1c
e5c9: 05 2c b2  or    a,$b22c
e5cc: 40        setp
e5cd: a1        tcall 10
e5ce: 64 ba     cmp   a,$ba
e5d0: b6 f1 3e  sbc   a,$3ef1+y
e5d3: 00        nop
e5d4: 1d        dec   x
e5d5: e1        tcall 14
e5d6: 1e d0 43  cmp   x,$43d0
e5d9: a7 df     sbc   a,($df+x)
e5db: e5 cc f1  mov   a,$f1cc
e5de: 4f 22     pcall $22
e5e0: 1d        dec   x
e5e1: ab 00     inc   $00
e5e3: 00        nop
e5e4: 00        nop
e5e5: 00        nop
e5e6: 00        nop
e5e7: 00        nop
e5e8: 00        nop
e5e9: 00        nop
e5ea: 00        nop
e5eb: 90 14     bcc   $e601
e5ed: 2c e2 22  rol   $22e2
e5f0: ec 15 3b  mov   y,$3b15
e5f3: c2 90     set6  $90
e5f5: 23 fb 05  bbs1  $fb,$e5fc
e5f8: 5d        mov   x,a
e5f9: a1        tcall 10
e5fa: 22 0a     set1  $0a
e5fc: d3 a0 31  bbc6  $a0,$e62f
e5ff: d0 31     bne   $e632
e601: 0e d0 22  tset1 $22d0
e604: ed        notc
e605: 22 90     set1  $90
e607: f1        tcall 15
e608: ee        pop   y
e609: 43 1c d3  bbs2  $1c,$e5de
e60c: 33 fa 24  bbc1  $fa,$e632
e60f: 90 12     bcc   $e623
e611: dd        mov   a,y
e612: 22 3c     set1  $3c
e614: b5 2f 1d  sbc   a,$1d2f+x
e617: e2 a0     set7  $a0
e619: 21        tcall 2
e61a: c0        di
e61b: 3e 12     cmp   x,$12
e61d: be        das   a
e61e: 52 cf     clr2  $cf
e620: 3f a0 14  call  $14a0
e623: cc 41 f2  mov   $f241,y
e626: dc        dec   y
e627: 26        and   a,(x)
e628: 2c 22 b0  rol   $b022
e62b: e2 2b     set7  $2b
e62d: 05 fe 30  or    a,$30fe
e630: d3 1c 13  bbc6  $1c,$e645
e633: b0 e1     bcs   $e616
e635: 2d        push  a
e636: f3 11 20  bbc7  $11,$e658
e639: e1        tcall 14
e63a: 5e a4 b0  cmp   y,$b0a4
e63d: 2c 22 c3  rol   $c322
e640: 3b f3     rol   $f3+x
e642: d1        tcall 13
e643: 4c e4 b0  lsr   $b0e4
e646: f0 3d     beq   $e685
e648: d2 10     clr6  $10
e64a: 0f        brk
e64b: ef        sleep
e64c: 40        setp
e64d: a3 b0 4c  bbs5  $b0,$e69b
e650: 13 d2 4c  bbc0  $d2,$e69e
e653: f3 d0 2b  bbc7  $d0,$e680
e656: f4 b0     mov   a,$b0+x
e658: e0        clrv
e659: 3c        rol   a
e65a: d2 00     clr6  $00
e65c: 0e f1 4f  tset1 $4ff1
e65f: b4 b0     sbc   a,$b0+x
e661: 3c        rol   a
e662: 01        tcall 0
e663: e3 1d 23  bbs7  $1d,$e688
e666: c0        di
e667: 5f c0 b0  jmp   $b0c0
e66a: 24 1c     and   a,$1c
e66c: 14 dd     or    a,$dd+x
e66e: 22 fd     set1  $fd
e670: 16 0a b0  or    a,$b00a+y
e673: f4 3c     mov   a,$3c+x
e675: c3 4f d1  bbs6  $4f,$e648
e678: 51        tcall 5
e679: c1        tcall 12
e67a: 42 b0     set2  $b0
e67c: dc        dec   y
e67d: 24 fd     and   a,$fd
e67f: f2 4f     clr7  $4f
e681: cf        mul   ya
e682: 22 fe     set1  $fe
e684: a4 33     sbc   a,$33
e686: 2c a6 5d  rol   $5da6
e689: dd        mov   a,y
e68a: 15 2d a2  or    a,$a22d+x
e68d: a0        ei
e68e: 44 1b     eor   a,$1b
e690: a2 63     set5  $63
e692: cc 24 3d  mov   $3d24,y
e695: b1        tcall 11
e696: b0 22     bcs   $e6ba
e698: ec 03 2e  mov   y,$2e03
e69b: e2 33     set7  $33
e69d: 0d        push  psw
e69e: 03 b0 2d  bbs0  $b0,$e6cd
e6a1: d1        tcall 13
e6a2: 22 fb     set1  $fb
e6a4: f3 2c c1  bbc7  $2c,$e667
e6a7: 22 b0     set1  $b0
e6a9: fb f3     mov   y,$f3+x
e6ab: 3d        inc   x
e6ac: c1        tcall 12
e6ad: 22 1d     set1  $1d
e6af: f3 40 b0  bbc7  $40,$e661
e6b2: c0        di
e6b3: 21        tcall 2
e6b4: 1d        dec   x
e6b5: d1        tcall 13
e6b6: 32 cd     clr1  $cd
e6b8: 21        tcall 2
e6b9: 0f        brk
e6ba: b0 df     bcs   $e69b
e6bc: 12 fb     clr0  $fb
e6be: 03 00 fd  bbs0  $00,$e6bd
e6c1: 01        tcall 0
e6c2: 1f a0 b1  jmp   ($b1a0+x)
e6c5: 33 1a f4  bbc1  $1a,$e6bb
e6c8: 02 fc     set0  $fc
e6ca: 12 3f     clr0  $3f
e6cc: b0 c1     bcs   $e68f
e6ce: 20        clrp
e6cf: 1f e0 23  jmp   ($23e0+x)
e6d2: ee        pop   y
e6d3: 3f f3 b0  call  $b0f3
e6d6: dc        dec   y
e6d7: 44 ed     eor   a,$ed
e6d9: 2f f4     bra   $e6cf
e6db: fa 12 f3  mov   ($f3),($12)
e6de: c0        di
e6df: 0e 02 1e  tset1 $1e02
e6e2: 02 f1     set0  $f1
e6e4: 3c        rol   a
e6e5: d4 0c     mov   $0c+x,a
e6e7: b0 23     bcs   $e70c
e6e9: a3 6a d6  bbs5  $6a,$e6c1
e6ec: f0 5c     beq   $e74a
e6ee: b4 30     sbc   a,$30+x
e6f0: c0        di
e6f1: 10 ef     bpl   $e6e2
e6f3: 42 c2     set2  $c2
e6f5: 4d        push  x
e6f6: 03 d0 4e  bbs0  $d0,$e746
e6f9: c0        di
e6fa: e3 ff 4e  bbs7  $ff,$e74a
e6fd: c2 0f     set6  $0f
e6ff: 3f c1 20  call  $20c1
e702: c0        di
e703: fe ef     dbnz  y,$e6f4
e705: 32 b0     clr1  $b0
e707: 5e f3 ef  cmp   y,$eff3
e70a: 4e c0 d2  tclr1 $d2c0
e70d: ff        stop
e70e: 3d        inc   x
e70f: c2 fe     set6  $fe
e711: 3f d2 10  call  $10d2
e714: c0        di
e715: 10 ff     bpl   $e716
e717: 22 c0     set1  $c0
e719: 3d        inc   x
e71a: 02 c0     set0  $c0
e71c: 4e b0 c5  tclr1 $c5b0
e71f: ed        notc
e720: 6f        ret
e721: c3 0f 5e  bbs6  $0f,$e781
e724: d3 00 b0  bbc6  $00,$e6d6
e727: 4d        push  x
e728: e2 02     set7  $02
e72a: 0c 01 22  asl   $2201
e72d: de 02 b0  cbne  $02+x,$e6df
e730: 2c f3 01  rol   $01f3
e733: 0e 1e 14  tset1 $141e
e736: d0 2e     bne   $e766
e738: b0 21     bcs   $e75b
e73a: d0 43     bne   $e77f
e73c: d0 3d     bne   $e77b
e73e: 05 be 6f  or    a,$6fbe
e741: b0 d3     bcs   $e716
e743: 1d        dec   x
e744: 35 fd 40  and   a,$40fd+x
e747: e4 0b     mov   a,$0b
e749: 03 c0 00  bbs0  $c0,$e74b
e74c: 01        tcall 0
e74d: f0 3e     beq   $e78d
e74f: d3 0d 41  bbc6  $0d,$e792
e752: c3 c0 4d  bbs6  $c0,$e7a1
e755: f3 e0 4e  bbc7  $e0,$e7a5
e758: c3 2f 2f  bbs6  $2f,$e789
e75b: cf        mul   ya
e75c: c0        di
e75d: 21        tcall 2
e75e: ff        stop
e75f: 1e 15 de  cmp   x,$de15
e762: 6e c4 fd  dbnz  $c4,$e761
e765: c0        di
e766: 61        tcall 6
e767: b3 2d 42  bbc5  $2d,$e7ab
e76a: b1        tcall 11
e76b: 2d        push  a
e76c: 22 cf     set1  $cf
e76e: c0        di
e76f: 2f 0f     bra   $e780
e771: ee        pop   y
e772: f5 fc 50  mov   a,$50fc+x
e775: b4 0b     sbc   a,$0b+x
e777: c0        di
e778: 52 b3     clr2  $b3
e77a: 3b 33     rol   $33+x
e77c: a1        tcall 10
e77d: 4d        push  x
e77e: 22 b0     set1  $b0
e780: c0        di
e781: 4e 12 de  tclr1 $de12
e784: 11        tcall 1
e785: 1e 11 d4  cmp   x,$d411
e788: 1a c0     decw  $c0
e78a: 43 b2 3c  bbs2  $b2,$e7c8
e78d: 35 cf 5e  and   a,$5ecf+x
e790: f4 de     mov   a,$de+x
e792: c0        di
e793: 50 f4     bvc   $e789
e795: ee        pop   y
e796: 40        setp
e797: f3 ee 20  bbc7  $ee,$e7b9
e79a: 01        tcall 0
e79b: b0 ae     bcs   $e74b
e79d: 00        nop
e79e: 2d        push  a
e79f: f1        tcall 15
e7a0: d4 0a     mov   $0a+x,a
e7a2: 40        setp
e7a3: e4 b0     mov   a,$b0
e7a5: e0        clrv
e7a6: 2d        push  a
e7a7: 51        tcall 5
e7a8: b5 0d 4d  sbc   a,$4d0d+x
e7ab: d6 ff b0  mov   $b0ff+y,a
e7ae: 4d        push  x
e7af: f5 0e 00  mov   a,$000e+x
e7b2: 10 f1     bpl   $e7a5
e7b4: f0 1e     beq   $e7d4
e7b6: a0        ei
e7b7: 21        tcall 2
e7b8: c5 0d 7e  mov   $7e0d,a
e7bb: d5 c1 4c  mov   $4cc1+x,a
e7be: 31        tcall 3
e7bf: b0 f3     bcs   $e7b4
e7c1: 01        tcall 0
e7c2: 1d        dec   x
e7c3: 20        clrp
e7c4: d3 fd 40  bbc6  $fd,$e806
e7c7: d2 b0     clr6  $b0
e7c9: 1f f3 1d  jmp   ($1df3+x)
e7cc: 32 c3     clr1  $c3
e7ce: 1b 14     asl   $14+x
e7d0: 0e b0 21  tset1 $21b0
e7d3: f3 2a 15  bbc7  $2a,$e7ea
e7d6: ef        sleep
e7d7: 3e d4     cmp   x,$d4
e7d9: 4b b0     lsr   $b0
e7db: d5 ef 6e  mov   $6eef+x,a
e7de: a4 2d     sbc   a,$2d
e7e0: 2f bf     bra   $e7a1
e7e2: 32 c0     clr1  $c0
e7e4: ff        stop
e7e5: 2f f4     bra   $e7db
e7e7: ec 51 c2  mov   y,$c251
e7ea: 1b 14     asl   $14+x
e7ec: c0        di
e7ed: de 4f e4  cbne  $4f+x,$e7d3
e7f0: 0d        push  psw
e7f1: 32 e1     clr1  $e1
e7f3: 0e 03 c0  tset1 $c003
e7f6: 2f e2     bra   $e7da
e7f8: e0        clrv
e7f9: 6d        push  y
e7fa: d7 0c     mov   ($0c)+y,a
e7fc: 50 c5     bvc   $e7c3
e7fe: c0        di
e7ff: 2b 33     rol   $33
e801: c2 2b     set6  $2b
e803: 14 e2     or    a,$e2+x
e805: 3d        inc   x
e806: f3 c0 01  bbc7  $c0,$e809
e809: 0f        brk
e80a: f0 5f     beq   $e86b
e80c: a4 1b     sbc   a,$1b
e80e: 41        tcall 4
e80f: a4 c0     sbc   a,$c0
e811: 3a 13     incw  $13
e813: b2 4b     clr5  $4b
e815: 15 d1 3c  or    a,$3cd1+x
e818: f4 c0     mov   a,$c0+x
e81a: e0        clrv
e81b: 2e f2 21  cbne  $f2,$e83e
e81e: e0        clrv
e81f: 1c        asl   a
e820: 32 a3     clr1  $a3
e822: c0        di
e823: 4b 13     lsr   $13
e825: b1        tcall 11
e826: 5d        mov   x,a
e827: f6 ff 5e  mov   a,$5eff+y
e82a: c3 c0 fe  bbs6  $c0,$e82a
e82d: 4f d3     pcall $d3
e82f: 0e 3f e2  tset1 $e23f
e832: 00        nop
e833: 2e b0 e1  cbne  $b0,$e816
e836: 13 ee 1d  bbc0  $ee,$e855
e839: 42 a3     set2  $a3
e83b: 0c 3e b0  asl   $b03e
e83e: 03 c4 2a  bbs0  $c4,$e86a
e841: 52 c4     clr2  $c4
e843: ec 5f f5  mov   y,$f55f
e846: b0 de     bcs   $e826
e848: 4f f1     pcall $f1
e84a: 02 1e     set0  $1e
e84c: 2f e3     bra   $e831
e84e: 01        tcall 0
e84f: a0        ei
e850: 4a 13 d6  and1  c,$1ac2,3
e853: f9 40     mov   x,$40+y
e855: 24 9f     and   a,$9f
e857: 2f c0     bra   $e819
e859: 1f f0 e2  jmp   ($e2f0+x)
e85c: 1c        asl   a
e85d: 12 e3     clr0  $e3
e85f: 2c 23 b0  rol   $b023
e862: cf        mul   ya
e863: 4d        push  x
e864: d3 29 07  bbc6  $29,$e86d
e867: c0        di
e868: 6c e7 c0  ror   $c0e7
e86b: f0 2f     beq   $e89c
e86d: 01        tcall 0
e86e: 02 0e     set0  $0e
e870: 3e f6     cmp   x,$f6
e872: de c0 6f  cbne  $c0+x,$e8e3
e875: d6 1d 42  mov   $421d+y,a
e878: b2 4c     clr5  $4c
e87a: 14 be     or    a,$be+x
e87c: c0        di
e87d: 4d        push  x
e87e: f3 df 50  bbc7  $df,$e8d0
e881: 13 e0 10  bbc0  $e0,$e893
e884: 3f c0 d4  call  $d4c0
e887: ef        sleep
e888: 6c e6 fe  ror   $fee6
e88b: 4e d4 1c  tclr1 $1cd4
e88e: c0        di
e88f: 12 e2     clr0  $e2
e891: 3d        inc   x
e892: f3 e0 3e  bbc7  $e0,$e8d2
e895: f3 e0 c0  bbc7  $e0,$e857
e898: 2d        push  a
e899: f1        tcall 15
e89a: f1        tcall 15
e89b: fe 3f     dbnz  y,$e8dc
e89d: f2 ce     clr7  $ce
e89f: 3e c0     cmp   x,$c0
e8a1: f4 f0     mov   a,$f0+x
e8a3: 4f e3     pcall $e3
e8a5: ff        stop
e8a6: 30 f1     bmi   $e899
e8a8: f0 b0     beq   $e85a
e8aa: 3f 00 03  call  $0300
e8ad: f0 1c     beq   $e8cb
e8af: 22 d3     set1  $d3
e8b1: fc        inc   y
e8b2: b0 5f     bcs   $e913
e8b4: d4 ed     mov   $ed+x,a
e8b6: 4f 03     pcall $03
e8b8: c1        tcall 12
e8b9: 1e 4d c0  cmp   x,$c04d
e8bc: e3 ff 4e  bbs7  $ff,$e90c
e8bf: f3 ef 2f  bbc7  $ef,$e8f0
e8c2: f1        tcall 15
e8c3: 1e c0 e4  cmp   x,$e4c0
e8c6: 1f 4f c5  jmp   ($c54f+x)
e8c9: 1d        dec   x
e8ca: 4f b4     pcall $b4
e8cc: 0e c0 4d  tset1 $4dc0
e8cf: e3 e2 2b  bbs7  $e2,$e8fc
e8d2: 31        tcall 3
e8d3: d4 dc     mov   $dc+x,a
e8d5: 30 c0     bmi   $e897
e8d7: e3 0d 12  bbs7  $0d,$e8eb
e8da: c0        di
e8db: 3c        rol   a
e8dc: 04 cf     or    a,$cf
e8de: 4c c0 03  lsr   $03c0
e8e1: b0 5d     bcs   $e940
e8e3: 33 c2 1e  bbc1  $c2,$e903
e8e6: 3e e3     cmp   x,$e3
e8e8: c0        di
e8e9: d0 2c     bne   $e917
e8eb: 13 e0 2e  bbc0  $e0,$e91b
e8ee: 12 e0     clr0  $e0
e8f0: 3f b0 03  call  $03b0
e8f3: ce        pop   x
e8f4: 3e 04     cmp   x,$04
e8f6: dd        mov   a,y
e8f7: 4c 05 ad  lsr   $ad05
e8fa: b0 5e     bcs   $e95a
e8fc: f3 de 32  bbc7  $de,$e930
e8ff: e0        clrv
e900: 4f f4     pcall $f4
e902: 1a b0     decw  $b0
e904: 44 b2     eor   a,$b2
e906: 39        and   (x),(y)
e907: 05 c1 1c  or    a,$1cc1
e90a: 03 14 c0  bbs0  $14,$e8cc
e90d: f0 3d     beq   $e94c
e90f: 24 b0     and   a,$b0
e911: 4c f5 de  lsr   $def5
e914: 4e c0 b4  tclr1 $b4c0
e917: 1c        asl   a
e918: 31        tcall 3
e919: a2 3d     set5  $3d
e91b: 22 c1     set1  $c1
e91d: 3e c0     cmp   x,$c0
e91f: 20        clrp
e920: c0        di
e921: 11        tcall 1
e922: 2c 04 c3  rol   $c304
e925: 4a 25 c0  and1  c,$1804,5
e928: bf        mov   a,(x)+
e929: 5d        mov   x,a
e92a: f5 eb 51  mov   a,$51eb+x
e92d: d5 1a 32  mov   $321a+x,a
e930: c0        di
e931: c3 1b 22  bbs6  $1b,$e955
e934: d3 fc 10  bbc6  $fc,$e946
e937: 02 b0     set0  $b0
e939: c0        di
e93a: 3c        rol   a
e93b: 41        tcall 4
e93c: 93 2b 33  bbc4  $2b,$e971
e93f: c2 4d     set6  $4d
e941: f4 c0     mov   a,$c0+x
e943: ff        stop
e944: 4f d5     pcall $d5
e946: 1d        dec   x
e947: 3f b3 1d  call  $1db3
e94a: 3f c0 d3  call  $d3c0
e94d: 10 3d     bpl   $e98c
e94f: f2 f2     clr7  $f2
e951: 0c 2f f4  asl   $f42f
e954: c0        di
e955: cf        mul   ya
e956: 5d        mov   x,a
e957: 03 c2 3d  bbs0  $c2,$e996
e95a: 2f c3     bra   $e91f
e95c: 0e b0 5e  tset1 $5eb0
e95f: e4 c2     mov   a,$c2
e961: 3a 23     incw  $23
e963: d3 1e 4f  bbc6  $1e,$e9b4
e966: b0 f4     bcs   $e95c
e968: c0        di
e969: 6e 23 b4  dbnz  $23,$e91f
e96c: 4c 40 b4  lsr   $b440
e96f: b0 fd     bcs   $e96e
e971: 4c f6 d0  lsr   $d0f6
e974: 3a 22     incw  $22
e976: b5 eb c0  sbc   a,$c0eb+x
e979: 3f 03 d1  call  $d103
e97c: 3d        inc   x
e97d: 11        tcall 1
e97e: c1        tcall 12
e97f: 1e 3f c0  cmp   x,$c03f
e982: e2 f1     set7  $f1
e984: 1c        asl   a
e985: 12 c2     clr0  $c2
e987: 0c 32 e2  asl   $e232
e98a: c0        di
e98b: 1e 01 0d  cmp   x,$0d01
e98e: 23 e1 2b  bbs1  $e1,$e9bb
e991: 14 c1     or    a,$c1+x
e993: c0        di
e994: 3b 15     rol   $15+x
e996: d3 2c 31  bbc6  $2c,$e9c9
e999: f4 df     mov   a,$df+x
e99b: 5d        mov   x,a
e99c: c0        di
e99d: 23 b2 4d  bbs1  $b2,$e9ec
e9a0: 03 e0 5f  bbs0  $e0,$ea01
e9a3: c4 fd     mov   $fd,a
e9a5: c0        di
e9a6: 4f b5     pcall $b5
e9a8: 0d        push  psw
e9a9: 5f b6 0e  jmp   $0eb6
e9ac: 5c        lsr   a
e9ad: e5 c0 e2  mov   a,$e2c0
e9b0: 2b 40     rol   $40
e9b2: d5 dc 4f  mov   $4fdc+x,a
e9b5: c3 fc c0  bbs6  $fc,$e977
e9b8: 31        tcall 3
e9b9: b4 3c     sbc   a,$3c+x
e9bb: 30 a5     bmi   $e962
e9bd: 2c 4f a5  rol   $a54f
e9c0: c0        di
e9c1: 0d        push  psw
e9c2: 6d        push  y
e9c3: e5 e2 3b  mov   a,$3be2
e9c6: 30 c4     bmi   $e98c
e9c8: dd        mov   a,y
e9c9: c0        di
e9ca: 4f e3     pcall $e3
e9cc: fe 21     dbnz  y,$e9ef
e9ce: d2 2d     clr6  $2d
e9d0: 12 b1     clr0  $b1
e9d2: c0        di
e9d3: 3c        rol   a
e9d4: 12 b3     clr0  $b3
e9d6: 3c        rol   a
e9d7: 40        setp
e9d8: b5 fe 4b  sbc   a,$4bfe+x
e9db: c0        di
e9dc: 04 c2     or    a,$c2
e9de: fa 4f f5  mov   ($f5),($4f)
e9e1: d0 3d     bne   $ea20
e9e3: 20        clrp
e9e4: b0 95     bcs   $e97b
e9e6: fd        mov   y,a
e9e7: 5b 06     lsr   $06+x
e9e9: d2 2a     clr6  $2a
e9eb: 52 c3     clr2  $c3
e9ed: b0 ee     bcs   $e9dd
e9ef: 6f        ret
e9f0: 11        tcall 1
e9f1: b2 2e     clr5  $2e
e9f3: 2e e5 fd  cbne  $e5,$e9f2
e9f6: b0 3e     bcs   $ea36
e9f8: f6 fd 70  mov   a,$70fd+y
e9fb: e6        mov   a,(x)
e9fc: ec 70 e7  mov   y,$e770
e9ff: c0        di
ea00: fe 4f     dbnz  y,$ea51
ea02: f3 d0 4e  bbc7  $d0,$ea52
ea05: 32 c3     clr1  $c3
ea07: 0e c0 4c  tset1 $4cc0
ea0a: f4 c3     mov   a,$c3+x
ea0c: 2b 3f     rol   $3f
ea0e: c4 de     mov   $de,a
ea10: 5d        mov   x,a
ea11: c0        di
ea12: 02 b1     set0  $b1
ea14: 2c 10 d3  rol   $d310
ea17: 0e 30 f3  tset1 $f330
ea1a: b0 ef     bcs   $ea0b
ea1c: 2c 35 b3  rol   $b335
ea1f: 3c        rol   a
ea20: 60        clrc
ea21: d4 df     mov   $df+x,a
ea23: b0 7c     bcs   $eaa1
ea25: 05 c3 3c  or    a,$3cc3
ea28: 40        setp
ea29: b5 fc 4c  sbc   a,$4cfc+x
ea2c: b0 f6     bcs   $ea24
ea2e: c0        di
ea2f: 3b 33     rol   $33+x
ea31: c0        di
ea32: fe 3f     dbnz  y,$ea73
ea34: d4 c0     mov   $c0+x,a
ea36: d0 4e     bne   $ea86
ea38: 12 c0     clr0  $c0
ea3a: 3e 20     cmp   x,$20
ea3c: d3 e1 c0  bbc6  $e1,$e9fe
ea3f: 3c        rol   a
ea40: 03 d2 0c  bbs0  $d2,$ea4e
ea43: 22 f0     set1  $f0
ea45: 30 01     bmi   $ea48
ea47: c0        di
ea48: 0d        push  psw
ea49: 23 f0 2c  bbs1  $f0,$ea77
ea4c: 04 d1     or    a,$d1
ea4e: 1a 23     decw  $23
ea50: c0        di
ea51: e4 de     mov   a,$de
ea53: 4e 31 c2  tclr1 $c231
ea56: 1c        asl   a
ea57: 20        clrp
ea58: d1        tcall 13
ea59: c0        di
ea5a: 1c        asl   a
ea5b: 13 e1 2d  bbc0  $e1,$ea8a
ea5e: f3 ef 2d  bbc7  $ef,$ea8d
ea61: f6 c0 e1  mov   a,$e1c0+y
ea64: 2a 03 c2  or1   c,!($1840,3)
ea67: ec 4d 12  mov   y,$124d
ea6a: b1        tcall 11
ea6b: c0        di
ea6c: 2c 21 e3  rol   $e321
ea6f: 2e 02 e0  cbne  $02,$ea51
ea72: 1e f3 c0  cmp   x,$c0f3
ea75: 00        nop
ea76: 10 e2     bpl   $ea5a
ea78: 1e 11 d3  cmp   x,$d311
ea7b: 1e 4f c0  cmp   x,$c04f
ea7e: d4 e0     mov   $e0+x,a
ea80: 3b 22     rol   $22+x
ea82: d3 ee 5e  bbc6  $ee,$eae2
ea85: 13 c0 c2  bbc0  $c0,$ea49
ea88: 2e 30 e4  cbne  $30,$ea6e
ea8b: fe 3e     dbnz  y,$eacb
ea8d: f3 f0 b0  bbc7  $f0,$ea3f
ea90: 2b 23     rol   $23
ea92: cf        mul   ya
ea93: 1d        dec   x
ea94: 42 e1     set2  $e1
ea96: fe 4f     dbnz  y,$eae7
ea98: b0 e2     bcs   $ea7c
ea9a: e1        tcall 14
ea9b: 3d        inc   x
ea9c: 01        tcall 0
ea9d: c2 2e     set6  $2e
ea9f: 10 e4     bpl   $ea85
eaa1: c0        di
eaa2: 0e 10 f2  tset1 $f210
eaa5: ff        stop
eaa6: 1e 12 c3  cmp   x,$c312
eaa9: 0d        push  psw
eaaa: c0        di
eaab: 3d        inc   x
eaac: 12 d1     clr0  $d1
eaae: 1e 0f e3  cmp   x,$e30f
eab1: f0 2e     beq   $eae1
eab3: b0 13     bcs   $eac8
eab5: b4 0b     sbc   a,$0b+x
eab7: 61        tcall 6
eab8: c4 c0     mov   $c0,a
eaba: 40        setp
eabb: ce        pop   x
eabc: b0 3f     bcs   $eafd
eabe: 12 fc     clr0  $fc
eac0: 41        tcall 4
eac1: e1        tcall 14
eac2: 0a 50 d4  or1   c,$1a8a,0
eac5: c0        di
eac6: fc        inc   y
eac7: 40        setp
eac8: f4 c0     mov   a,$c0+x
eaca: 3e 2f     cmp   x,$2f
eacc: c4 ef     mov   $ef,a
eace: c0        di
eacf: 3c        rol   a
ead0: 03 d0 2d  bbs0  $d0,$eaff
ead3: 01        tcall 0
ead4: df        daa   a
ead5: 3e 01     cmp   x,$01
ead7: c0        di
ead8: ee        pop   y
ead9: 30 01     bmi   $eadc
eadb: 0e 30 f1  tset1 $f130
eade: ec 4f c0  mov   y,$c04f
eae1: f2 be     clr7  $be
eae3: 4d        push  x
eae4: 11        tcall 1
eae5: c5 ff 3c  mov   $3cff,a
eae8: 14 c0     or    a,$c0+x
eaea: d3 1d 32  bbc6  $1d,$eb1e
eaed: e1        tcall 14
eaee: 20        clrp
eaef: 22 e1     set1  $e1
eaf1: 3f c0 11  call  $11c0
eaf4: ff        stop
eaf5: 30 f1     bmi   $eae8
eaf7: fe 4f     dbnz  y,$eb48
eaf9: f2 cf     clr7  $cf
eafb: c0        di
eafc: 4d        push  x
eafd: 20        clrp
eafe: c4 ff     mov   $ff,a
eb00: 3c        rol   a
eb01: 12 d3     clr0  $d3
eb03: fe c0     dbnz  y,$eac5
eb05: 4e f2 d1  tclr1 $d1f2
eb08: 3d        inc   x
eb09: 10 d3     bpl   $eade
eb0b: 0d        push  psw
eb0c: 2f b0     bra   $eabe
eb0e: f6 e0 0c  mov   a,$0ce0+y
eb11: 24 c1     and   a,$c1
eb13: 1c        asl   a
eb14: 4f f1     pcall $f1
eb16: b0 e1     bcs   $eaf9
eb18: 5f e3 d1  jmp   $d1e3
eb1b: 4e 00 d5  tclr1 $d500
eb1e: 0f        brk
eb1f: a0        ei
eb20: 2b 16     rol   $16
eb22: d2 dd     clr6  $dd
eb24: 31        tcall 3
eb25: ef        sleep
eb26: b1        tcall 11
eb27: 42 b0     set2  $b0
eb29: de 0e 12  cbne  $0e+x,$eb3d
eb2c: b0 3d     bcs   $eb6b
eb2e: 31        tcall 3
eb2f: ef        sleep
eb30: 21        tcall 2
eb31: b0 e3     bcs   $eb16
eb33: 01        tcall 0
eb34: 03 f2 10  bbs0  $f2,$eb46
eb37: e2 00     set7  $00
eb39: 4f b0     pcall $b0
eb3b: d3 ff 6d  bbc6  $ff,$ebaa
eb3e: 12 a4     clr0  $a4
eb40: 3b 4c     rol   $4c+x
eb42: c6        mov   (x),a
eb43: b0 c1     bcs   $eb06
eb45: 3b 51     rol   $51+x
eb47: d5 df 5c  mov   $5cdf+x,a
eb4a: 21        tcall 2
eb4b: a3 b0 2b  bbs5  $b0,$eb78
eb4e: 50 c6     bvc   $eb16
eb50: 0e 4e f4  tset1 $f44e
eb53: ee        pop   y
eb54: 3e b0     cmp   x,$b0
eb56: 13 f1 1d  bbc0  $f1,$eb75
eb59: 31        tcall 3
eb5a: d1        tcall 13
eb5b: ff        stop
eb5c: 5f e2 b0  jmp   $b0e2
eb5f: e1        tcall 14
eb60: 4e f1 d2  tclr1 $d2f1
eb63: 2d        push  a
eb64: 12 c3     clr0  $c3
eb66: 2e c0 1f  cbne  $c0,$eb87
eb69: f3 c0 2c  bbc7  $c0,$eb97
eb6c: 30 f3     bmi   $eb61
eb6e: df        daa   a
eb6f: 2f b0     bra   $eb21
eb71: 12 c4     clr0  $c4
eb73: 1d        dec   x
eb74: 4e e6 c0  tclr1 $c0e6
eb77: 29 24 b0  and   ($b0),($24)
eb7a: b4 0c     sbc   a,$0c+x
eb7c: 30 ec     bmi   $eb6a
eb7e: 3f 01 0b  call  $0b01
eb81: 24 c0     and   a,$c0
eb83: f0 1d     beq   $eba2
eb85: 12 e1     clr0  $e1
eb87: 1c        asl   a
eb88: 33 d3 ed  bbc1  $d3,$eb77
eb8b: c0        di
eb8c: 4f 12     pcall $12
eb8e: c3 2d 4e  bbs6  $2d,$ebde
eb91: f4 fe     mov   a,$fe+x
eb93: 4f b0     pcall $b0
eb95: f3 da 60  bbc7  $da,$ebf7
eb98: f3 eb 51  bbc7  $eb,$ebeb
eb9b: d0 0a     bne   $eba7
eb9d: c0        di
eb9e: 22 e0     set1  $e0
eba0: 0c 31 d3  asl   $d331
eba3: fc        inc   y
eba4: 4f f3     pcall $f3
eba6: c0        di
eba7: b2 2e     clr5  $2e
eba9: 4e e5 e0  tclr1 $e0e5
ebac: 3c        rol   a
ebad: 13 f0 b0  bbc0  $f0,$eb5f
ebb0: 5f 14 ee  jmp   $ee14
ebb3: 7f        reti
ebb4: 02 fc     set0  $fc
ebb6: 53 e1 c0  bbc2  $e1,$eb78
ebb9: 0c 21 e2  asl   $e221
ebbc: ec 4e 03  mov   y,$034e
ebbf: c2 2e     set6  $2e
ebc1: c0        di
ebc2: 4e e4 d1  tclr1 $d1e4
ebc5: 1c        asl   a
ebc6: 31        tcall 3
ebc7: f3 ee 4f  bbc7  $ee,$ec18
ebca: b0 04     bcs   $ebd0
ebcc: 92 39     clr4  $39
ebce: 22 c6     set1  $c6
ebd0: 0e 1d 05  tset1 $051d
ebd3: b0 ee     bcs   $ebc3
ebd5: 3c        rol   a
ebd6: 33 f1 ef  bbc1  $f1,$ebc7
ebd9: 41        tcall 4
ebda: d3 fd b0  bbc6  $fd,$eb8c
ebdd: 4f f1     pcall $f1
ebdf: d4 2d     mov   $2d+x,a
ebe1: 3e e4     cmp   x,$e4
ebe3: ef        sleep
ebe4: 1c        asl   a
ebe5: b0 04     bcs   $ebeb
ebe7: d1        tcall 13
ebe8: 0c 14 d2  asl   $d214
ebeb: 1c        asl   a
ebec: 32 ce     clr1  $ce
ebee: b0 2c     bcs   $ec1c
ebf0: 30 fe     bmi   $ebf0
ebf2: d4 f0     mov   $f0+x,a
ebf4: e1        tcall 14
ebf5: c3 3e c0  bbs6  $3e,$ebb7
ebf8: 01        tcall 0
ebf9: ef        sleep
ebfa: 3f 01 df  call  $df01
ebfd: 5f 11 c0  jmp   $c011
ec00: c0        di
ec01: 1e 0f d3  cmp   x,$d30f
ec04: e0        clrv
ec05: 3d        inc   x
ec06: 03 c0 2c  bbs0  $c0,$ec34
ec09: b0 35     bcs   $ec40
ec0b: be        das   a
ec0c: 5c        lsr   a
ec0d: 13 ec 51  bbc0  $ec,$ec60
ec10: f2 fc     clr7  $fc
ec12: b0 f5     bcs   $ec09
ec14: e1        tcall 14
ec15: 0e c7 11  tset1 $11c7
ec18: 11        tcall 1
ec19: d3 4e c0  bbc6  $4e,$ebdb
ec1c: 00        nop
ec1d: ff        stop
ec1e: 4f 11     pcall $11
ec20: 1e 21 f0  cmp   x,$f021
ec23: 0d        push  psw
ec24: b0 54     bcs   $ec7a
ec26: c3 e9 63  bbs6  $e9,$ec8b
ec29: d4 ad     mov   $ad+x,a
ec2b: 6e 14 c0  dbnz  $14,$ebed
ec2e: d2 2d     clr6  $2d
ec30: 1f c2 fd  jmp   ($fdc2+x)
ec33: 2e f4 f0  cbne  $f4,$ec25
ec36: b0 4b     bcs   $ec83
ec38: 15 c1 2c  or    a,$2cc1+x
ec3b: 25 d0 3c  and   a,$3cd0
ec3e: 44 b0     eor   a,$b0
ec40: e2 2d     set7  $2d
ec42: 41        tcall 4
ec43: fd        mov   y,a
ec44: 10 04     bpl   $ec4a
ec46: e0        clrv
ec47: f0 b0     beq   $ebf9
ec49: 3f f1 0e  call  $0ef1
ec4c: 51        tcall 5
ec4d: e0        clrv
ec4e: ec 60 e2  mov   y,$e260
ec51: c0        di
ec52: ef        sleep
ec53: 3f 11 c2  call  $c211
ec56: 3e 2e     cmp   x,$2e
ec58: d3 f0 b0  bbc6  $f0,$ec0a
ec5b: 4b 14     lsr   $14
ec5d: e3 fc 51  bbs7  $fc,$ecb0
ec60: c4 dc     mov   $dc,a
ec62: 5e b0 d6  cmp   y,$d6b0
ec65: cf        mul   ya
ec66: 7f        reti
ec67: c4 00     mov   $00,a
ec69: 30 ef     bmi   $ec5a
ec6b: 61        tcall 6
ec6c: b0 11     bcs   $ec7f
ec6e: ec 61 ef  mov   y,$ef61
ec71: ed        notc
ec72: 33 fe 2e  bbc1  $fe,$eca2
ec75: c0        di
ec76: f3 df 2c  bbc7  $df,$eca4
ec79: 04 d1     or    a,$d1
ec7b: 1c        asl   a
ec7c: 33 f3 c0  bbc1  $f3,$ec3e
ec7f: fe 4e     dbnz  y,$eccf
ec81: 13 e2 2c  bbc0  $e2,$ecaf
ec84: 10 d2     bpl   $ec58
ec86: 1e b0 52  cmp   x,$52b0
ec89: e3 0e 12  bbs7  $0e,$ec9d
ec8c: e2 ee     set7  $ee
ec8e: f1        tcall 15
ec8f: 1f a0 d3  jmp   ($d3a0+x)
ec92: b0 6a     bcs   $ecfe
ec94: 02 ce     set0  $ce
ec96: 5c        lsr   a
ec97: 11        tcall 1
ec98: de a0 22  cbne  $a0+x,$ecbc
ec9b: 13 c1 d3  bbc0  $c1,$ec70
ec9e: 40        setp
ec9f: e1        tcall 14
eca0: c4 4d     mov   $4d,a
eca2: b0 2d     bcs   $ecd1
eca4: d6 00 2c  mov   $2c00+y,a
eca7: f6 f2 1c  mov   a,$1cf2+y
ecaa: 32 b0     clr1  $b0
ecac: f2 ed     clr7  $ed
ecae: 4e 01 c0  tclr1 $c001
ecb1: 4d        push  x
ecb2: 21        tcall 2
ecb3: b2 b0     clr5  $b0
ecb5: 3f 20 c2  call  $c220
ecb8: 3d        inc   x
ecb9: 11        tcall 1
ecba: c4 2e     mov   $2e,a
ecbc: 20        clrp
ecbd: b0 e4     bcs   $eca3
ecbf: 0f        brk
ecc0: d2 f2     clr6  $f2
ecc2: 3f 1e 13  call  $131e
ecc5: ff        stop
ecc6: b0 1e     bcs   $ece6
ecc8: e4 fe     mov   a,$fe
ecca: 1d        dec   x
eccb: e5 e0 2a  mov   a,$2ae0
ecce: 15 c0 e1  or    a,$e1c0+x
ecd1: 0d        push  psw
ecd2: 41        tcall 4
ecd3: e2 df     set7  $df
ecd5: 3f 11 d2  call  $d211
ecd8: b0 1e     bcs   $ecf8
ecda: 3e e6     cmp   x,$e6
ecdc: fe 4a     dbnz  y,$ed28
ecde: f5 cf 6b  mov   a,$6bcf+x
ece1: b0 36     bcs   $ed19
ece3: ee        pop   y
ece4: 5f 23 0d  jmp   $0d23
ece7: 05 f1 0e  or    a,$0ef1
ecea: b0 d6     bcs   $ecc2
ecec: f0 1f     beq   $ed0d
ecee: c5 2e f2  mov   $f22e,a
ecf1: b3 6b c0  bbc5  $6b,$ecb3
ecf4: 21        tcall 2
ecf5: b2 3d     clr5  $3d
ecf7: 3f d4 1f  call  $1fd4
ecfa: 3d        inc   x
ecfb: 03 c0 c2  bbs0  $c0,$ecbf
ecfe: 0c 30 c3  asl   $c330
ed01: ee        pop   y
ed02: 4f d2     pcall $d2
ed04: ff        stop
ed05: b0 4f     bcs   $ed56
ed07: a2 30     set5  $30
ed09: 31        tcall 3
ed0a: df        daa   a
ed0b: 60        clrc
ed0c: 11        tcall 1
ed0d: ed        notc
ed0e: b0 50     bcs   $ed60
ed10: 10 0c     bpl   $ed1e
ed12: 32 ff     clr1  $ff
ed14: 1c        asl   a
ed15: 06        or    a,(x)
ed16: ef        sleep
ed17: c0        di
ed18: 1e f3 e1  cmp   x,$e1f3
ed1b: 1b 13     asl   $13+x
ed1d: d2 ec     clr6  $ec
ed1f: 4f c0     pcall $c0
ed21: 03 c1 2e  bbs0  $c1,$ed51
ed24: 3f c3 ff  call  $ffc3
ed27: 2d        push  a
ed28: 03 b0 b1  bbs0  $b0,$ecdb
ed2b: 3a 25     incw  $25
ed2d: a2 2a     set5  $2a
ed2f: 42 a0     set2  $a0
ed31: 3b b0     rol   $b0+x
ed33: 3f fc 12  call  $12fc
ed36: f1        tcall 15
ed37: ef        sleep
ed38: c5 0e 01  mov   $010e,a
ed3b: b0 c2     bcs   $ecff
ed3d: 4d        push  x
ed3e: 00        nop
ed3f: ff        stop
ed40: 6e 01 2a  dbnz  $01,$ed6c
ed43: 71        tcall 7
ed44: c0        di
ed45: f2 0c     clr7  $0c
ed47: 41        tcall 4
ed48: f3 ee 40  bbc7  $ee,$ed8a
ed4b: 02 d2     set0  $d2
ed4d: c0        di
ed4e: 2d        push  a
ed4f: 30 e4     bmi   $ed35
ed51: fd        mov   y,a
ed52: 5f f4 ec  jmp   $ecf4
ed55: 3f b0 f4  call  $f4b0
ed58: 0b 14     asl   $14
ed5a: f1        tcall 15
ed5b: 1c        asl   a
ed5c: c6        mov   (x),a
ed5d: ef        sleep
ed5e: 0f        brk
ed5f: c0        di
ed60: d1        tcall 13
ed61: 2f 10     bra   $ed73
ed63: 0f        brk
ed64: 50 00     bvc   $ed66
ed66: 0d        push  psw
ed67: 31        tcall 3
ed68: c0        di
ed69: f0 ff     beq   $ed6a
ed6b: 03 ef 00  bbs0  $ef,$ed6d
ed6e: d4 1f     mov   $1f+x,a
ed70: 1f b0 a5  jmp   ($a5b0+x)
ed73: 2c 3e b5  rol   $b53e
ed76: ff        stop
ed77: 5c        lsr   a
ed78: 05 e2 b0  or    a,$b0e2
ed7b: 2c 25 b4  rol   $b425
ed7e: 3b 41     rol   $41+x
ed80: b2 fc     clr5  $fc
ed82: 31        tcall 3
ed83: b0 c1     bcs   $ed46
ed85: 1b 41     asl   $41+x
ed87: d3 1e 41  bbc6  $1e,$edca
ed8a: 0f        brk
ed8b: 11        tcall 1
ed8c: b0 22     bcs   $edb0
ed8e: ff        stop
ed8f: ff        stop
ed90: 31        tcall 3
ed91: 0f        brk
ed92: 1f f4 ff  jmp   ($fff4+x)
ed95: b0 01     bcs   $ed98
ed97: d5 2d 21  mov   $212d+x,a
ed9a: d4 0d     mov   $0d+x,a
ed9c: 5d        mov   x,a
ed9d: 04 b0     or    a,$b0
ed9f: d2 2b     clr6  $2b
eda1: 14 b5     or    a,$b5+x
eda3: 3b 13     rol   $13+x
eda5: c1        tcall 12
eda6: 4b b0     lsr   $b0
eda8: f5 ff 2e  mov   a,$2eff+x
edab: c5 1e f1  mov   $f11e,a
edae: c2 2f     set6  $2f
edb0: b0 ff     bcs   $edb1
edb2: 10 4f     bpl   $ee03
edb4: fe 00     dbnz  y,$edb6
edb6: 51        tcall 5
edb7: e0        clrv
edb8: ec c0 40  mov   y,$40c0
edbb: f1        tcall 15
edbc: ee        pop   y
edbd: 4e f1 c2  tclr1 $c2f1
edc0: 2f 3e     bra   $ee00
edc2: c0        di
edc3: d3 e0 1c  bbc6  $e0,$ede1
edc6: 11        tcall 1
edc7: d2 fd     clr6  $fd
edc9: 2f e3     bra   $edae
edcb: b0 de     bcs   $edab
edcd: 6e d6 b0  dbnz  $d6,$ed7f
edd0: 5d        mov   x,a
edd1: c5 d0 2f  mov   $2fd0,a
edd4: b0 ed     bcs   $edc3
edd6: 3f 20 1e  call  $1e20
edd9: 35 e1 1f  and   a,$1fe1+x
eddc: e7 b0     mov   a,($b0+x)
edde: f0 00     beq   $ede0
ede0: b4 0e     sbc   a,$0e+x
ede2: f2 b2     clr7  $b2
ede4: 6c 12 c0  ror   $c012
ede7: c0        di
ede8: 3d        inc   x
ede9: 20        clrp
edea: c2 2e     set6  $2e
edec: 2f f4     bra   $ede2
edee: d1        tcall 13
edef: c0        di
edf0: 2c 02 b2  rol   $b202
edf3: 1c        asl   a
edf4: 21        tcall 2
edf5: c2 2e     set6  $2e
edf7: 21        tcall 2
edf8: c0        di
edf9: ee        pop   y
edfa: 30 00     bmi   $edfc
edfc: fd        mov   y,a
edfd: 21        tcall 2
edfe: e1        tcall 14
edff: 0e e3 c0  tset1 $c0e3
ee02: f1        tcall 15
ee03: 00        nop
ee04: d2 2f     clr6  $2f
ee06: 00        nop
ee07: e0        clrv
ee08: 4f 1f     pcall $1f
ee0a: b0 0d     bcs   $ee19
ee0c: 6f        ret
ee0d: d0 3b     bne   $ee4a
ee0f: 16 c2 1b  or    a,$1bc2+y
ee12: 07 b0     or    a,($b0+x)
ee14: c1        tcall 12
ee15: 2b 34     rol   $34
ee17: d3 fa 5f  bbc6  $fa,$ee78
ee1a: 03 fe b0  bbs0  $fe,$edcc
ee1d: 7c        ror   a
ee1e: e5 cf 5c  mov   a,$5ccf
ee21: 12 c0     clr0  $c0
ee23: 4d        push  x
ee24: f4 b0     mov   a,$b0+x
ee26: d1        tcall 13
ee27: 5d        mov   x,a
ee28: 02 c1     set0  $c1
ee2a: 30 0f     bmi   $ee3b
ee2c: 1f 20 b0  jmp   ($b020+x)
ee2f: 11        tcall 1
ee30: f2 41     clr7  $41
ee32: 0f        brk
ee33: 0d        push  psw
ee34: 60        clrc
ee35: f0 1c     beq   $ee53
ee37: b0 24     bcs   $ee5d
ee39: df        daa   a
ee3a: 0b 13     asl   $13
ee3c: e2 0c     set7  $0c
ee3e: 5f 11 b0  jmp   $b011
ee41: fe 5c     dbnz  y,$ee9f
ee43: f4 ce     mov   a,$ce+x
ee45: 50 c6     bvc   $ee0d
ee47: 0c 51 b0  asl   $b051
ee4a: c1        tcall 12
ee4b: 4b 43     lsr   $43
ee4d: fd        mov   y,a
ee4e: 41        tcall 4
ee4f: 04 01     or    a,$01
ee51: d4 c0     mov   $c0+x,a
ee53: 10 10     bpl   $ee65
ee55: 0e 30 01  tset1 $0130
ee58: 0f        brk
ee59: e4 ff     mov   a,$ff
ee5b: b0 f0     bcs   $ee4d
ee5d: b1        tcall 11
ee5e: 6c 10 0a  ror   $0a10
ee61: 72 d2     clr3  $d2
ee63: ff        stop
ee64: b0 e7     bcs   $ee4d
ee66: f0 f0     beq   $ee58
ee68: b2 4d     clr5  $4d
ee6a: 1f de 50  jmp   ($50de+x)
ee6d: b0 e1     bcs   $ee50
ee6f: ff        stop
ee70: 42 03     set2  $03
ee72: ef        sleep
ee73: 5f 31 df  jmp   $df31
ee76: b0 5d     bcs   $eed5
ee78: f5 ce 5f  mov   a,$5fce+x
ee7b: c3 0c 41  bbs6  $0c,$eebe
ee7e: cf        mul   ya
ee7f: b0 3e     bcs   $eebf
ee81: 23 0d 03  bbs1  $0d,$ee86
ee84: b4 ff     sbc   a,$ff+x
ee86: 2c 04 b0  rol   $b004
ee89: f0 00     beq   $ee8b
ee8b: d0 5d     bne   $eeea
ee8d: 01        tcall 0
ee8e: 1d        dec   x
ee8f: 24 d2     and   a,$d2
ee91: b0 0e     bcs   $eea1
ee93: f4 1f     mov   a,$1f+x
ee95: 00        nop
ee96: d2 1f     clr6  $1f
ee98: 0f        brk
ee99: c4 b0     mov   $b0,a
ee9b: 00        nop
ee9c: 2e e4 3b  cbne  $e4,$eed9
ee9f: 32 c2     clr1  $c2
eea1: 5c        lsr   a
eea2: e5 b0 ee  mov   a,$eeb0
eea5: 30 cf     bmi   $ee76
eea7: 4e 21 0e  tclr1 $0e21
eeaa: e4 01     mov   a,$01
eeac: c0        di
eead: 11        tcall 1
eeae: 0e 20 e0  tset1 $e020
eeb1: 0e f4 ff  tset1 $fff4
eeb4: 00        nop
eeb5: b0 d1     bcs   $ee88
eeb7: 6d        push  y
eeb8: 00        nop
eeb9: 1d        dec   x
eeba: 34 e0     and   a,$e0+x
eebc: 1f e7 b0  jmp   ($b0e7+x)
eebf: 1f 3d e3  jmp   ($e33d+x)
eec2: 02 2d     set0  $2d
eec4: 05 b0 5b  or    a,$5bb0
eec7: b0 f6     bcs   $eebf
eec9: ed        notc
eeca: 5e c3 2e  cmp   y,$2ec3
eecd: e3 ff 02  bbs7  $ff,$eed1
eed0: b0 fc     bcs   $eece
eed2: 41        tcall 4
eed3: f1        tcall 15
eed4: 0e d7 2f  tset1 $2fd7
eed7: 21        tcall 2
eed8: ed        notc
eed9: b0 5f     bcs   $ef3a
eedb: f0 1c     beq   $eef9
eedd: 15 d0 1c  or    a,$1cd0+x
eee0: 12 f0     clr0  $f0
eee2: b0 fc     bcs   $eee0
eee4: 31        tcall 3
eee5: a4 1b     sbc   a,$1b
eee7: 33 b0 3c  bbc1  $b0,$ef25
eeea: 03 a0 0a  bbs0  $a0,$eef6
eeed: 13 e3 21  bbc0  $e3,$ef10
eef0: bf        mov   a,(x)+
eef1: 40        setp
eef2: 20        clrp
eef3: 3b b0     rol   $b0+x
eef5: f6 e0 1f  mov   a,$1fe0+y
eef8: d3 20 1e  bbc6  $20,$ef18
eefb: 00        nop
eefc: 1f b0 1f  jmp   ($1fb0+x)
eeff: e1        tcall 14
ef00: 1f 23 e2  jmp   ($e223+x)
ef03: 3f c4 fe  call  $fec4
ef06: b0 20     bcs   $ef28
ef08: ee        pop   y
ef09: 4f 12     pcall $12
ef0b: 0e e5 e0  tset1 $e0e5
ef0e: 00        nop
ef0f: c4 f1     mov   $f1,a
ef11: 4b 10     lsr   $10
ef13: 0d        push  psw
ef14: 41        tcall 4
ef15: c2 00     set6  $00
ef17: d6 b0 0f  mov   $0fb0+y,a
ef1a: 1f ef 6e  jmp   ($6eef+x)
ef1d: 0f        brk
ef1e: 1b 32     asl   $32+x
ef20: e2 b0     set7  $b0
ef22: fd        mov   y,a
ef23: f5 ff 1e  mov   a,$1eff+x
ef26: f4 10     mov   a,$10+x
ef28: 3d        inc   x
ef29: f3 b0 e3  bbc7  $b0,$ef0e
ef2c: 1d        dec   x
ef2d: 05 c0 4c  or    a,$4cc0
ef30: f5 fe 40  mov   a,$40fe+x
ef33: b0 d3     bcs   $ef08
ef35: 0d        push  psw
ef36: 01        tcall 0
ef37: e2 10     set7  $10
ef39: d0 0e     bne   $ef49
ef3b: 4d        push  x
ef3c: b0 f0     bcs   $ef2e
ef3e: c0        di
ef3f: 4f 01     pcall $01
ef41: 1d        dec   x
ef42: 16 e1 2f  or    a,$2fe1+y
ef45: a0        ei
ef46: b6 4f 3c  sbc   a,$3c4f+y
ef49: 03 e4 2a  bbs0  $e4,$ef75
ef4c: 24 e0     and   a,$e0
ef4e: b0 3f     bcs   $ef8f
ef50: 01        tcall 0
ef51: 2e 13 f0  cbne  $13,$ef43
ef54: 11        tcall 1
ef55: cf        mul   ya
ef56: 3e b0     cmp   x,$b0
ef58: 01        tcall 0
ef59: 0e f4 ff  tset1 $fff4
ef5c: 10 e0     bpl   $ef3e
ef5e: 3f 00 b0  call  $b000
ef61: 0c 22 d0  asl   $d022
ef64: 0c 02 01  asl   $0102
ef67: 0d        push  psw
ef68: 32 b0     clr1  $b0
ef6a: c4 2c     mov   $2c,a
ef6c: 23 b0 5c  bbs1  $b0,$efca
ef6f: e3 0d 12  bbs7  $0d,$ef83
ef72: a0        ei
ef73: 91        tcall 9
ef74: 11        tcall 1
ef75: af        mov   (x)+,a
ef76: 7d        mov   a,x
ef77: 02 1b     set0  $1b
ef79: d5 1f b0  mov   $b01f+x,a
ef7c: 01        tcall 0
ef7d: fe 51     dbnz  y,$efd0
ef7f: e0        clrv
ef80: 1e d6 fd  cmp   x,$fdd6
ef83: 11        tcall 1
ef84: b0 df     bcs   $ef65
ef86: 6f        ret
ef87: f1        tcall 15
ef88: 0c 03 ef  asl   $ef03
ef8b: 0f        brk
ef8c: d3 b0 2f  bbc6  $b0,$efbd
ef8f: 1f e2 00  jmp   ($00e2+x)
ef92: 2f d4     bra   $ef68
ef94: 2c 32 b0  rol   $b032
ef97: c0        di
ef98: 4e d4 1d  tclr1 $1dd4
ef9b: 21        tcall 2
ef9c: ed        notc
ef9d: 30 d2     bmi   $ef71
ef9f: a0        ei
efa0: 3f b4 11  call  $11b4
efa3: 21        tcall 2
efa4: 1a 24     decw  $24
efa6: d0 12     bne   $efba
efa8: b0 e0     bcs   $ef8a
efaa: 40        setp
efab: f1        tcall 15
efac: 1e e4 1f  cmp   x,$1fe4
efaf: 01        tcall 0
efb0: fe b0     dbnz  y,$ef62
efb2: 61        tcall 6
efb3: d0 1e     bne   $efd3
efb5: d6 1e 11  mov   $111e+y,a
efb8: de 3f a0  cbne  $3f+x,$ef5a
efbb: e1        tcall 14
efbc: 1c        asl   a
efbd: 06        or    a,(x)
efbe: ff        stop
efbf: 2e e4 12  cbne  $e4,$efd3
efc2: 3d        inc   x
efc3: b0 f4     bcs   $efb9
efc5: de 4f c2  cbne  $4f+x,$ef89
efc8: 2c 15 ef  rol   $ef15
efcb: 30 a0     bmi   $ef6d
efcd: 90 6c     bcc   $f03b
efcf: 13 1c c6  bbc0  $1c,$ef97
efd2: ef        sleep
efd3: 10 eb     bpl   $efc0
efd5: b0 21     bcs   $eff8
efd7: ef        sleep
efd8: 11        tcall 1
efd9: e1        tcall 14
efda: 3f e0 1e  call  $1ee0
efdd: f3 b0 ee  bbc7  $b0,$efcd
efe0: 12 de     clr0  $de
efe2: 4e e1 0c  tclr1 $0ce1
efe5: 04 ff     or    a,$ff
efe7: a0        ei
efe8: 00        nop
efe9: b1        tcall 11
efea: 5e 03 ee  cmp   y,$ee03
efed: 31        tcall 3
efee: 12 ee     clr0  $ee
eff0: a0        ei
eff1: 4f f5     pcall $f5
eff3: fc        inc   y
eff4: 23 d0 6e  bbs1  $d0,$f064
eff7: e2 1f     set7  $1f
eff9: a0        ei
effa: d4 fd     mov   $fd+x,a
effc: 22 dd     set1  $dd
effe: 3d        inc   x
efff: e3 c2 1d  bbs7  $c2,$f01e
f002: a0        ei
f003: 24 dd     and   a,$dd
f005: 6c b5 1c  ror   $1cb5
f008: f6 ef 33  mov   a,$33ef+y
f00b: a0        ei
f00c: dd        mov   a,y
f00d: 5f d2 4e  jmp   $4ed2
f010: e5 3e 04  mov   a,$043e
f013: fa b0 33  mov   ($33),($b0)
f016: f1        tcall 15
f017: 31        tcall 3
f018: d4 2e     mov   $2e+x,a
f01a: 22 fe     set1  $fe
f01c: 61        tcall 6
f01d: b0 e0     bcs   $efff
f01f: 0d        push  psw
f020: f4 ff     mov   a,$ff+x
f022: 11        tcall 1
f023: e2 3f     set7  $3f
f025: 10 b0     bpl   $efd7
f027: d1        tcall 13
f028: 1f 20 c1  jmp   ($c120+x)
f02b: 3b 14     rol   $14+x
f02d: de 4f b0  cbne  $4f+x,$efdf
f030: b2 3d     clr5  $3d
f032: 12 fd     clr0  $fd
f034: 22 d2     set1  $d2
f036: 31        tcall 3
f037: e1        tcall 14
f038: a0        ei
f039: 2f 31     bra   $f06c
f03b: 3b 07     rol   $07+x
f03d: f0 12     beq   $f051
f03f: dd        mov   a,y
f040: 72 b0     clr3  $b0
f042: e0        clrv
f043: 1f d3 2e  jmp   ($2ed3+x)
f046: 01        tcall 0
f047: 0c 32 d0  asl   $d032
f04a: b0 1f     bcs   $f06b
f04c: b3 2d 12  bbc5  $2d,$f060
f04f: fe 40     dbnz  y,$f091
f051: e0        clrv
f052: 1f b0 f3  jmp   ($f3b0+x)
f055: 0f        brk
f056: 10 f2     bpl   $f04a
f058: 10 1f     bpl   $f079
f05a: e4 0d     mov   a,$0d
f05c: b0 41     bcs   $f09f
f05e: d1        tcall 13
f05f: 3c        rol   a
f060: e4 ec     mov   a,$ec
f062: 22 ef     set1  $ef
f064: 3e a0     cmp   x,$a0
f066: d3 2f b5  bbc6  $2f,$f01d
f069: 0d        push  psw
f06a: 21        tcall 2
f06b: 1b 24     asl   $24+x
f06d: ef        sleep
f06e: b0 11     bcs   $f081
f070: de 20 f1  cbne  $20+x,$f063
f073: 1e d3 0e  cmp   x,$0ed3
f076: 12 b0     clr0  $b0
f078: fe 51     dbnz  y,$f0cb
f07a: e1        tcall 14
f07b: 1e f4 0f  cmp   x,$0ff4
f07e: 11        tcall 1
f07f: ef        sleep
f080: a0        ei
f081: 70 e2     bvs   $f065
f083: fe 21     dbnz  y,$f0a6
f085: 12 fc     clr0  $fc
f087: 5f b7 b0  jmp   $b0b7
f08a: 0d        push  psw
f08b: 14 ee     or    a,$ee+x
f08d: 40        setp
f08e: d1        tcall 13
f08f: 1e e3 0e  cmp   x,$0ee3
f092: a0        ei
f093: 42 eb     set2  $eb
f095: 33 d2 11  bbc1  $d2,$f0a8
f098: d0 5f     bne   $f0f9
f09a: 01        tcall 0
f09b: a0        ei
f09c: 2f d3     bra   $f071
f09e: 2f 02     bra   $f0a2
f0a0: 0b 15     asl   $15
f0a2: ee        pop   y
f0a3: 11        tcall 1
f0a4: a0        ei
f0a5: ce        pop   x
f0a6: 70 e1     bvs   $f089
f0a8: 2e d7 2d  cbne  $d7,$f0d7
f0ab: 12 ec     clr0  $ec
f0ad: a0        ei
f0ae: 42 e0     set2  $e0
f0b0: 1f e3 1e  jmp   ($1ee3+x)
f0b3: 01        tcall 0
f0b4: ef        sleep
f0b5: 21        tcall 2
f0b6: a0        ei
f0b7: 00        nop
f0b8: ef        sleep
f0b9: 3e f4     cmp   x,$f4
f0bb: 0d        push  psw
f0bc: 24 d0     and   a,$d0
f0be: 5f a0 d3  jmp   $d3a0
f0c1: 3e e4     cmp   x,$e4
f0c3: 1d        dec   x
f0c4: 11        tcall 1
f0c5: fd        mov   y,a
f0c6: 01        tcall 0
f0c7: e1        tcall 14
f0c8: 90 43     bcc   $f10d
f0ca: ed        notc
f0cb: 30 e0     bmi   $f0ad
f0cd: 20        clrp
f0ce: c1        tcall 12
f0cf: 3e e0     cmp   x,$e0
f0d1: 90 1d     bcc   $f0f0
f0d3: d5 2c f2  mov   $f22c+x,a
f0d6: fa 15 de  mov   ($de),($15)
f0d9: 22 90     set1  $90
f0db: d0 60     bne   $f13d
f0dd: e1        tcall 14
f0de: 1d        dec   x
f0df: d3 1e f1  bbc6  $1e,$f0d2
f0e2: 0f        brk
f0e3: 80        setc
f0e4: 43 ef 1f  bbs2  $ef,$f105
f0e7: 10 f3     bpl   $f0dc
f0e9: 1d        dec   x
f0ea: e5 e9 80  mov   a,$80e9
f0ed: 43 be 51  bbs2  $be,$f140
f0f0: b1        tcall 11
f0f1: 4c c2 1e  lsr   $1ec2
f0f4: e4 70     mov   a,$70
f0f6: 4b 22     lsr   $22
f0f8: 0c f6 0f  asl   $0ff6
f0fb: 12 1c     clr0  $1c
f0fd: 04 70     or    a,$70
f0ff: 0f        brk
f100: 02 0d     set0  $0d
f102: 24 fe     and   a,$fe
f104: 12 ec     clr0  $ec
f106: 23 70 f0  bbs1  $70,$f0f8
f109: 32 dd     clr1  $dd
f10b: 31        tcall 3
f10c: e0        clrv
f10d: 20        clrp
f10e: d0 3f     bne   $f14f
f110: 50 b3     bvc   $f0c5
f112: 5c        lsr   a
f113: b7 4c     sbc   a,($4c)+y
f115: f3 1c f4  bbc7  $1c,$f10b
f118: 1e 41 f3  cmp   x,$f341
f11b: ed        notc
f11c: 23 00 0f  bbs1  $00,$f12d
f11f: 20        clrp
f120: e4 2d     mov   a,$2d
f122: 00        nop
f123: 00        nop
f124: 00        nop
f125: 00        nop
f126: 00        nop
f127: 00        nop
f128: 00        nop
f129: 00        nop
f12a: 00        nop
f12b: b0 3e     bcs   $f16b
f12d: 02 df     set0  $df
f12f: 40        setp
f130: e2 fe     set7  $fe
f132: 30 e2     bmi   $f116
f134: b0 fd     bcs   $f133
f136: 32 d1     clr1  $d1
f138: 2d        push  a
f139: 13 e0 2d  bbc0  $e0,$f168
f13c: f4 b0     mov   a,$b0+x
f13e: fd        mov   y,a
f13f: 2f d3     bra   $f114
f141: 1c        asl   a
f142: 11        tcall 1
f143: c1        tcall 12
f144: 4e f3 b0  tclr1 $b0f3
f147: ef        sleep
f148: 50 d3     bvc   $f11d
f14a: 0d        push  psw
f14b: 43 c0 2c  bbs2  $c0,$f179
f14e: 03 b0 df  bbs0  $b0,$f12f
f151: 3d        inc   x
f152: e4 0d     mov   a,$0d
f154: 3f b3 2c  call  $2cb3
f157: 23 b0 c1  bbs1  $b0,$f11a
f15a: 4d        push  x
f15b: 04 ce     or    a,$ce
f15d: 5e e5 fc  cmp   y,$fce5
f160: 52 b0     clr2  $b0
f162: c3 2c 34  bbs6  $2c,$f198
f165: c1        tcall 12
f166: 3c        rol   a
f167: 16 ef 3c  or    a,$3cef+y
f16a: b0 f7     bcs   $f163
f16c: fe 5e     dbnz  y,$f1cc
f16e: b6 2a 21  sbc   a,$212a+y
f171: 93 5b b0  bbc4  $5b,$f123
f174: 15 b0 7d  or    a,$7db0+x
f177: d6 ed 7f  mov   $7fed+y,a
f17a: a4 1b     sbc   a,$1b
f17c: c0        di
f17d: 22 d1     set1  $d1
f17f: 2d        push  a
f180: 02 df     set0  $df
f182: 2d        push  a
f183: e4 0e     mov   a,$0e
f185: c0        di
f186: 30 d3     bmi   $f15b
f188: 1c        asl   a
f189: 11        tcall 1
f18a: c1        tcall 12
f18b: 4e f3 ef  tclr1 $eff3
f18e: c0        di
f18f: 4f e3     pcall $e3
f191: 0e 42 c0  tset1 $c042
f194: 1d        dec   x
f195: 23 d0 c0  bbs1  $d0,$f157
f198: 1c        asl   a
f199: f3 ee 3f  bbc7  $ee,$f1da
f19c: f4 fe     mov   a,$fe+x
f19e: 30 e4     bmi   $f184
f1a0: c0        di
f1a1: 3d        inc   x
f1a2: 12 e2     clr0  $e2
f1a4: 3d        inc   x
f1a5: 02 e0     set0  $e0
f1a7: 4f d2     pcall $d2
f1a9: b0 fe     bcs   $f1a9
f1ab: 7e b5     cmp   y,$b5
f1ad: f9 45     mov   x,$45+y
f1af: a0        ei
f1b0: 4b 36     lsr   $36
f1b2: c0        di
f1b3: d0 2d     bne   $f1e2
f1b5: e3 0d 21  bbs7  $0d,$f1d8
f1b8: e3 0d 32  bbs7  $0d,$f1ec
f1bb: c0        di
f1bc: d0 40     bne   $f1fe
f1be: e1        tcall 14
f1bf: ef        sleep
f1c0: 2d        push  a
f1c1: f2 ee     clr7  $ee
f1c3: 33 b0 c0  bbc1  $b0,$f185
f1c6: 3e 40     cmp   x,$40
f1c8: c4 1c     mov   $1c,a
f1ca: 16 ec 31  or    a,$31ec+y
f1cd: b0 0f     bcs   $f1de
f1cf: f1        tcall 15
f1d0: fe 05     dbnz  y,$f1d7
f1d2: 1b 06     asl   $06+x
f1d4: 09 44 c0  or    ($c0),($44)
f1d7: df        daa   a
f1d8: 11        tcall 1
f1d9: ff        stop
f1da: 02 2c     set0  $2c
f1dc: 14 d0     or    a,$d0+x
f1de: 21        tcall 2
f1df: c0        di
f1e0: 00        nop
f1e1: fe 3f     dbnz  y,$f222
f1e3: d4 fe     mov   $fe+x,a
f1e5: 20        clrp
f1e6: 00        nop
f1e7: 0e b0 16  tset1 $16b0
f1ea: ae        pop   a
f1eb: 4d        push  x
f1ec: 12 e1     clr0  $e1
f1ee: 11        tcall 1
f1ef: ff        stop
f1f0: 11        tcall 1
f1f1: b0 0e     bcs   $f201
f1f3: 04 0c     or    a,$0c
f1f5: 24 2e     and   a,$2e
f1f7: d2 4e     clr6  $4e
f1f9: d5 b0 2a  mov   $2ab0+x,a
f1fc: d4 4f     mov   $4f+x,a
f1fe: cf        mul   ya
f1ff: 34 df     and   a,$df+x
f201: 5c        lsr   a
f202: b3 b0 5f  bbc5  $b0,$f263
f205: a1        tcall 10
f206: 2e 32 fe  cbne  $32,$f206
f209: e2 11     set7  $11
f20b: e0        clrv
f20c: c0        di
f20d: 2e 05 0c  cbne  $05,$f21b
f210: 02 0f     set0  $0f
f212: ff        stop
f213: 21        tcall 2
f214: d2 c0     clr6  $c0
f216: 5e c3 30  cmp   y,$30c3
f219: 00        nop
f21a: 01        tcall 0
f21b: 0e 13 fd  tset1 $fd13
f21e: b0 33     bcs   $f253
f220: de 01 f1  cbne  $01+x,$f213
f223: 0f        brk
f224: 33 cf 4e  bbc1  $cf,$f274
f227: b0 d0     bcs   $f1f9
f229: 20        clrp
f22a: 10 c2     bpl   $f1ee
f22c: 6e d3 fd  dbnz  $d3,$f22b
f22f: 13 c0 f0  bbc0  $c0,$f221
f232: 1e 04 0e  cmp   x,$0e04
f235: 21        tcall 2
f236: f0 0e     beq   $f246
f238: 01        tcall 0
f239: c0        di
f23a: df        daa   a
f23b: 40        setp
f23c: d2 2f     clr6  $2f
f23e: f0 01     beq   $f241
f240: 1d        dec   x
f241: 04 b0     or    a,$b0
f243: ea 43 ce  not1  $19c8,3
f246: 20        clrp
f247: 13 c0 7f  bbc0  $c0,$f2c8
f24a: 93 b0 2b  bbc4  $b0,$f277
f24d: f3 ff 4d  bbc7  $ff,$f29c
f250: d6 19 22  mov   $2219+y,a
f253: cf        mul   ya
f254: b0 3f     bcs   $f295
f256: e4 db     mov   a,$db
f258: 64 b0     cmp   a,$b0
f25a: 2d        push  a
f25b: e2 fe     set7  $fe
f25d: b0 4f     bcs   $f2ae
f25f: c5 4b f3  mov   $f34b,a
f262: f0 20     beq   $f284
f264: e3 fc b0  bbs7  $fc,$f216
f267: 44 cf     eor   a,$cf
f269: 1e f2 1e  cmp   x,$1ef2
f26c: 31        tcall 3
f26d: d3 4d b0  bbc6  $4d,$f21f
f270: f2 ee     clr7  $ee
f272: 31        tcall 3
f273: c3 2c 35  bbs6  $2c,$f2aa
f276: ce        pop   x
f277: 3f b0 f3  call  $f3b0
f27a: 0b 32     asl   $32
f27c: a2 7d     set5  $7d
f27e: d4 1f     mov   $1f+x,a
f280: 21        tcall 2
f281: b0 d4     bcs   $f257
f283: 4b 27     lsr   $27
f285: dc        dec   y
f286: 31        tcall 3
f287: e1        tcall 14
f288: 1d        dec   x
f289: 23 b0 c2  bbs1  $b0,$f24d
f28c: 7e d4     cmp   y,$d4
f28e: 1e 01 e2  cmp   x,$e201
f291: 4c 06 b0  lsr   $b006
f294: ec 31 ef  mov   y,$ef31
f297: 1e 14 be  cmp   x,$be14
f29a: 6e c4 b0  dbnz  $c4,$f24c
f29d: 1c        asl   a
f29e: f2 d1     clr7  $d1
f2a0: 6c e6 fd  ror   $fde6
f2a3: 42 d0     set2  $d0
f2a5: b0 3c     bcs   $f2e3
f2a7: f6 cc 61  mov   a,$61cc+y
f2aa: b1        tcall 11
f2ab: 1c        asl   a
f2ac: e3 ef c0  bbs7  $ef,$f26e
f2af: 3f e3 1e  call  $1ee3
f2b2: 00        nop
f2b3: e0        clrv
f2b4: 2f 04     bra   $f2ba
f2b6: ff        stop
f2b7: b0 71     bcs   $f32a
f2b9: e2 ec     set7  $ec
f2bb: 15 db 3e  or    a,$3edb+x
f2be: 05 cd c0  or    a,$c0cd
f2c1: 31        tcall 3
f2c2: ef        sleep
f2c3: 10 21     bpl   $f2e6
f2c5: d0 3f     bne   $f306
f2c7: e2 2e     set7  $2e
f2c9: c0        di
f2ca: e0        clrv
f2cb: e2 2d     set7  $2d
f2cd: 15 fc 12  or    a,$12fc+x
f2d0: 00        nop
f2d1: fd        mov   y,a
f2d2: c0        di
f2d3: 14 dd     or    a,$dd+x
f2d5: 31        tcall 3
f2d6: fd        mov   y,a
f2d7: e4 3f     mov   a,$3f
f2d9: d0 11     bne   $f2ec
f2db: c0        di
f2dc: 20        clrp
f2dd: 03 fc 25  bbs0  $fc,$f304
f2e0: 0d        push  psw
f2e1: ff        stop
f2e2: 13 f0 c0  bbc0  $f0,$f2a4
f2e5: 3f be 43  call  $43be
f2e8: f0 fe     beq   $f2e8
f2ea: 12 00     clr0  $00
f2ec: 0f        brk
f2ed: c4 ff     mov   $ff,a
f2ef: 13 fe 1f  bbc0  $fe,$f310
f2f2: 14 fd     or    a,$fd+x
f2f4: 13 db c0  bbc0  $db,$f2b6
f2f7: 14 0f     or    a,$0f+x
f2f9: de 44 ff  cbne  $44+x,$f2fa
f2fc: 20        clrp
f2fd: be        das   a
f2fe: 43 c0 ff  bbs2  $c0,$f2ff
f301: f0 21     beq   $f324
f303: f0 0e     beq   $f313
f305: ce        pop   x
f306: 33 ff c0  bbc1  $ff,$f2c8
f309: fe 13     dbnz  y,$f31e
f30b: 2f f0     bra   $f2fd
f30d: ce        pop   x
f30e: 32 fe     clr1  $fe
f310: df        daa   a
f311: b0 64     bcs   $f377
f313: f1        tcall 15
f314: 2a b4 75  or1   c,!($0eb6,4)
f317: fc        inc   y
f318: 90 71     bcc   $f38b
f31a: c0        di
f31b: 01        tcall 0
f31c: 0c b1 53  asl   $53b1
f31f: ff        stop
f320: fe 12     dbnz  y,$f334
f322: 02 c0     set0  $c0
f324: 1c        asl   a
f325: d3 4f df  bbc6  $4f,$f306
f328: d0 41     bne   $f36b
f32a: 12 fc     clr0  $fc
f32c: c0        di
f32d: 04 30     or    a,$30
f32f: ff        stop
f330: e1        tcall 14
f331: 31        tcall 3
f332: 00        nop
f333: 0c d3 c0  asl   $c0d3
f336: 4f df     pcall $df
f338: df        daa   a
f339: 30 f3     bmi   $f32e
f33b: 0b e4     asl   $e4
f33d: 2e c0 fe  cbne  $c0,$f33d
f340: e3 21 31  bbs7  $21,$f373
f343: cd 34     mov   x,#$34
f345: fe fe     dbnz  y,$f345
f347: c0        di
f348: 03 11 20  bbs0  $11,$f36a
f34b: cc 14 1e  mov   $1e14,y
f34e: fe f3     dbnz  y,$f343
f350: c0        di
f351: 30 11     bmi   $f364
f353: dc        dec   y
f354: 34 ff     and   a,$ff+x
f356: fd        mov   y,a
f357: 13 01 c0  bbc0  $01,$f319
f35a: 3f be 32  call  $32be
f35d: f0 fe     beq   $f35d
f35f: 11        tcall 1
f360: 02 2f     set0  $2f
f362: c0        di
f363: ce        pop   x
f364: 33 fe fd  bbc1  $fe,$f363
f367: f4 3f     mov   a,$3f+x
f369: 00        nop
f36a: cf        mul   ya
f36b: c0        di
f36c: 42 ee     set2  $ee
f36e: dc        dec   y
f36f: 13 01 1d  bbc0  $01,$f38e
f372: c1        tcall 12
f373: 42 c0     set2  $c0
f375: ff        stop
f376: ef        sleep
f377: 33 21 1e  bbc1  $21,$f397
f37a: b0 42     bcs   $f3be
f37c: ff        stop
f37d: c0        di
f37e: fd        mov   y,a
f37f: 04 01     or    a,$01
f381: 3e b0     cmp   x,$b0
f383: 41        tcall 4
f384: df        daa   a
f385: fd        mov   y,a
f386: c0        di
f387: 12 01     clr0  $01
f389: 0c d2 3f  asl   $3fd2
f38c: e0        clrv
f38d: ee        pop   y
f38e: 22 c0     set1  $c0
f390: 11        tcall 1
f391: 0d        push  psw
f392: e3 41 f0  bbs7  $41,$f384
f395: fd        mov   y,a
f396: 24 ef     and   a,$ef
f398: c0        di
f399: 3e b0     cmp   x,$b0
f39b: 40        setp
f39c: e1        tcall 14
f39d: ee        pop   y
f39e: 42 03     set2  $03
f3a0: 0b c0     asl   $c0
f3a2: e4 2d     mov   a,$2d
f3a4: ff        stop
f3a5: e3 2f 23  bbs7  $2f,$f3ca
f3a8: eb f5     mov   y,$f5
f3aa: c0        di
f3ab: 4f e0     pcall $e0
f3ad: fe 23     dbnz  y,$f3d2
f3af: 00        nop
f3b0: fc        inc   y
f3b1: d3 3d c0  bbc6  $3d,$f373
f3b4: e0        clrv
f3b5: d0 41     bne   $f3f8
f3b7: f0 eb     beq   $f3a4
f3b9: f4 0d     mov   a,$0d+x
f3bb: 0e c0 d2  tset1 $d2c0
f3be: 10 10     bpl   $f3d0
f3c0: dc        dec   y
f3c1: 04 2f     or    a,$2f
f3c3: ef        sleep
f3c4: ef        sleep
f3c5: c0        di
f3c6: 33 10 ec  bbc1  $10,$f3b4
f3c9: e4 4f     mov   a,$4f
f3cb: e0        clrv
f3cc: df        daa   a
f3cd: 33 c0 10  bbc1  $c0,$f3df
f3d0: fd        mov   y,a
f3d1: 04 2e     or    a,$2e
f3d3: ff        stop
f3d4: f2 32     clr7  $32
f3d6: 10 c0     bpl   $f398
f3d8: ed        notc
f3d9: 23 0f ff  bbs1  $0f,$f3da
f3dc: de 22 21  cbne  $22+x,$f3ff
f3df: de c0 12  cbne  $c0+x,$f3f3
f3e2: 30 ef     bmi   $f3d3
f3e4: de 23 1e  cbne  $23+x,$f404
f3e7: dd        mov   a,y
f3e8: 04 c0     or    a,$c0
f3ea: 2e f0 f1  cbne  $f0,$f3dd
f3ed: 32 1f     clr1  $1f
f3ef: cc 13 1e  mov   $1e13,y
f3f2: c0        di
f3f3: e0        clrv
f3f4: ee        pop   y
f3f5: 22 22     set1  $22
f3f7: dc        dec   y
f3f8: 03 2f f0  bbs0  $2f,$f3ea
f3fb: c0        di
f3fc: df        daa   a
f3fd: 32 20     clr1  $20
f3ff: cd 24     mov   x,#$24
f401: fd        mov   y,a
f402: ff        stop
f403: f1        tcall 15
f404: c0        di
f405: 23 3e cf  bbs1  $3e,$f3d6
f408: 33 1f ff  bbc1  $1f,$f409
f40b: d0 41     bne   $f44e
f40d: c0        di
f40e: f2 0c     clr7  $0c
f410: f4 2e     mov   a,$2e+x
f412: fe e3     dbnz  y,$f3f7
f414: 31        tcall 3
f415: 20        clrp
f416: c0        di
f417: cd 34     mov   x,#$34
f419: 0f        brk
f41a: ef        sleep
f41b: 32 02     clr1  $02
f41d: 1e df c4  cmp   x,$c4df
f420: 32 ed     clr1  $ed
f422: 01        tcall 0
f423: e1        tcall 14
f424: 40        setp
f425: ff        stop
f426: de 44 b0  cbne  $44+x,$f3d8
f429: 3d        inc   x
f42a: fd        mov   y,a
f42b: 91        tcall 9
f42c: 64 0c     cmp   a,$0c
f42e: 9c        dec   a
f42f: 77 eb     cmp   a,($eb)+y
f431: b0 0f     bcs   $f442
f433: e3 43 eb  bbs7  $43,$f420
f436: ae        pop   a
f437: 55 30 dc  eor   a,$dc30+x
f43a: c0        di
f43b: e1        tcall 14
f43c: 32 10     clr1  $10
f43e: 0e f3 3f  tset1 $3ff3
f441: ef        sleep
f442: e2 c0     set7  $c0
f444: 41        tcall 4
f445: f0 ed     beq   $f434
f447: 24 0c     and   a,$0c
f449: 12 e1     clr0  $e1
f44b: 31        tcall 3
f44c: b0 ca     bcs   $f418
f44e: b0 64     bcs   $f4b4
f450: 10 ee     bpl   $f440
f452: bc        inc   a
f453: 45 31 c0  eor   a,$c031
f456: de 11 20  cbne  $11+x,$f478
f459: ff        stop
f45a: d1        tcall 13
f45b: 42 0d     set2  $0d
f45d: e2 c0     set7  $c0
f45f: 01        tcall 0
f460: 1f 0f 03  jmp   ($030f+x)
f463: 30 c0     bmi   $f425
f465: 3e 15     cmp   x,$15
f467: c0        di
f468: 1e f0 ef  cmp   x,$eff0
f46b: 32 23     clr1  $23
f46d: eb 03     mov   y,$03
f46f: 1f b0 0e  jmp   ($0eb0+x)
f472: d4 31     mov   $31+x,a
f474: 3c        rol   a
f475: b3 20 ff  bbc5  $20,$f476
f478: 00        nop
f479: b0 10     bcs   $f48b
f47b: 11        tcall 1
f47c: ce        pop   x
f47d: 1e 23 fe  cmp   x,$fe23
f480: 0e c2 c0  tset1 $c0c2
f483: 1f 12 fd  jmp   ($fd12+x)
f486: 13 0f ed  bbc0  $0f,$f475
f489: 12 01     clr0  $01
f48b: b0 2b     bcs   $f4b8
f48d: d1        tcall 13
f48e: 21        tcall 2
f48f: ef        sleep
f490: 13 10 1c  bbc0  $10,$f4ae
f493: b1        tcall 11
f494: b0 0d     bcs   $f4a3
f496: 46        eor   a,(x)
f497: ec 2d 94  mov   y,$942d
f49a: 51        tcall 5
f49b: 42 a9     set2  $a9
f49d: c0        di
f49e: 23 00 ed  bbs1  $00,$f48d
f4a1: 24 0f     and   a,$0f
f4a3: 0e 02 0e  tset1 $0e02
f4a6: b0 37     bcs   $f4df
f4a8: ef        sleep
f4a9: 54 cb     eor   a,$cb+x
f4ab: 03 ed 54  bbs0  $ed,$f501
f4ae: ee        pop   y
f4af: c0        di
f4b0: 0d        push  psw
f4b1: d2 20     clr6  $20
f4b3: 21        tcall 2
f4b4: ce        pop   x
f4b5: 31        tcall 3
f4b6: f0 ee     beq   $f4a6
f4b8: c0        di
f4b9: 43 d2 2c  bbs2  $d2,$f4e7
f4bc: 14 fd     or    a,$fd+x
f4be: 34 ef     and   a,$ef+x
f4c0: 41        tcall 4
f4c1: c0        di
f4c2: cc 14 f0  mov   $f014,y
f4c5: 41        tcall 4
f4c6: ef        sleep
f4c7: 0e 02 f1  tset1 $f102
f4ca: c0        di
f4cb: 3e b1     cmp   x,$b1
f4cd: 51        tcall 5
f4ce: f0 e1     beq   $f4b1
f4d0: 50 e3     bvc   $f4b5
f4d2: 0e c0 11  tset1 $11c0
f4d5: ed        notc
f4d6: 21        tcall 2
f4d7: e1        tcall 14
f4d8: 2f be     bra   $f498
f4da: 4f d3     pcall $d3
f4dc: c0        di
f4dd: 2e e1 ed  cbne  $e1,$f4cc
f4e0: 30 e3     bmi   $f4c5
f4e2: 1c        asl   a
f4e3: d4 40     mov   $40+x,a
f4e5: c0        di
f4e6: fd        mov   y,a
f4e7: 05 20 1f  or    a,$1f20
f4ea: e1        tcall 14
f4eb: 2f d0     bra   $f4bd
f4ed: 10 c0     bpl   $f4af
f4ef: f2 3d     clr7  $3d
f4f1: d3 2d f2  bbc6  $2d,$f4e5
f4f4: 0e 0e d2  tset1 $d20e
f4f7: c0        di
f4f8: 1e 12 ec  cmp   x,$ec12
f4fb: 15 2f de  or    a,$de2f+x
f4fe: 33 f1 c0  bbc1  $f1,$f4c0
f501: 2d        push  a
f502: f1        tcall 15
f503: 11        tcall 1
f504: d0 2f     bne   $f535
f506: 03 0d 12  bbs0  $0d,$f51a
f509: c4 c4     mov   $c4,a
f50b: 2c 1f ef  rol   $ef1f
f50e: 23 f0 0f  bbs1  $f0,$f51f
f511: 0c c0 f4  asl   $f4c0
f514: 1d        dec   x
f515: cf        mul   ya
f516: 32 11     clr1  $11
f518: 00        nop
f519: e1        tcall 14
f51a: 3d        inc   x
f51b: c0        di
f51c: f2 ff     clr7  $ff
f51e: 20        clrp
f51f: b1        tcall 11
f520: 2b 04     rol   $04
f522: 01        tcall 0
f523: 1f c0 fe  jmp   ($fec0+x)
f526: f2 30     clr7  $30
f528: 01        tcall 0
f529: de 33 fc  cbne  $33+x,$f527
f52c: c0        di
f52d: c0        di
f52e: 41        tcall 4
f52f: b0 2d     bcs   $f55e
f531: d1        tcall 13
f532: 1f 20 e3  jmp   ($e320+x)
f535: 3d        inc   x
f536: c0        di
f537: d1        tcall 13
f538: 2f f2     bra   $f52c
f53a: 10 ef     bpl   $f52b
f53c: 0c 04 12  asl   $1204
f53f: c0        di
f540: 2d        push  a
f541: c2 51     set6  $51
f543: fe d2     dbnz  y,$f517
f545: 4e f2 ef  tclr1 $eff2
f548: c0        di
f549: 40        setp
f54a: c2 2c     set6  $2c
f54c: 04 2d     or    a,$2d
f54e: d3 3e e3  bbc6  $3e,$f533
f551: c4 ec     mov   $ec,a
f553: 31        tcall 3
f554: c3 4d f3  bbs6  $4d,$f549
f557: db 54     mov   $54+x,y
f559: d0 c0     bne   $f51b
f55b: 0d        push  psw
f55c: f4 3f     mov   a,$3f+x
f55e: 0e d2 1f  tset1 $1fd2
f561: f1        tcall 15
f562: 2e c0 e2  cbne  $c0,$f546
f565: 1c        asl   a
f566: c3 3c 16  bbs6  $3c,$f57e
f569: 0f        brk
f56a: 10 d0     bpl   $f53c
f56c: c0        di
f56d: 41        tcall 4
f56e: 13 0c c1  bbc0  $0c,$f531
f571: 53 fc f4  bbc2  $fc,$f567
f574: 30 c0     bmi   $f536
f576: f0 10     beq   $f588
f578: 12 ee     clr0  $ee
f57a: 31        tcall 3
f57b: d2 4d     clr6  $4d
f57d: c4 c0     mov   $c0,a
f57f: 3c        rol   a
f580: 15 fe 1f  or    a,$1ffe+x
f583: e1        tcall 14
f584: 21        tcall 2
f585: 12 fb     clr0  $fb
f587: c0        di
f588: e3 3f dd  bbs7  $3f,$f567
f58b: f4 4e     mov   a,$4e+x
f58d: f0 ef     beq   $f57e
f58f: 11        tcall 1
f590: c0        di
f591: c1        tcall 12
f592: 5d        mov   x,a
f593: f5 1c e5  mov   a,$e51c+x
f596: 2e 11 1f  cbne  $11,$f5b7
f599: c0        di
f59a: f0 d0     beq   $f56c
f59c: 30 f2     bmi   $f590
f59e: 0b e4     asl   $e4
f5a0: 1f 0d c0  jmp   ($c00d+x)
f5a3: e4 3f     mov   a,$3f
f5a5: ff        stop
f5a6: e1        tcall 14
f5a7: 0c f4 0d  asl   $0df4
f5aa: 14 c0     or    a,$c0+x
f5ac: fd        mov   y,a
f5ad: f2 5f     clr7  $5f
f5af: e4 2e     mov   a,$2e
f5b1: ff        stop
f5b2: d0 30     bne   $f5e4
f5b4: c0        di
f5b5: 13 ec 24  bbc0  $ec,$f5db
f5b8: 0e ed 24  tset1 $24ed
f5bb: 02 fc     set0  $fc
f5bd: c0        di
f5be: 10 ee     bpl   $f5ae
f5c0: 02 1f     set0  $1f
f5c2: e2 2b     set7  $2b
f5c4: d4 1f     mov   $1f+x,a
f5c6: c0        di
f5c7: 21        tcall 2
f5c8: ef        sleep
f5c9: 2d        push  a
f5ca: e3 0f 21  bbs7  $0f,$f5ed
f5cd: cd 33     mov   x,#$33
f5cf: b0 1e     bcs   $f5ef
f5d1: ae        pop   a
f5d2: 62 22     set3  $22
f5d4: ad 3f     cmp   y,#$3f
f5d6: e1        tcall 14
f5d7: f0 c4     beq   $f59d
f5d9: 4d        push  x
f5da: e5 db 44  mov   a,$44db
f5dd: c0        di
f5de: 2c f4 fc  rol   $fcf4
f5e1: c0        di
f5e2: 04 10     or    a,$10
f5e4: 31        tcall 3
f5e5: be        das   a
f5e6: 22 1e     set1  $1e
f5e8: c0        di
f5e9: 41        tcall 4
f5ea: c0        di
f5eb: f1        tcall 15
f5ec: ee        pop   y
f5ed: 20        clrp
f5ee: fe 04     dbnz  y,$f5f4
f5f0: 0e 21 cc  tset1 $cc21
f5f3: b0 54     bcs   $f649
f5f5: d5 1e 31  mov   $311e+x,a
f5f8: cc 35 f1  mov   $f135,y
f5fb: 4e c4 d1  tclr1 $d1c4
f5fe: 43 dc f4  bbs2  $dc,$f5f4
f601: 4c f1 f1  lsr   $f1f1
f604: 01        tcall 0
f605: c0        di
f606: 0d        push  psw
f607: 11        tcall 1
f608: e0        clrv
f609: 20        clrp
f60a: ce        pop   x
f60b: 40        setp
f60c: e3 1f b4  bbs7  $1f,$f5c2
f60f: f2 1e     clr7  $1e
f611: 11        tcall 1
f612: 21        tcall 2
f613: 0c a5 6e  asl   $6ea5
f616: df        daa   a
f617: c0        di
f618: df        daa   a
f619: 42 fe     set2  $fe
f61b: f2 0f     clr7  $0f
f61d: ef        sleep
f61e: 31        tcall 3
f61f: e0        clrv
f620: c0        di
f621: 40        setp
f622: be        das   a
f623: 52 d1     clr2  $d1
f625: 3f df ee  call  $eedf
f628: 32 c0     clr1  $c0
f62a: 02 3e     set0  $3e
f62c: c3 4f fe  bbs6  $4f,$f62c
f62f: e3 30 22  bbs7  $30,$f653
f632: c0        di
f633: de 31 dd  cbne  $31+x,$f612
f636: 23 0e 22  bbs1  $0e,$f65a
f639: bc        inc   a
f63a: 33 c0 ee  bbc1  $c0,$f62a
f63d: 0f        brk
f63e: 02 ed     set0  $ed
f640: 33 f0 30  bbc1  $f0,$f672
f643: c1        tcall 12
f644: c0        di
f645: 52 1f     clr2  $1f
f647: d1        tcall 13
f648: 40        setp
f649: d2 0c     clr6  $0c
f64b: 13 ed c0  bbc0  $ed,$f60d
f64e: 21        tcall 2
f64f: f1        tcall 15
f650: 3e be     cmp   x,$be
f652: 21        tcall 2
f653: e1        tcall 14
f654: 1e f2 c0  cmp   x,$c0f2
f657: ec 23 ef  mov   y,$ef23
f65a: 3f b0 31  call  $31b0
f65d: 2e c1 c0  cbne  $c1,$f61f
f660: 5f c1 fe  jmp   $fec1
f663: 31        tcall 3
f664: c0        di
f665: 40        setp
f666: e3 3d c0  bbs7  $3d,$f628
f669: bf        mov   a,(x)+
f66a: 53 cf 30  bbc2  $cf,$f69c
f66d: f0 00     beq   $f66f
f66f: 10 03     bpl   $f674
f671: c0        di
f672: 3d        inc   x
f673: c3 3f ee  bbs6  $3f,$f663
f676: d2 4e     clr6  $4e
f678: e0        clrv
f679: e0        clrv
f67a: c0        di
f67b: 20        clrp
f67c: cf        mul   ya
f67d: 40        setp
f67e: e3 2e df  bbs7  $2e,$f65f
f681: 32 0f     clr1  $0f
f683: c0        di
f684: f0 ff     beq   $f685
f686: ef        sleep
f687: 22 02     set1  $02
f689: 3d        inc   x
f68a: c2 4f     set6  $4f
f68c: c0        di
f68d: dc        dec   y
f68e: d3 2d 01  bbc6  $2d,$f691
f691: ee        pop   y
f692: 23 df 21  bbs1  $df,$f6b5
f695: b4 13     sbc   a,$13+x
f697: a9 36 2f  sbc   ($2f),($36)
f69a: 1b e4     asl   $e4+x
f69c: 2f b1     bra   $f64f
f69e: c0        di
f69f: 32 02     clr1  $02
f6a1: 1c        asl   a
f6a2: d3 2f 0e  bbc6  $2f,$f6b2
f6a5: e3 2e c0  bbs7  $2e,$f667
f6a8: ef        sleep
f6a9: 11        tcall 1
f6aa: 1f c2 3d  jmp   ($3dc2+x)
f6ad: 15 fa f5  or    a,$f5fa+x
f6b0: c0        di
f6b1: 0e 30 e0  tset1 $e030
f6b4: 0e 03 20  tset1 $2003
f6b7: 12 0c     clr0  $0c
f6b9: c0        di
f6ba: e4 40     mov   a,$40
f6bc: de 34 10  cbne  $34+x,$f6ce
f6bf: fe 02     dbnz  y,$f6c3
f6c1: 3e c0     cmp   x,$c0
f6c3: d3 1e 24  bbc6  $1e,$f6e9
f6c6: fc        inc   y
f6c7: 02 f1     set0  $f1
f6c9: 20        clrp
f6ca: 21        tcall 2
f6cb: c4 e0     mov   $e0,a
f6cd: 20        clrp
f6ce: e2 1f     set7  $1f
f6d0: de 44 dd  cbne  $44+x,$f6af
f6d3: e2 c0     set7  $c0
f6d5: 43 ed e1  bbs2  $ed,$f6b8
f6d8: 00        nop
f6d9: 3f f1 11  call  $11f1
f6dc: 00        nop
f6dd: b0 cb     bcs   $f6aa
f6df: 33 e4 0c  bbc1  $e4,$f6ed
f6e2: 12 fa     clr0  $fa
f6e4: e5 50 c0  mov   a,$c050
f6e7: 04 1b     or    a,$1b
f6e9: f5 2e df  mov   a,$df2e+x
f6ec: 33 0d f2  bbc1  $0d,$f6e0
f6ef: c0        di
f6f0: fe 0f     dbnz  y,$f701
f6f2: 01        tcall 0
f6f3: fe 12     dbnz  y,$f707
f6f5: ec 25 0f  mov   y,$0f25
f6f8: b0 1f     bcs   $f719
f6fa: d0 1b     bne   $f717
f6fc: f4 1e     mov   a,$1e+x
f6fe: 33 ac 25  bbc1  $ac,$f725
f701: c4 0d     mov   $0d,a
f703: e3 3f ee  bbs7  $3f,$f6f3
f706: e3 3f e0  bbs7  $3f,$f6e8
f709: 21        tcall 2
f70a: c0        di
f70b: 1f 11 cb  jmp   ($cb11+x)
f70e: 14 fe     or    a,$fe+x
f710: 11        tcall 1
f711: 0f        brk
f712: ce        pop   x
f713: c0        di
f714: 42 dd     set2  $dd
f716: 23 cc 35  bbs1  $cc,$f74d
f719: 0d        push  psw
f71a: e2 3f     set7  $3f
f71c: b0 d5     bcs   $f6f3
f71e: e9 17 19  mov   x,$1917
f721: 05 0f 31  or    a,$310f
f724: cc c0 11  mov   $11c0,y
f727: 12 f0     clr0  $f0
f729: 1f e0 33  jmp   ($33e0+x)
f72c: ef        sleep
f72d: 40        setp
f72e: c0        di
f72f: c0        di
f730: 33 0d e3  bbc1  $0d,$f715
f733: 3d        inc   x
f734: d1        tcall 13
f735: fe 12     dbnz  y,$f749
f737: b0 fe     bcs   $f737
f739: 21        tcall 2
f73a: 25 0c d1  and   a,$d10c
f73d: 6d        push  y
f73e: c6        mov   (x),a
f73f: 1e b4 2e  cmp   x,$2eb4
f742: f4 3b     mov   a,$3b+x
f744: f3 1c c4  bbc7  $1c,$f70a
f747: 50 ab     bvc   $f6f4
f749: b0 e6     bcs   $f731
f74b: 41        tcall 4
f74c: ea 04 ee  not1  $1dc0,4
f74f: 02 2e     set0  $2e
f751: d4 c0     mov   $c0+x,a
f753: 3e af     cmp   x,$af
f755: 3e f3     cmp   x,$f3
f757: fd        mov   y,a
f758: 20        clrp
f759: b1        tcall 11
f75a: 5e c0 c2  cmp   y,$c2c0
f75d: 4d        push  x
f75e: c3 30 db  bbs6  $30,$f73b
f761: 26        and   a,(x)
f762: 0f        brk
f763: 1f b0 9c  jmp   ($9cb0+x)
f766: 65 bd 55  cmp   a,$55bd
f769: ff        stop
f76a: 30 bf     bmi   $f72b
f76c: 42 c0     set2  $c0
f76e: 0f        brk
f76f: 02 1e     set0  $1e
f771: c3 5e e2  bbs6  $5e,$f755
f774: 2d        push  a
f775: e2 c0     set7  $c0
f777: 2f ef     bra   $f768
f779: 34 ee     and   a,$ee+x
f77b: 2e e1 f0  cbne  $e1,$f76d
f77e: 2f c0     bra   $f740
f780: df        daa   a
f781: 11        tcall 1
f782: f0 11     beq   $f795
f784: fe 33     dbnz  y,$f7b9
f786: dd        mov   a,y
f787: 30 c0     bmi   $f749
f789: c0        di
f78a: 2f f3     bra   $f77f
f78c: 0c f1 13  asl   $13f1
f78f: 1c        asl   a
f790: f6 c0 4e  mov   a,$4ec0+y
f793: ee        pop   y
f794: c0        di
f795: 43 1e e1  bbs2  $1e,$f778
f798: 31        tcall 3
f799: de c0 23  cbne  $c0+x,$f7be
f79c: ed        notc
f79d: 22 de     set1  $de
f79f: 2f c0     bra   $f761
f7a1: 32 30     clr1  $30
f7a3: c0        di
f7a4: cf        mul   ya
f7a5: 31        tcall 3
f7a6: f1        tcall 15
f7a7: 2f f1     bra   $f79a
f7a9: 10 fd     bpl   $f7a8
f7ab: d1        tcall 13
f7ac: b0 40     bcs   $f7ee
f7ae: 24 cb     and   a,$cb
f7b0: 1e e1 21  cmp   x,$21e1
f7b3: bf        mov   a,(x)+
f7b4: 55 c0 0b  eor   a,$0bc0+x
f7b7: e3 0e 12  bbs7  $0e,$f7cb
f7ba: 1f cf 41  jmp   ($41cf+x)
f7bd: e1        tcall 14
f7be: c0        di
f7bf: 1f f0 21  jmp   ($21f0+x)
f7c2: ec c3 5d  mov   y,$5dc3
f7c5: e2 ed     set7  $ed
f7c7: b0 35     bcs   $f7fe
f7c9: 0a d6 3f  or1   c,$07fa,6
f7cc: 02 ea     set0  $ea
f7ce: 24 0d     and   a,$0d
f7d0: c0        di
f7d1: 02 11     set0  $11
f7d3: ec 34 df  mov   y,$df34
f7d6: 1f 00 02  jmp   ($0200+x)
f7d9: c4 de     mov   $de,a
f7db: 34 ec     and   a,$ec+x
f7dd: 22 d0     set1  $d0
f7df: 2e e4 4c  cbne  $e4,$f82d
f7e2: c0        di
f7e3: ce        pop   x
f7e4: 24 1f     and   a,$1f
f7e6: fe 00     dbnz  y,$f7e8
f7e8: 13 fc e0  bbc0  $fc,$f7ca
f7eb: b0 35     bcs   $f822
f7ed: 20        clrp
f7ee: de 23 fb  cbne  $23+x,$f7eb
f7f1: 35 bc 44  and   a,$44bc+x
f7f4: b0 51     bcs   $f847
f7f6: cd 24     mov   x,#$24
f7f8: ff        stop
f7f9: 43 db 04  bbs2  $db,$f7ff
f7fc: 1c        asl   a
f7fd: c4 03     mov   $03,a
f7ff: 0d        push  psw
f800: 13 1d c1  bbc0  $1d,$f7c3
f803: 42 ee     set2  $ee
f805: f1        tcall 15
f806: b0 3c     bcs   $f844
f808: 94 7f     adc   a,$7f+x
f80a: c1        tcall 12
f80b: 1e f3 eb  cmp   x,$ebf3
f80e: 75 c0 cf  cmp   a,$cfc0+x
f811: 52 dd     clr2  $dd
f813: 24 0e     and   a,$0e
f815: f0 22     beq   $f839
f817: de c0 40  cbne  $c0+x,$f859
f81a: bf        mov   a,(x)+
f81b: 34 0b     and   a,$0b+x
f81d: b2 60     clr5  $60
f81f: bf        mov   a,(x)+
f820: 20        clrp
f821: b0 ae     bcs   $f7d1
f823: 54 0a     eor   a,$0a+x
f825: b4 6e     sbc   a,$6e+x
f827: c2 2d     set6  $2d
f829: ae        pop   a
f82a: c0        di
f82b: 23 1e cf  bbs1  $1e,$f7fc
f82e: 41        tcall 4
f82f: ff        stop
f830: 02 0d     set0  $0d
f832: 03 c0 1e  bbs0  $c0,$f852
f835: d0 40     bne   $f877
f837: f1        tcall 15
f838: 12 fd     clr0  $fd
f83a: d3 6f c0  bbc6  $6f,$f7fc
f83d: cf        mul   ya
f83e: 21        tcall 2
f83f: ef        sleep
f840: 42 ce     set2  $ce
f842: 33 fc 01  bbc1  $fc,$f845
f845: c0        di
f846: ff        stop
f847: 00        nop
f848: 32 d0     clr1  $d0
f84a: 42 0f     set2  $0f
f84c: e0        clrv
f84d: 20        clrp
f84e: b0 d0     bcs   $f820
f850: 42 de     set2  $de
f852: 23 0e e1  bbs1  $0e,$f835
f855: 4f f1     pcall $f1
f857: c0        di
f858: f0 21     beq   $f87b
f85a: 1f e1 fc  jmp   ($fce1+x)
f85d: 24 ee     and   a,$ee
f85f: 40        setp
f860: c0        di
f861: b0 42     bcs   $f8a5
f863: ee        pop   y
f864: ff        stop
f865: 34 ef     and   a,$ef+x
f867: 52 de     clr2  $de
f869: b0 f0     bcs   $f85b
f86b: 1d        dec   x
f86c: b4 6d     sbc   a,$6d+x
f86e: c0        di
f86f: 20        clrp
f870: df        daa   a
f871: 11        tcall 1
f872: c0        di
f873: 00        nop
f874: 00        nop
f875: 12 21     clr0  $21
f877: 1f cf 2f  jmp   ($2fcf+x)
f87a: c1        tcall 12
f87b: b0 7c     bcs   $f8f9
f87d: f6 fe 0e  mov   a,$0efe+y
f880: 33 cc d3  bbc1  $cc,$f855
f883: 7f        reti
f884: c0        di
f885: 12 ee     clr0  $ee
f887: 20        clrp
f888: 00        nop
f889: cf        mul   ya
f88a: 42 ef     set2  $ef
f88c: 12 b0     clr0  $b0
f88e: 3f cd 15  call  $15cd
f891: 1e 0d f4  cmp   x,$f40d
f894: 4e cd b0  tclr1 $b0cd
f897: d2 50     clr6  $50
f899: f0 f1     beq   $f88c
f89b: 30 01     bmi   $f89e
f89d: c1        tcall 12
f89e: 4e c0 fe  tclr1 $fec0
f8a1: e4 2b     mov   a,$2b
f8a3: f4 fd     mov   a,$fd+x
f8a5: 12 fc     clr0  $fc
f8a7: f4 c0     mov   a,$c0+x
f8a9: 3c        rol   a
f8aa: d3 40 df  bbc6  $40,$f88b
f8ad: 0e 15 0c  tset1 $0c15
f8b0: 02 b0     set0  $b0
f8b2: 03 3d d0  bbs0  $3d,$f884
f8b5: ee        pop   y
f8b6: 25 1e f0  and   a,$f01e
f8b9: 11        tcall 1
f8ba: b0 0b     bcs   $f8c7
f8bc: e5 1e b0  mov   a,$b01e
f8bf: 62 ef     set3  $ef
f8c1: 31        tcall 3
f8c2: df        daa   a
f8c3: b0 01     bcs   $f8c6
f8c5: ca 46 1f  mov1  $03e8,6,c
f8c8: ef        sleep
f8c9: 42 cf     set2  $cf
f8cb: fe b0     dbnz  y,$f87d
f8cd: 54 cc     eor   a,$cc+x
f8cf: 32 e1     clr1  $e1
f8d1: 0d        push  psw
f8d2: c2 30     set6  $30
f8d4: 44 c0     eor   a,$c0
f8d6: ec 14 fb  mov   y,$fb14
f8d9: 05 2e ee  or    a,$ee2e
f8dc: f2 31     clr7  $31
f8de: c0        di
f8df: f1        tcall 15
f8e0: 21        tcall 2
f8e1: ff        stop
f8e2: 01        tcall 0
f8e3: 0d        push  psw
f8e4: 04 2e     or    a,$2e
f8e6: e1        tcall 14
f8e7: b0 5f     bcs   $f948
f8e9: ad 12     cmp   y,#$12
f8eb: 4e c5 2e  tclr1 $2ec5
f8ee: 03 0e b0  bbs0  $0e,$f8a0
f8f1: 00        nop
f8f2: fe 11     dbnz  y,$f905
f8f4: 24 de     and   a,$de
f8f6: 2b c3     rol   $c3
f8f8: 52 c0     clr2  $c0
f8fa: 00        nop
f8fb: ee        pop   y
f8fc: 24 fc     and   a,$fc
f8fe: 24 ec     and   a,$ec
f900: 01        tcall 0
f901: ed        notc
f902: b0 25     bcs   $f929
f904: 4e b3 4c  tclr1 $4cb3
f907: c0        di
f908: 11        tcall 1
f909: 20        clrp
f90a: d1        tcall 13
f90b: b0 31     bcs   $f93e
f90d: 12 fc     clr0  $fc
f90f: 13 dd 41  bbc0  $dd,$f952
f912: c0        di
f913: 31        tcall 3
f914: b0 2e     bcs   $f944
f916: a2 5f     set5  $5f
f918: be        das   a
f919: 20        clrp
f91a: d0 21     bne   $f93d
f91c: 13 c0 0f  bbc0  $c0,$f92d
f91f: 00        nop
f920: 0e e3 5f  tset1 $5fe3
f923: b0 30     bcs   $f955
f925: ed        notc
f926: b4 17     sbc   a,$17+x
f928: 5a a3     cmpw  ya,$a3
f92a: 10 33     bpl   $f95f
f92c: c9 66 ac  mov   $ac66,x
f92f: c0        di
f930: 00        nop
f931: f1        tcall 15
f932: 00        nop
f933: 2e c3 5f  cbne  $c3,$f994
f936: d0 10     bne   $f948
f938: c0        di
f939: f0 21     beq   $f95c
f93b: f0 10     beq   $f94d
f93d: ff        stop
f93e: 00        nop
f93f: de 53 c0  cbne  $53+x,$f901
f942: df        daa   a
f943: 32 0e     clr1  $0e
f945: e4 4f     mov   a,$4f
f947: bf        mov   a,(x)+
f948: 51        tcall 5
f949: f3 c0 3e  bbc7  $c0,$f989
f94c: e1        tcall 14
f94d: 00        nop
f94e: 31        tcall 3
f94f: df        daa   a
f950: 20        clrp
f951: 13 ec b0  bbc0  $ec,$f903
f954: 56 cb c1  eor   a,$c1cb+y
f957: 40        setp
f958: 11        tcall 1
f959: 12 ed     clr0  $ed
f95b: 13 c4 ee  bbc0  $c4,$f94b
f95e: 32 ef     clr1  $ef
f960: f1        tcall 15
f961: 2e e0 e4  cbne  $e0,$f947
f964: 5d        mov   x,a
f965: b0 9a     bcs   $f901
f967: 23 12 1e  bbs1  $12,$f987
f96a: fe d1     dbnz  y,$f93d
f96c: 2e d4 c4  cbne  $d4,$f932
f96f: fd        mov   y,a
f970: 32 de     clr1  $de
f972: 31        tcall 3
f973: de 33 1c  cbne  $33+x,$f991
f976: c3 b0 74  bbs6  $b0,$f9ec
f979: dd        mov   a,y
f97a: 11        tcall 1
f97b: cf        mul   ya
f97c: 54 1e     eor   a,$1e+x
f97e: d1        tcall 13
f97f: 1d        dec   x
f980: c0        di
f981: 01        tcall 0
f982: ff        stop
f983: 34 1d     and   a,$1d+x
f985: d1        tcall 13
f986: 43 00 10  bbs2  $00,$f998
f989: b4 f1     sbc   a,$f1+x
f98b: 2f c5     bra   $f952
f98d: 3e ee     cmp   x,$ee
f98f: 11        tcall 1
f990: 1f dd c0  jmp   ($c0dd+x)
f993: 04 2e     or    a,$2e
f995: ef        sleep
f996: 03 3f ef  bbs0  $3f,$f987
f999: f0 22     beq   $f9bd
f99b: b0 1d     bcs   $f9ba
f99d: e3 40 dd  bbs7  $40,$f97c
f9a0: 02 11     set0  $11
f9a2: 0d        push  psw
f9a3: f4 b0     mov   a,$b0+x
f9a5: 3e d3     cmp   x,$d3
f9a7: 3c        rol   a
f9a8: d2 fe     clr6  $fe
f9aa: 12 31     clr0  $31
f9ac: f0 b0     beq   $f95e
f9ae: 20        clrp
f9af: af        mov   (x)+,a
f9b0: 54 db     eor   a,$db+x
f9b2: 64 a1     cmp   a,$a1
f9b4: 4d        push  x
f9b5: 02 b0     set0  $b0
f9b7: df        daa   a
f9b8: 2f b0     bra   $f96a
f9ba: 52 f4     clr2  $f4
f9bc: 3b e1     rol   $e1+x
f9be: f1        tcall 15
f9bf: b0 10     bcs   $f9d1
f9c1: 00        nop
f9c2: ee        pop   y
f9c3: 43 dd 22  bbs2  $dd,$f9e7
f9c6: dd        mov   a,y
f9c7: 01        tcall 0
f9c8: b0 32     bcs   $f9fc
f9ca: ed        notc
f9cb: 12 ce     clr0  $ce
f9cd: 10 ec     bpl   $f9bb
f9cf: 47 fc     eor   a,($fc+x)
f9d1: b0 d0     bcs   $f9a3
f9d3: 53 f0 ed  bbc2  $f0,$f9c2
f9d6: 01        tcall 0
f9d7: 1e d2 30  cmp   x,$30d2
f9da: b0 21     bcs   $f9fd
f9dc: ce        pop   x
f9dd: 11        tcall 1
f9de: dd        mov   a,y
f9df: 76 ff ff  cmp   a,$ffff+y
f9e2: ff        stop
f9e3: b0 00     bcs   $f9e5
f9e5: 10 ec     bpl   $f9d3
f9e7: 15 de 41  or    a,$41de+x
f9ea: 04 3b     or    a,$3b
f9ec: c0        di
f9ed: c1        tcall 12
f9ee: 32 20     clr1  $20
f9f0: f0 22     beq   $fa14
f9f2: 01        tcall 0
f9f3: 0f        brk
f9f4: 11        tcall 1
f9f5: b0 ad     bcs   $f9a4
f9f7: 74 ed     cmp   a,$ed+x
f9f9: f1        tcall 15
f9fa: 0e ef 1e  tset1 $1eef
f9fd: e6        mov   a,(x)
f9fe: b0 4f     bcs   $fa4f
fa00: bb 45     inc   $45+x
fa02: 32 db     clr1  $db
fa04: e0        clrv
fa05: f1        tcall 15
fa06: 20        clrp
fa07: b0 13     bcs   $fa1c
fa09: 4e a1 0e  tclr1 $0ea1
fa0c: fb 06     mov   y,$06+x
fa0e: 3f ab a0  call  $a0ab
fa11: 34 53     and   a,$53+x
fa13: dd        mov   a,y
fa14: f1        tcall 15
fa15: e0        clrv
fa16: 52 23     clr2  $23
fa18: ef        sleep
fa19: b0 2f     bcs   $fa4a
fa1b: ee        pop   y
fa1c: d3 60 f1  bbc6  $60,$fa0f
fa1f: bc        inc   a
fa20: 34 0d     and   a,$0d+x
fa22: b4 12     sbc   a,$12+x
fa24: fd        mov   y,a
fa25: 44 de     eor   a,$de
fa27: 1f 03 ec  jmp   ($ec03+x)
fa2a: 24 b4     and   a,$b4
fa2c: e1        tcall 14
fa2d: 3e dd     cmp   x,$dd
fa2f: d6 5d 10  mov   $105d+y,a
fa32: cf        mul   ya
fa33: f0 b0     beq   $f9e5
fa35: 25 1e f0  and   a,$f01e
fa38: 12 fc     clr0  $fc
fa3a: e0        clrv
fa3b: ef        sleep
fa3c: 66        cmp   a,(x)
fa3d: c0        di
fa3e: ec 13 fe  mov   y,$fe13
fa41: 01        tcall 0
fa42: 00        nop
fa43: 00        nop
fa44: 11        tcall 1
fa45: 12 b0     clr0  $b0
fa47: fc        inc   y
fa48: 24 ec     and   a,$ec
fa4a: ff        stop
fa4b: e5 61 eb  mov   a,$eb61
fa4e: b2 b4     clr5  $b4
fa50: 4d        push  x
fa51: c0        di
fa52: 1e e5 5c  cmp   x,$5ce5
fa55: d2 f1     clr6  $f1
fa57: 0c c0 f0  asl   $f0c0
fa5a: 00        nop
fa5b: 12 12     clr0  $12
fa5d: 0b d2     asl   $d2
fa5f: 2f f2     bra   $fa53
fa61: b4 eb     sbc   a,$eb+x
fa63: e5 5f 1c  mov   a,$1c5f
fa66: 96 6a d2  adc   a,$d26a+y
fa69: 1f b0 13  jmp   ($13b0+x)
fa6c: 00        nop
fa6d: 0c e2 20  asl   $20e2
fa70: 0f        brk
fa71: df        daa   a
fa72: 1f b4 d4  jmp   ($d4b4+x)
fa75: 4e f2 db  tclr1 $dbf2
fa78: 32 f0     clr1  $f0
fa7a: 11        tcall 1
fa7b: 11        tcall 1
fa7c: c0        di
fa7d: 0c c1 30  asl   $30c1
fa80: de f1 0e  cbne  $f1+x,$fa90
fa83: 01        tcall 0
fa84: 0f        brk
fa85: b0 f3     bcs   $fa7a
fa87: 0c dd f4  asl   $f4dd
fa8a: 4d        push  x
fa8b: c4 2a     mov   $2a,a
fa8d: e5 b0 4d  mov   a,$4db0
fa90: c1        tcall 12
fa91: 10 fd     bpl   $fa90
fa93: 03 31 df  bbs0  $31,$fa74
fa96: 4f b4     pcall $b4
fa98: c4 1e     mov   $1e,a
fa9a: 23 ef 1c  bbs1  $ef,$fab8
fa9d: e5 4e c1  mov   a,$c14e
faa0: b0 01     bcs   $faa3
faa2: 1c        asl   a
faa3: c3 4e e2  bbs6  $4e,$fa87
faa6: 2e ef df  cbne  $ef,$fa87
faa9: c4 20     mov   $20,a
faab: e0        clrv
faac: 2f cf     bra   $fa7d
faae: 54 cd     eor   a,$cd+x
fab0: 12 0e     clr0  $0e
fab2: c0        di
fab3: 02 21     set0  $21
fab5: ff        stop
fab6: 10 f1     bpl   $faa9
fab8: 0d        push  psw
fab9: 04 2e     or    a,$2e
fabb: c0        di
fabc: 14 0c     or    a,$0c+x
fabe: d2 30     clr6  $30
fac0: ff        stop
fac1: 12 0f     clr0  $0f
fac3: 23 b0 e9  bbs1  $b0,$faae
fac6: 15 ed 0f  or    a,$0fed+x
fac9: e3 5b a6  bbs7  $5b,$fa71
facc: 6a c0 c2  and1  c,!($1858,0)
facf: 30 ff     bmi   $fad0
fad1: 01        tcall 0
fad2: f0 32     beq   $fb06
fad4: 00        nop
fad5: 0f        brk
fad6: c0        di
fad7: ef        sleep
fad8: ff        stop
fad9: 23 0d f4  bbs1  $0d,$facf
fadc: 3d        inc   x
fadd: c2 41     set6  $41
fadf: b0 0f     bcs   $faf0
fae1: 03 0d 15  bbs0  $0d,$faf8
fae4: 0d        push  psw
fae5: ee        pop   y
fae6: 14 1a     or    a,$1a+x
fae8: b0 d6     bcs   $fac0
faea: 6e c0 eb  dbnz  $c0,$fad7
faed: 15 50 bd  or    a,$bd50+x
faf0: 67 c0     cmp   a,($c0+x)
faf2: ec 15 1c  mov   y,$1c15
faf5: e2 1f     set7  $1f
faf7: fd        mov   y,a
faf8: e3 3f c0  bbs7  $3f,$faba
fafb: f1        tcall 15
fafc: fc        inc   y
fafd: f2 21     clr7  $21
faff: f0 00     beq   $fb01
fb01: 0f        brk
fb02: f3 c4 1c  bbc7  $c4,$fb20
fb05: e1        tcall 14
fb06: 20        clrp
fb07: ef        sleep
fb08: 23 1c c5  bbs1  $1c,$facf
fb0b: 5b c0     lsr   $c0+x
fb0d: ae        pop   a
fb0e: 52 cd     clr2  $cd
fb10: 02 1d     set0  $1d
fb12: f3 3e c2  bbc7  $3e,$fad6
fb15: c0        di
fb16: 4f fe     pcall $fe
fb18: d1        tcall 13
fb19: 41        tcall 4
fb1a: ce        pop   x
fb1b: 41        tcall 4
fb1c: bf        mov   a,(x)+
fb1d: 42 c0     set2  $c0
fb1f: f0 12     beq   $fb33
fb21: 2e d3 5f  cbne  $d3,$fb82
fb24: bf        mov   a,(x)+
fb25: 21        tcall 2
fb26: fc        inc   y
fb27: c0        di
fb28: f4 3f     mov   a,$3f+x
fb2a: df        daa   a
fb2b: 11        tcall 1
fb2c: f0 34     beq   $fb62
fb2e: 0c f3 c4  asl   $c4f3
fb31: ed        notc
fb32: f4 4e     mov   a,$4e+x
fb34: c1        tcall 12
fb35: 2e f0 f3  cbne  $f0,$fb2a
fb38: 3e c0     cmp   x,$c0
fb3a: f0 32     beq   $fb6e
fb3c: ec 14 fd  mov   y,$fd14
fb3f: 22 00     set1  $00
fb41: ef        sleep
fb42: c0        di
fb43: 33 de 44  bbc1  $de,$fb89
fb46: 0d        push  psw
fb47: cf        mul   ya
fb48: 32 ec     clr1  $ec
fb4a: 14 b0     or    a,$b0+x
fb4c: e9 26 3f  mov   x,$3f26
fb4f: de 01 dc  cbne  $01+x,$fb2d
fb52: 56 dc c0  eor   a,$c0dc+y
fb55: 12 0f     clr0  $0f
fb57: ed        notc
fb58: 25 1c f4  and   a,$f41c
fb5b: 2f f0     bra   $fb4d
fb5d: c4 1e     mov   $1e,a
fb5f: f2 00     clr7  $00
fb61: fe 44     dbnz  y,$fba7
fb63: cc 24 0d  mov   $0d24,y
fb66: c0        di
fb67: dc        dec   y
fb68: 04 1c     or    a,$1c
fb6a: d3 30 fe  bbc6  $30,$fb6a
fb6d: f3 2e c0  bbc7  $2e,$fb2f
fb70: 04 2d     or    a,$2d
fb72: d3 51 de  bbc6  $51,$fb52
fb75: 32 ee     clr1  $ee
fb77: d1        tcall 13
fb78: c0        di
fb79: 52 de     clr2  $de
fb7b: 32 de     clr1  $de
fb7d: 22 ed     set1  $ed
fb7f: 34 0e     and   a,$0e+x
fb81: c4 f3     mov   $f3,a
fb83: 4f ce     pcall $ce
fb85: 32 df     clr1  $df
fb87: 2f 13     bra   $fb9c
fb89: cd c0     mov   x,#$c0
fb8b: 15 0b f3  or    a,$f30b+x
fb8e: 10 11     bpl   $fba1
fb90: 02 1c     set0  $1c
fb92: e4 b0     mov   a,$b0
fb94: 4b e4     lsr   $e4
fb96: 1c        asl   a
fb97: de 03 20  cbne  $03+x,$fbb9
fb9a: 12 eb     clr0  $eb
fb9c: b0 12     bcs   $fbb0
fb9e: d0 43     bne   $fbe3
fba0: 0c af 55  asl   $55af
fba3: fa d3 b0  mov   ($b0),($d3)
fba6: 40        setp
fba7: db e3     mov   $e3+x,y
fba9: 31        tcall 3
fbaa: 20        clrp
fbab: fe ae     dbnz  y,$fb5b
fbad: 62 b0     set3  $b0
fbaf: cf        mul   ya
fbb0: 64 ab     cmp   a,$ab
fbb2: 33 1d c2  bbc1  $1d,$fb76
fbb5: 51        tcall 5
fbb6: de c0 11  cbne  $c0+x,$fbc9
fbb9: de 34 0d  cbne  $34+x,$fbc8
fbbc: ef        sleep
fbbd: 10 e0     bpl   $fb9f
fbbf: fe b0     dbnz  y,$fb71
fbc1: 24 2d     and   a,$2d
fbc3: c1        tcall 12
fbc4: 1f 24 fd  jmp   ($fd24+x)
fbc7: e0        clrv
fbc8: 42 b0     set2  $b0
fbca: aa 67 dd  mov1  c,$1bac,7
fbcd: 01        tcall 0
fbce: 3f dc e5  call  $e5dc
fbd1: 0c b0 01  asl   $01b0
fbd4: 1f d1 61  jmp   ($61d1+x)
fbd7: ba f7     movw  ya,$f7
fbd9: 3c        rol   a
fbda: e1        tcall 14
fbdb: c0        di
fbdc: 13 2d d4  bbc0  $2d,$fbb2
fbdf: 3d        inc   x
fbe0: e2 3f     set7  $3f
fbe2: d2 2e     clr6  $2e
fbe4: c0        di
fbe5: df        daa   a
fbe6: 23 0c e3  bbs1  $0c,$fbcb
fbe9: 3f ce 33  call  $33ce
fbec: ed        notc
fbed: b0 ee     bcs   $fbdd
fbef: 22 f1     set1  $f1
fbf1: e0        clrv
fbf2: 41        tcall 4
fbf3: dd        mov   a,y
fbf4: 34 cc     and   a,$cc+x
fbf6: b0 54     bcs   $fc4c
fbf8: dc        dec   y
fbf9: 03 0d e2  bbs0  $0d,$fbdd
fbfc: 31        tcall 3
fbfd: 01        tcall 0
fbfe: 0e b0 ce  tset1 $ceb0
fc01: 52 e2     clr2  $e2
fc03: ef        sleep
fc04: 50 df     bvc   $fbe5
fc06: 02 52     set0  $52
fc08: c0        di
fc09: dd        mov   a,y
fc0a: 24 0c     and   a,$0c
fc0c: 05 0b 14  or    a,$140b
fc0f: ed        notc
fc10: 02 b0     set0  $b0
fc12: 4d        push  x
fc13: e1        tcall 14
fc14: e2 1c     set7  $1c
fc16: e1        tcall 14
fc17: 00        nop
fc18: 51        tcall 5
fc19: b1        tcall 11
fc1a: b0 30     bcs   $fc4c
fc1c: db 16     mov   $16+x,y
fc1e: fe 42     dbnz  y,$fc62
fc20: cd 24     mov   x,#$24
fc22: 0d        push  psw
fc23: b0 32     bcs   $fc57
fc25: ce        pop   x
fc26: 34 fd     and   a,$fd+x
fc28: 14 3a     or    a,$3a+x
fc2a: a5 60 b0  sbc   a,$b060
fc2d: 9c        dec   a
fc2e: 74 bf     cmp   a,$bf+x
fc30: 41        tcall 4
fc31: cc 13 ee  mov   $ee13,y
fc34: 4f b4     pcall $b4
fc36: 05 cd 12  or    a,$12cd
fc39: 20        clrp
fc3a: ce        pop   x
fc3b: 75 b9 c5  cmp   a,$c5b9+x
fc3e: c0        di
fc3f: 32 ff     clr1  $ff
fc41: 22 ef     set1  $ef
fc43: 21        tcall 2
fc44: e0        clrv
fc45: 3f 03 c4  call  $c403
fc48: fe f1     dbnz  y,$fc3b
fc4a: 10 fe     bpl   $fc4a
fc4c: 33 cd 03  bbc1  $cd,$fc51
fc4f: 10 b0     bpl   $fc01
fc51: 40        setp
fc52: c0        di
fc53: 20        clrp
fc54: f0 ee     beq   $fc44
fc56: 32 01     clr1  $01
fc58: 2f c0     bra   $fc1a
fc5a: e0        clrv
fc5b: 10 ed     bpl   $fc4a
fc5d: 25 1d f3  and   a,$f31d
fc60: 20        clrp
fc61: 00        nop
fc62: b0 ec     bcs   $fc50
fc64: e1        tcall 14
fc65: 30 03     bmi   $fc6a
fc67: 2e e3 2c  cbne  $e3,$fc95
fc6a: c0        di
fc6b: c4 10     mov   $10,a
fc6d: e0        clrv
fc6e: 41        tcall 4
fc6f: cd 33     mov   x,#$33
fc71: ef        sleep
fc72: 11        tcall 1
fc73: ec c0 f5  mov   y,$f5c0
fc76: 3d        inc   x
fc77: d2 31     clr6  $31
fc79: fe 01     dbnz  y,$fc7c
fc7b: 10 ef     bpl   $fc6c
fc7d: b4 41     sbc   a,$41+x
fc7f: 2e 9d 64  cbne  $9d,$fce5
fc82: f1        tcall 15
fc83: fc        inc   y
fc84: f2 21     clr7  $21
fc86: b0 fa     bcs   $fc82
fc88: e6        mov   a,(x)
fc89: 5e c2 1c  cmp   y,$1cc2
fc8c: c0        di
fc8d: 22 10     set1  $10
fc8f: c0        di
fc90: 10 ed     bpl   $fc7f
fc92: d1        tcall 13
fc93: 30 e0     bmi   $fc75
fc95: 33 fc e2  bbc1  $fc,$fc79
fc98: b4 2d     sbc   a,$2d+x
fc9a: e2 1c     set7  $1c
fc9c: c0        di
fc9d: 43 db 66  bbs2  $db,$fd05
fca0: fb b4     mov   y,$b4+x
fca2: b1        tcall 11
fca3: 5f c3 4f  jmp   $4fc3
fca6: de 02 0e  cbne  $02+x,$fcb6
fca9: 25 c0 20  and   a,$20c0
fcac: 02 2f     set0  $2f
fcae: f1        tcall 15
fcaf: ff        stop
fcb0: 43 e0 20  bbs2  $e0,$fcd2
fcb3: c0        di
fcb4: de 23 1e  cbne  $23+x,$fcd4
fcb7: 03 1e ef  bbs0  $1e,$fca8
fcba: 02 31     set0  $31
fcbc: b4 d2     sbc   a,$d2+x
fcbe: 1b f2     asl   $f2+x
fcc0: 00        nop
fcc1: 44 db     eor   a,$db
fcc3: f0 f3     beq   $fcb8
fcc5: b0 22     bcs   $fce9
fcc7: 21        tcall 2
fcc8: 12 e9     clr0  $e9
fcca: d4 fc     mov   $fc+x,a
fccc: 45 11 b4  eor   a,$b411
fccf: fc        inc   y
fcd0: 04 fc     or    a,$fc
fcd2: 46        eor   a,(x)
fcd3: dd        mov   a,y
fcd4: 2e b1 42  cbne  $b1,$fd18
fcd7: b4 1f     sbc   a,$1f+x
fcd9: c2 3b     set6  $3b
fcdb: d3 31 10  bbc6  $31,$fced
fcde: f0 ed     beq   $fccd
fce0: b4 03     sbc   a,$03+x
fce2: 0d        push  psw
fce3: 35 ed 10  and   a,$10ed+x
fce6: d0 02     bne   $fcea
fce8: 4f b0     pcall $b0
fcea: 00        nop
fceb: 2f cf     bra   $fcbc
fced: 2e d5 50  cbne  $d5,$fd3f
fcf0: f0 ec     beq   $fcde
fcf2: b0 ff     bcs   $fcf3
fcf4: c1        tcall 12
fcf5: 54 2f     eor   a,$2f+x
fcf7: db b1     mov   $b1+x,y
fcf9: 55 1c b0  eor   a,$b01c+x
fcfc: 03 eb 02  bbs0  $eb,$fd00
fcff: f2 31     clr7  $31
fd01: 21        tcall 2
fd02: dc        dec   y
fd03: 02 c4     set0  $c4
fd05: e0        clrv
fd06: 41        tcall 4
fd07: cd 23     mov   x,#$23
fd09: 0c f4 2e  asl   $2ef4
fd0c: f1        tcall 15
fd0d: b0 0c     bcs   $fd1b
fd0f: d3 3d 04  bbc6  $3d,$fd15
fd12: 1f 21 cc  jmp   ($cc21+x)
fd15: fe b4     dbnz  y,$fccb
fd17: f5 1f 1f  mov   a,$1f1f+x
fd1a: ce        pop   x
fd1b: 02 52     set0  $52
fd1d: ce        pop   x
fd1e: 1f b0 d1  jmp   ($d1b0+x)
fd21: 4e e4 31  tclr1 $31e4
fd24: 31        tcall 3
fd25: cd 0f     mov   x,#$0f
fd27: f3 b0 42  bbc7  $b0,$fd6b
fd2a: 32 ca     clr1  $ca
fd2c: 01        tcall 0
fd2d: e3 60 bf  bbs7  $60,$fcee
fd30: 41        tcall 4
fd31: b0 cd     bcs   $fd00
fd33: 25 40 cf  and   a,$cf40
fd36: 1e f1 dd  cmp   x,$ddf1
fd39: 35 b0 2e  and   a,$2eb0+x
fd3c: f0 cb     beq   $fd09
fd3e: 26        and   a,(x)
fd3f: 1d        dec   x
fd40: 12 ff     clr0  $ff
fd42: e0        clrv
fd43: b4 4f     sbc   a,$4f+x
fd45: ff        stop
fd46: e0        clrv
fd47: 3d        inc   x
fd48: d3 1e 16  bbc6  $1e,$fd60
fd4b: 2b b4     rol   $b4
fd4d: ae        pop   a
fd4e: 36 1d e2  and   a,$e21d+y
fd51: 3f af 52  call  $52af
fd54: bd        mov   sp,x
fd55: b4 65     sbc   a,$65+x
fd57: ec f1 0f  mov   y,$0ff1
fd5a: e2 41     set7  $41
fd5c: 0d        push  psw
fd5d: c0        di
fd5e: b0 00     bcs   $fd60
fd60: bc        inc   a
fd61: 35 2e ef  and   a,$ef2e+x
fd64: ec d2 2e  mov   y,$2ed2
fd67: b4 24     sbc   a,$24+x
fd69: cc 32 ef  mov   $ef32,y
fd6c: 03 2f ee  bbs0  $2f,$fd5c
fd6f: f1        tcall 15
fd70: b0 ff     bcs   $fd71
fd72: 12 11     clr0  $11
fd74: 0d        push  psw
fd75: f4 3f     mov   a,$3f+x
fd77: de 24 a0  cbne  $24+x,$fd19
fd7a: 5e bd cd  cmp   y,$cdbd
fd7d: 46        eor   a,(x)
fd7e: 13 6f ae  bbc0  $6f,$fd2e
fd81: 1d        dec   x
fd82: b0 f2     bcs   $fd76
fd84: 0d        push  psw
fd85: 04 1d     or    a,$1d
fd87: df        daa   a
fd88: 0f        brk
fd89: 13 21 b4  bbc0  $21,$fd3f
fd8c: ee        pop   y
fd8d: 22 0f     set1  $0f
fd8f: d0 53     bne   $fde4
fd91: cc 11 12  mov   $1211,y
fd94: b0 22     bcs   $fdb8
fd96: 10 22     bpl   $fdba
fd98: cb 34     mov   $34,y
fd9a: ff        stop
fd9b: 22 00     set1  $00
fd9d: b0 11     bcs   $fdb0
fd9f: fc        inc   y
fda0: f5 51 fe  mov   a,$fe51+x
fda3: ef        sleep
fda4: 22 ff     set1  $ff
fda6: b0 24     bcs   $fdcc
fda8: 0c d0 f0  asl   $f0d0
fdab: 33 10 fe  bbc1  $10,$fdab
fdae: f1        tcall 15
fdaf: a0        ei
fdb0: 21        tcall 2
fdb1: 45 eb 14  eor   a,$14eb
fdb4: 11        tcall 1
fdb5: 2d        push  a
fdb6: ae        pop   a
fdb7: 32 a0     clr1  $a0
fdb9: dc        dec   y
fdba: 11        tcall 1
fdbb: f2 53     clr7  $53
fdbd: fc        inc   y
fdbe: d1        tcall 13
fdbf: 30 c0     bmi   $fd81
fdc1: b0 20     bcs   $fde3
fdc3: 02 1c     set0  $1c
fdc5: c2 3d     set6  $3d
fdc7: d2 31     clr6  $31
fdc9: fe a0     dbnz  y,$fd6b
fdcb: cf        mul   ya
fdcc: 11        tcall 1
fdcd: 00        nop
fdce: fc        inc   y
fdcf: f4 4f     mov   a,$4f+x
fdd1: ad 41     cmp   y,#$41
fdd3: a0        ei
fdd4: c0        di
fdd5: 4f b0     pcall $b0
fdd7: 41        tcall 4
fdd8: ca 16 3f  mov1  $07e2,6,c
fddb: ca b0 e1  mov1  $1c36,0,c
fdde: 32 ec     clr1  $ec
fde0: 03 0e ff  bbs0  $0e,$fde1
fde3: ef        sleep
fde4: 12 b0     clr0  $b0
fde6: fe 13     dbnz  y,$fdfb
fde8: 2f df     bra   $fdc9
fdea: 21        tcall 2
fdeb: cb 26     mov   $26,y
fded: 1c        asl   a
fdee: a0        ei
fdef: b2 2d     clr5  $2d
fdf1: d1        tcall 13
fdf2: 2f f0     bra   $fde4
fdf4: 12 fa     clr0  $fa
fdf6: c3 a4 1b  bbs6  $a4,$fe13
fdf9: 13 dd 11  bbc0  $dd,$fe0c
fdfc: f0 43     beq   $fe41
fdfe: dc        dec   y
fdff: 01        tcall 0
fe00: a4 ff     sbc   a,$ff
fe02: 21        tcall 2
fe03: 01        tcall 0
fe04: 20        clrp
fe05: ec d3 5f  mov   y,$5fd3
fe08: f2 a0     clr7  $a0
fe0a: 4f b1     pcall $b1
fe0c: 5f b2 60  jmp   $60b2
fe0f: bd        mov   sp,x
fe10: 24 0d     and   a,$0d
fe12: a0        ei
fe13: 13 fe 34  bbc0  $fe,$fe49
fe16: eb f3     mov   y,$f3
fe18: 1f 0f 05  jmp   ($050f+x)
fe1b: a0        ei
fe1c: 4f df     pcall $df
fe1e: 24 2d     and   a,$2d
fe20: d1        tcall 13
fe21: 0c e4 3c  asl   $3ce4
fe24: a0        ei
fe25: d4 40     mov   $40+x,a
fe27: ef        sleep
fe28: 21        tcall 2
fe29: db 07     mov   $07+x,y
fe2b: 3c        rol   a
fe2c: c3 a0 71  bbs6  $a0,$fe9f
fe2f: ad 41     cmp   y,#$41
fe31: c1        tcall 12
fe32: 62 cc     set3  $cc
fe34: 01        tcall 0
fe35: dc        dec   y
fe36: b4 43     sbc   a,$43+x
fe38: dc        dec   y
fe39: 02 11     set0  $11
fe3b: 1f c0 40  jmp   ($40c0+x)
fe3e: cf        mul   ya
fe3f: a0        ei
fe40: f2 0f     clr7  $0f
fe42: de 32 de  cbne  $32+x,$fe22
fe45: 32 cd     clr1  $cd
fe47: 45 a0 0c  eor   a,$0ca0
fe4a: f5 2b e5  mov   a,$e52b+x
fe4d: 2b c1     rol   $c1
fe4f: 1e f3 b0  cmp   x,$b0f3
fe52: 10 00     bpl   $fe54
fe54: ff        stop
fe55: 01        tcall 0
fe56: 1f f3 4f  jmp   ($4ff3+x)
fe59: d0 a0     bne   $fdfb
fe5b: 3d        inc   x
fe5c: ae        pop   a
fe5d: 43 fe 13  bbs2  $fe,$fe72
fe60: 2f df     bra   $fe41
fe62: 32 a0     clr1  $a0
fe64: ee        pop   y
fe65: 24 0d     and   a,$0d
fe67: ef        sleep
fe68: 03 3f e0  bbs0  $3f,$fe4a
fe6b: 0e a4 12  tset1 $12a4
fe6e: 0e 12 10  tset1 $1012
fe71: cd 22     mov   x,#$22
fe73: 10 ef     bpl   $fe64
fe75: 94 65     adc   a,$65+x
fe77: cb f3     mov   $f3,y
fe79: 3c        rol   a
fe7a: c5 4c e1  mov   $e14c,a
fe7d: 00        nop
fe7e: a0        ei
fe7f: 00        nop
fe80: 13 2e c0  bbc0  $2e,$fe42
fe83: 32 0f     clr1  $0f
fe85: f0 0f     beq   $fe96
fe87: 90 f2     bcc   $fe7b
fe89: 1d        dec   x
fe8a: b0 61     bcs   $feed
fe8c: c3 6e bf  bbs6  $6e,$fe4d
fe8f: 0f        brk
fe90: a8 10     sbc   a,#$10
fe92: f1        tcall 15
fe93: 0f        brk
fe94: 10 ef     bpl   $fe85
fe96: 42 de     set2  $de
fe98: 2e 94 c5  cbne  $94,$fe5f
fe9b: 4b e3     lsr   $e3
fe9d: 10 1e     bpl   $febd
fe9f: d2 4e     clr6  $4e
fea1: d1        tcall 13
fea2: 90 0e     bcc   $feb2
fea4: 03 2f ee  bbs0  $2f,$fe94
fea7: e0        clrv
fea8: 53 dc 03  bbc2  $dc,$fead
feab: 90 31     bcc   $fede
fead: da f5     movw  $f5,ya
feaf: 3f ef fd  call  $fdef
feb2: d2 50     clr6  $50
feb4: 90 c0     bcc   $fe76
feb6: 42 dc     set2  $dc
feb8: f2 30     clr7  $30
feba: c0        di
febb: 74 de     cmp   a,$de+x
febd: 90 1f     bcc   $fede
febf: d0 44     bne   $ff05
fec1: fc        inc   y
fec2: 15 1d d0  or    a,$d01d+x
fec5: 22 90     set1  $90
fec7: 22 ff     set1  $ff
fec9: 21        tcall 2
feca: ff        stop
fecb: ed        notc
fecc: 36 0b f4  and   a,$f40b+y
fecf: a0        ei
fed0: 1f 01 fe  jmp   ($fe01+x)
fed3: 24 0c     and   a,$0c
fed5: d1        tcall 13
fed6: 20        clrp
fed7: f1        tcall 15
fed8: 90 1c     bcc   $fef6
feda: e3 0b f4  bbs7  $0b,$fed0
fedd: 21        tcall 2
fede: fd        mov   y,a
fedf: 14 0d     or    a,$0d+x
fee1: 84 46     adc   a,$46
fee3: e1        tcall 14
fee4: 3a a2     incw  $a2
fee6: 31        tcall 3
fee7: 42 9b     set2  $9b
fee9: 57 80     eor   a,($80)+y
feeb: 3c        rol   a
feec: de 03 2e  cbne  $03+x,$ff1c
feef: f4 3e     mov   a,$3e+x
fef1: d0 32     bne   $ff25
fef3: 80        setc
fef4: da 07     movw  $07,ya
fef6: 4d        push  x
fef7: e3 09 b4  bbs7  $09,$fead
fefa: 60        clrc
fefb: de 80 f0  cbne  $80+x,$feed
fefe: 12 31     clr0  $31
ff00: bc        inc   a
ff01: 24 30     and   a,$30
ff03: bc        inc   a
ff04: 24 70     and   a,$70
ff06: 22 4f     set1  $4f
ff08: bd        mov   sp,x
ff09: ee        pop   y
ff0a: 26        and   a,(x)
ff0b: f9 f6     mov   x,$f6+y
ff0d: 7d        mov   a,x
ff0e: 80        setc
ff0f: bf        mov   a,(x)+
ff10: 31        tcall 3
ff11: dc        dec   y
ff12: 06        or    a,(x)
ff13: 5e c1 31  cmp   y,$31c1
ff16: 10 84     bpl   $fe9c
ff18: d0 41     bne   $ff5b
ff1a: e0        clrv
ff1b: 0e 13 0d  tset1 $0d13
ff1e: e2 3f     set7  $3f
ff20: 70 de     bvs   $ff00
ff22: 22 12     set1  $12
ff24: 1e e2 4f  cmp   x,$4fe2
ff27: bf        mov   a,(x)+
ff28: 41        tcall 4
ff29: 70 d0     bvs   $fefb
ff2b: 30 ce     bmi   $fefb
ff2d: 44 ca     eor   a,$ca
ff2f: 13 02 2d  bbc0  $02,$ff5e
ff32: 60        clrc
ff33: a4 6f     sbc   a,$6f
ff35: d1        tcall 13
ff36: 21        tcall 2
ff37: ed        notc
ff38: 23 ff 20  bbs1  $ff,$ff5a
ff3b: 60        clrc
ff3c: be        das   a
ff3d: 56 0b d3  eor   a,$d30b+y
ff40: 4f ce     pcall $ce
ff42: 34 ff     and   a,$ff+x
ff44: 50 63     bvc   $ffa9
ff46: cb df     mov   $df,y
ff48: 45 fc 26  eor   a,$26fc
ff4b: 1b d4     asl   $d4+x
ff4d: 54 1b     eor   a,$1b+x
ff4f: f1        tcall 15
ff50: fe f4     dbnz  y,$ff46
ff52: 5d        mov   x,a
ff53: c4 2c     mov   $2c,a
ff55: e1        tcall 14
ff56: 54 10     eor   a,$10+x
ff58: f1        tcall 15
ff59: 41        tcall 4
ff5a: ad 44     cmp   y,#$44
ff5c: eb e5     mov   y,$e5
ff5e: 4f 44     pcall $44
ff60: ce        pop   x
ff61: d1        tcall 13
ff62: 63 cb 01  bbs3  $cb,$ff65
ff65: 13 2c b1  bbc0  $2c,$ff18
ff68: 40        setp
ff69: 25 2d b0  and   a,$b02d
ff6c: 40        setp
ff6d: cd 14     mov   x,#$14
ff6f: 20        clrp
ff70: 0e 34 d6  tset1 $d634
ff73: 4d        push  x
ff74: 00        nop
ff75: df        daa   a
ff76: 62 bf     set3  $bf
ff78: 31        tcall 3
ff79: ef        sleep
ff7a: 20        clrp
ff7b: f0 35     beq   $ffb2
ff7d: 0b d3     asl   $d3
ff7f: 63 f0 10  bbs3  $f0,$ff91
ff82: 00        nop
ff83: 01        tcall 0
ff84: 0e 00 00  tset1 $0000
ff87: 00        nop
ff88: 00        nop
ff89: 00        nop
ff8a: 00        nop
ff8b: 00        nop
ff8c: ff        stop
ff8d: ff        stop
ff8e: ff        stop
ff8f: ff        stop
ff90: ef        sleep
ff91: 22 d0     set1  $d0
ff93: 23 e0 48  bbs1  $e0,$ffdd
ff96: f5 6f c1  mov   a,$c16f+x
ff99: 44 1d     eor   a,$1d
ff9b: 33 f2 5f  bbc1  $f2,$fffc
ff9e: 44 32     eor   a,$32
ffa0: 03 32 34  bbs0  $32,$ffd6
ffa3: 0f        brk
ffa4: 23 20 00  bbs1  $20,$ffa6
ffa7: 44 23     eor   a,$23
ffa9: e0        clrv
ffaa: 40        setp
ffab: d1        tcall 13
ffac: f4 39     mov   a,$39+x
ffae: b6 1d 44  sbc   a,$441d+y
ffb1: f0 f2     beq   $ffa5
ffb3: f0 2f     beq   $ffe4
ffb5: f5 1c 24  mov   a,$241c+x
ffb8: e0        clrv
ffb9: 34 ee     and   a,$ee+x
ffbb: 0b a5     asl   $a5
ffbd: 2a ec d3  or1   c,!($1a7d,4)
ffc0: 4b b1     lsr   $b1
ffc2: 34 21     and   a,$21+x
ffc4: db 32     mov   $32+x,y
ffc6: fe e4     dbnz  y,$ffac
ffc8: 4b e4     lsr   $e4
ffca: ff        stop
ffcb: 34 1e     and   a,$1e+x
ffcd: d1        tcall 13
ffce: 20        clrp
ffcf: fd        mov   y,a
ffd0: 04 0a     or    a,$0a
ffd2: f4 0f     mov   a,$0f+x
ffd4: 24 e2     and   a,$e2
ffd6: 1e c1 40  cmp   x,$40c1
ffd9: bf        mov   a,(x)+
ffda: 22 1e     set1  $1e
ffdc: f3 15 4d  bbc7  $15,$002b
ffdf: d1        tcall 13
ffe0: 30 00     bmi   $ffe2
ffe2: 2f f0     bra   $ffd4
ffe4: 1f 00 ff  jmp   ($ff00+x)
ffe7: ff        stop
ffe8: ff        stop
ffe9: ff        stop
ffea: ff        stop
ffeb: ff        stop
ffec: ff        stop
ffed: ff        stop
ffee: ff        stop
ffef: ff        stop
fff0: ff        stop
fff1: ff        stop
fff2: ff        stop
fff3: ff        stop
fff4: ff        stop
fff5: ff        stop
fff6: ff        stop
fff7: ff        stop
fff8: ff        stop
fff9: ff        stop
fffa: ff        stop
fffb: ff        stop
fffc: ff        stop
fffd: ff        stop
fffe: ff        stop
ffff: ff        stop
